
vvlibc.o:     file format elf32-i386
vvlibc.o
architecture: i386, flags 0x00000011:
HAS_RELOC, HAS_SYMS
start address 0x00000000

Sections:
Idx Name          Size      VMA       LMA       File off  Algn
  0 .init         00000005  00000000  00000000  00000034  2**0
                  CONTENTS, ALLOC, LOAD, RELOC, READONLY, CODE
  1 .text         00006204  00000000  00000000  00000040  2**4
                  CONTENTS, ALLOC, LOAD, RELOC, READONLY, CODE
  2 .text.startup 0000001d  00000000  00000000  00006250  2**4
                  CONTENTS, ALLOC, LOAD, RELOC, READONLY, CODE
  3 .fini         00000005  00000000  00000000  0000626d  2**0
                  CONTENTS, ALLOC, LOAD, RELOC, READONLY, CODE
  4 .rodata       000034c0  00000000  00000000  00006280  2**5
                  CONTENTS, ALLOC, LOAD, RELOC, READONLY, DATA
  5 .rodata.str1.4 0000009a  00000000  00000000  00009740  2**2
                  CONTENTS, ALLOC, LOAD, READONLY, DATA
  6 .rodata.str1.1 0000006f  00000000  00000000  000097da  2**0
                  CONTENTS, ALLOC, LOAD, READONLY, DATA
  7 .rodata.cst8  00000048  00000000  00000000  00009850  2**3
                  CONTENTS, ALLOC, LOAD, READONLY, DATA
  8 .rodata.cst4  00000028  00000000  00000000  00009898  2**2
                  CONTENTS, ALLOC, LOAD, READONLY, DATA
  9 .eh_frame     00000004  00000000  00000000  000098c0  2**2
                  CONTENTS, ALLOC, LOAD, DATA
 10 .data         00000004  00000000  00000000  000098c4  2**2
                  CONTENTS, ALLOC, LOAD, DATA
 11 .dtors        00000008  00000000  00000000  000098c8  2**2
                  CONTENTS, ALLOC, LOAD, DATA
 12 .ctors        0000000c  00000000  00000000  000098d0  2**2
                  CONTENTS, ALLOC, LOAD, RELOC, DATA
 13 .bss          00000066  00000000  00000000  000098e0  2**5
                  ALLOC
 14 .comment      00000876  00000000  00000000  000098e0  2**0
                  CONTENTS, READONLY
 15 .debug_aranges 00000e58  00000000  00000000  0000a158  2**3
                  CONTENTS, RELOC, READONLY, DEBUGGING, OCTETS
 16 .debug_info   00009d67  00000000  00000000  0000afb0  2**0
                  CONTENTS, RELOC, READONLY, DEBUGGING, OCTETS
 17 .debug_abbrev 000051a0  00000000  00000000  00014d17  2**0
                  CONTENTS, READONLY, DEBUGGING, OCTETS
 18 .debug_line   000075af  00000000  00000000  00019eb7  2**0
                  CONTENTS, RELOC, READONLY, DEBUGGING, OCTETS
 19 .debug_frame  00001f7c  00000000  00000000  00021468  2**2
                  CONTENTS, RELOC, READONLY, DEBUGGING, OCTETS
 20 .debug_str    00006cc7  00000000  00000000  000233e4  2**0
                  CONTENTS, READONLY, DEBUGGING, OCTETS
 21 .debug_line_str 00005877  00000000  00000000  0002a0ab  2**0
                  CONTENTS, READONLY, DEBUGGING, OCTETS
 22 .debug_loclists 000078f5  00000000  00000000  0002f922  2**0
                  CONTENTS, RELOC, READONLY, DEBUGGING, OCTETS
 23 .debug_rnglists 00000447  00000000  00000000  00037217  2**0
                  CONTENTS, RELOC, READONLY, DEBUGGING, OCTETS
SYMBOL TABLE:
00000000 l    d  .init	00000000 .init
00000000 l    d  .text	00000000 .text
00000000 l    d  .text.startup	00000000 .text.startup
00000000 l    d  .fini	00000000 .fini
00000000 l    d  .rodata	00000000 .rodata
00000000 l    d  .rodata.str1.4	00000000 .rodata.str1.4
00000000 l    d  .rodata.str1.1	00000000 .rodata.str1.1
00000000 l    d  .rodata.cst8	00000000 .rodata.cst8
00000000 l    d  .rodata.cst4	00000000 .rodata.cst4
00000000 l    d  .eh_frame	00000000 .eh_frame
00000000 l    d  .data	00000000 .data
00000000 l    d  .dtors	00000000 .dtors
00000000 l    d  .ctors	00000000 .ctors
00000000 l    d  .bss	00000000 .bss
00000000 l    d  .comment	00000000 .comment
00000000 l    d  .debug_aranges	00000000 .debug_aranges
00000000 l    d  .debug_info	00000000 .debug_info
00000000 l    d  .debug_abbrev	00000000 .debug_abbrev
00000000 l    d  .debug_line	00000000 .debug_line
00000000 l    d  .debug_frame	00000000 .debug_frame
00000000 l    d  .debug_str	00000000 .debug_str
00000000 l    d  .debug_line_str	00000000 .debug_line_str
00000000 l    d  .debug_loclists	00000000 .debug_loclists
00000000 l    d  .debug_rnglists	00000000 .debug_rnglists
00000000 l    df *ABS*	00000000 crtbegin.c
00000030 l     F .text	00000051 __do_init
00000090 l     F .text	00000061 __do_fini
00000040 l     O .bss	00000001 __initialized.2
00000020 l     O .bss	00000020 __object.1
00000000 l     O .eh_frame	00000004 
00000000 l     O .ctors	00000004 __CTOR_LIST__
00000004 l     O .bss	00000001 __finalized.0
00000000 l     O .dtors	00000004 __DTOR_LIST__
00000000 l    df *ABS*	00000000 abort.c
00000000 l    df *ABS*	00000000 at_exit.c
00000000 l    df *ABS*	00000000 at_quick_exit.c
00000000 l    df *ABS*	00000000 crtend.c
00000000 l    df *ABS*	00000000 cxa_atexit.c
00000000 l    df *ABS*	00000000 exit.c
00000000 l    df *ABS*	00000000 _Exit.c
00000000 l    df *ABS*	00000000 quick_exit.c
00000000 l    df *ABS*	00000000 stack_protection.c
00000000 l     F .text.startup	0000001d __construct_stk_chk_guard
00000000 l    df *ABS*	00000000 isalnum.c
00000000 l    df *ABS*	00000000 isalpha.c
00000000 l    df *ABS*	00000000 isascii.c
00000000 l    df *ABS*	00000000 isblank.c
00000000 l    df *ABS*	00000000 iscntrl.c
00000000 l    df *ABS*	00000000 isdigit.c
00000000 l    df *ABS*	00000000 isgraph.c
00000000 l    df *ABS*	00000000 islower.c
00000000 l    df *ABS*	00000000 isprint.c
00000000 l    df *ABS*	00000000 ispunct.c
00000000 l    df *ABS*	00000000 isspace.c
00000000 l    df *ABS*	00000000 isupper.c
00000000 l    df *ABS*	00000000 isxdigit.c
00000000 l    df *ABS*	00000000 toascii.c
00000000 l    df *ABS*	00000000 tolower.c
00000000 l    df *ABS*	00000000 toupper.c
00000000 l    df *ABS*	00000000 langinfo.c
0000000c l     O .rodata	00000003 c_numeric
00000040 l     O .rodata	0000013c c_time
00000010 l     O .rodata	00000013 c_messages
00000000 l     O .rodata	0000000c __func__.0
00000000 l    df *ABS*	00000000 assert.c
00000000 l    df *ABS*	00000000 printf.c
000004d0 l     F .text	00000016 _out_buffer
000004f0 l     F .text	00000001 _out_null
00000500 l     F .text	000000cf _out_rev
000005d0 l     F .text	00000296 _ntoa_format
00000870 l     F .text	000000c4 _ntoa_long
00000940 l     F .text	000000ee _ntoa_long_long
00000a30 l     F .text	000003bb _etoa
00000df0 l     F .text	000004c1 _ftoa
00000320 l     O .rodata	00000050 pow10.0
000012c0 l     F .text	0000001c _out_char
000012e0 l     F .text	00000022 _out_fct
00001310 l     F .text	00000929 _vsnprintf
00000000 l    df *ABS*	00000000 vv_stubs.c
00000000 l    df *ABS*	00000000 asprintf.c
00000000 l    df *ABS*	00000000 putchar.c
00000000 l    df *ABS*	00000000 putchar_native.c
00000000 l    df *ABS*	00000000 puts.c
00000000 l    df *ABS*	00000000 vasprintf.c
00000000 l    df *ABS*	00000000 abs.c
00000000 l    df *ABS*	00000000 atoi.c
00000000 l    df *ABS*	00000000 atol.c
00000000 l    df *ABS*	00000000 atoll.c
00000000 l    df *ABS*	00000000 bsearch.c
00000000 l    df *ABS*	00000000 calloc.c
00000000 l    df *ABS*	00000000 div.c
00000000 l    df *ABS*	00000000 heapsort.c
00000000 l    df *ABS*	00000000 heapsort_r.c
00000000 l    df *ABS*	00000000 imaxabs.c
00000000 l    df *ABS*	00000000 imaxdiv.c
00000000 l    df *ABS*	00000000 labs.c
00000000 l    df *ABS*	00000000 ldiv.c
00000000 l    df *ABS*	00000000 llabs.c
00000000 l    df *ABS*	00000000 lldiv.c
00000000 l    df *ABS*	00000000 qsort.c
00002810 l     F .text	0000092c _qsort
00000000 l    df *ABS*	00000000 qsort_r.c
00003180 l     F .text	000009bc _qsort
00000000 l    df *ABS*	00000000 rand.c
00000000 l     O .data	00000004 next
00000000 l    df *ABS*	00000000 realloc.c
00000000 l    df *ABS*	00000000 strtol.c
00000000 l    df *ABS*	00000000 strtoll.c
00000000 l    df *ABS*	00000000 strtoul.c
00000000 l    df *ABS*	00000000 strtoull.c
00000000 l    df *ABS*	00000000 memchr.c
00000000 l    df *ABS*	00000000 memcmp.c
00000000 l    df *ABS*	00000000 memcpy.c
00000000 l    df *ABS*	00000000 memmem.c
00000000 l    df *ABS*	00000000 memmove.c
00000000 l    df *ABS*	00000000 memrchr.c
00000000 l    df *ABS*	00000000 memset.c
00000000 l    df *ABS*	00000000 strcat.c
00000000 l    df *ABS*	00000000 strchr.c
00000000 l    df *ABS*	00000000 strchrnul.c
00000000 l    df *ABS*	00000000 strcmp.c
00000000 l    df *ABS*	00000000 strcoll.c
00000000 l    df *ABS*	00000000 strcpy.c
00000000 l    df *ABS*	00000000 strcspn.c
00000000 l    df *ABS*	00000000 strdup.c
00000000 l    df *ABS*	00000000 strerror.c
00000a60 l     O .rodata	00000055 errid
00000380 l     O .rodata	000006cf errmsg
00000000 l    df *ABS*	00000000 strerror_r.c
00000ab8 l     O .rodata	0000000b __func__.0
00000000 l    df *ABS*	00000000 strlen.c
00000000 l    df *ABS*	00000000 strncat.c
00000000 l    df *ABS*	00000000 strncmp.c
00000000 l    df *ABS*	00000000 strncpy.c
00000000 l    df *ABS*	00000000 strndup.c
00000000 l    df *ABS*	00000000 strnlen.c
00000000 l    df *ABS*	00000000 strnstr.c
00000000 l    df *ABS*	00000000 strpbrk.c
00000000 l    df *ABS*	00000000 strrchr.c
00000000 l    df *ABS*	00000000 strspn.c
00000000 l    df *ABS*	00000000 strstr.c
00000000 l    df *ABS*	00000000 strtok.c
00000048 l     O .bss	00000004 last.0
00000000 l    df *ABS*	00000000 strxfrm.c
00000000 l    df *ABS*	00000000 fls.c
00000000 l    df *ABS*	00000000 flsl.c
00000000 l    df *ABS*	00000000 flsll.c
00000000 l    df *ABS*	00000000 asctime.c
0000004c l     O .bss	0000001a buf.0
00000000 l    df *ABS*	00000000 asctime_r.c
00000ac4 l     O .rodata	0000000a __func__.0
00000000 l    df *ABS*	00000000 iswalnum.c
00000000 l    df *ABS*	00000000 iswalpha.c
00000ae0 l     O .rodata	00000ba0 table
00000000 l    df *ABS*	00000000 iswblank.c
00000000 l    df *ABS*	00000000 iswcntrl.c
00000000 l    df *ABS*	00000000 iswctype.c
00000000 l    df *ABS*	00000000 iswdigit.c
00000000 l    df *ABS*	00000000 iswgraph.c
00000000 l    df *ABS*	00000000 iswlower.c
00000000 l    df *ABS*	00000000 iswprint.c
00000000 l    df *ABS*	00000000 iswpunct.c
000016c0 l     O .rodata	00000c60 table
00000000 l    df *ABS*	00000000 iswspace.c
00002320 l     O .rodata	00000058 spaces.0
00000000 l    df *ABS*	00000000 iswupper.c
00000000 l    df *ABS*	00000000 iswxdigit.c
00000000 l    df *ABS*	00000000 towccase.c
000025c0 l     O .rodata	00000104 casemaps
00002380 l     O .rodata	0000022c pairs
00000000 l    df *ABS*	00000000 towctrans.c
00000000 l    df *ABS*	00000000 towlower.c
00000000 l    df *ABS*	00000000 towupper.c
00000000 l    df *ABS*	00000000 wcswidth.c
00000000 l    df *ABS*	00000000 wctrans.c
00000000 l    df *ABS*	00000000 wctype.c
000026e0 l     O .rodata	00000049 names.0
00000000 l    df *ABS*	00000000 wcwidth.c
00002d40 l     O .rodata	00000780 table
00002740 l     O .rodata	00000600 wtable
000061d7 g     F .text	00000000 longjmp
00001d80 g     F .text	0000001a putchar
00000004 g     O .dtors	00000004 .hidden __DTOR_LIST_END__
00004ff0 g     F .text	0000002b strcpy
00005830 g     F .text	00000015 asctime
00001d30 g     F .text	00000010 _putchar
000061a0 g     F .text	00000000 setjmp
00000000         *UND*	00000000 __divdi3
000050f0 g     F .text	00000077 strerror
000053d0 g     F .text	00000003 strndup
00001cc0 g     F .text	00000020 vprintf_
00004d70  w    F .text	00000005 memmove
00005690 g     F .text	000000a0 __strtok_r
00000044  w    O .bss	00000004 __stack_chk_guard
00001ef0 g     F .text	00000085 atol
000059a0 g     F .text	00000049 iswcntrl
00005bb0 g     F .text	00000049 iswpunct
00000200 g     F .text	00000019 isblank
00002720 g     F .text	0000000f labs
00005940 g     F .text	00000049 iswalpha
00005990 g     F .text	00000005 iswblank
00004ce0 g     F .text	0000008f memmem
00002020 g     F .text	00000054 bsearch
00003140 g     F .text	00000040 qsort
00005c90 g     F .text	00000026 iswxdigit
00004d80 g     F .text	00000038 __memrchr
00004ae0 g     F .text	000001fe memcpy
00000000         *UND*	00000000 kfree
00001da0 g     F .text	0000006d puts
00000280 g     F .text	00000014 islower
00000390 g     F .text	00000026 tolower
00005b30 g     F .text	00000020 iswlower
00001d40 g     F .text	00000005 malloc
00000130  w    F .text	0000000e quick_exit
00001c70 g     F .text	00000021 sprintf_
00005c00 g     F .text	00000034 iswspace
00004040 g     F .text	00000390 strtoll
000043d0 g     F .text	000002d2 strtoul
00000000 g     O .bss	00000004 .hidden __dso_handle
000057e0 g     F .text	00000047 flsll
000002c0 g     F .text	00000039 ispunct
00000000         *UND*	00000000 __udivmoddi4
00000300 g     F .text	0000001c isspace
00000000         *UND*	00000000 __umoddi3
00000120  w    F .text	00000002 _Exit
00000000         *UND*	00000000 __udivdi3
00000000  w    F .text	0000000d abort
00000150  w    F .text	00000015 __stack_chk_fail
00000340 g     F .text	00000031 isxdigit
00001ce0 g     F .text	00000020 vsnprintf_
00003d80 g     F .text	000002bc strtol
000053e0 g     F .text	00000049 strnlen
00005b50 g     F .text	00000052 iswprint
00005520 g     F .text	00000025 strrchr
00002080 g     F .text	00000051 calloc
000057a0 g     F .text	0000001b fls
00002690 g     F .text	00000020 imaxabs
00001d00 g     F .text	0000002d fctprintf
00005af0 g     F .text	00000039 iswgraph
00004e50 g     F .text	00000039 strcat
00003b90  w    F .text	00000061 rand_r
00000000  w      *UND*	00000000 __deregister_frame_info
000003f0 g     F .text	000000bc nl_langinfo
00004ec0 g     F .text	000000b8 __strchrnul
00004970 g     F .text	000000a8 memchr
00003cf0 g     F .text	0000008f reallocf
00005620 g     F .text	00000066 strstr
00003c00  w    F .text	00000061 rand
000057c0 g     F .text	0000001b flsl
000059f0 g     F .text	000000dd iswctype
00004fe0 g     F .text	00000005 strcoll
00000320 g     F .text	00000014 isupper
000052f0 g     F .text	0000006d strncmp
00000000         *UND*	00000000 term_put_char
00005360 g     F .text	00000068 strncpy
000060f0 g     F .text	000000b0 wcwidth
000001e0 g     F .text	00000011 isascii
00003c80 g     F .text	0000006f realloc
00005fb0 g     F .text	00000030 towupper
00000100  w    F .text	00000003 __cxa_atexit
00005f40 g     F .text	00000039 towctrans
00005730 g     F .text	00000018 strtok
00000020  w    F .text	00000003 at_quick_exit
00004a20  w    F .text	000000b4 memcmp
000001c0 g     F .text	00000017 isalpha
000052a0 g     F .text	00000044 strncat
00005c40 g     F .text	00000024 wcschr
000050e0 g     F .text	00000003 strdup
000046b0 g     F .text	000002b9 strtoull
00005cc0 g     F .text	00000273 __towcase
00005850 g     F .text	00000098 asctime_r
00004dc0  w    F .text	00000083 memset
00003c70  w    F .text	0000000d srand
00005750 g     F .text	00000048 strxfrm
00006090 g     F .text	0000005c wctype
00000260 g     F .text	00000014 isgraph
000004b0  w    F .text	0000001c __assert_fail
00000170 g     F .text	00000049 isalnum
000002a0 g     F .text	00000014 isprint
00000000 g     O .eh_frame	00000004 .hidden __EH_FRAME_LIST_END__
00004f80 g     F .text	0000005e strcmp
00001d60 g     F .text	00000017 asprintf
00005170 g     F .text	000000a3 strerror_r
00000010  w    F .text	00000003 atexit
00000380 g     F .text	0000000b toascii
00005020 g     F .text	000000b8 strcspn
00005ad0 g     F .text	00000014 iswdigit
00001ca0 g     F .text	0000001f snprintf_
000023e0 g     F .text	000002a3 heapsort_r
00002730 g     F .text	00000044 ldiv
00005430 g     F .text	000000bc strnstr
00005c70 g     F .text	00000020 iswupper
00000004 g     O .ctors	00000004 .hidden __CTOR_LIST_END__
000027a0 g     F .text	0000006e lldiv
00001c40 g     F .text	00000021 printf_
00000240 g     F .text	00000014 isdigit
00003b40 g     F .text	0000004c qsort_r
00002130 g     F .text	000002a3 heapsort
00000000         *UND*	00000000 __divmoddi4
00000000         *UND*	00000000 kmalloc
00000110  w    F .text	0000000e exit
00005f80 g     F .text	00000030 towlower
00002780 g     F .text	00000020 llabs
000058f0 g     F .text	00000049 iswalnum
00001e80 g     F .text	00000063 atoi
00000220 g     F .text	00000019 iscntrl
00000000         *UND*	00000000 __moddi3
00005550 g     F .text	000000d0 strspn
00005220 g     F .text	00000077 strlen
000003c0 g     F .text	00000026 toupper
00001f80 g     F .text	0000009b atoll
000020e0 g     F .text	00000044 div
00001e70 g     F .text	0000000f abs
00004e90 g     F .text	00000022 strchr
00005fe0 g     F .text	0000005c wcswidth
000026b0 g     F .text	0000006e imaxdiv
00001e10 g     F .text	00000057 vasprintf
00000000  w      *UND*	00000000 __register_frame_info
00000140  w    F .text	00000006 __stack_chk_guard_init
000054f0 g     F .text	00000025 strpbrk
00001d50 g     F .text	00000005 free
00006040 g     F .text	00000043 wctrans



Disassembly of section .init:

00000000 <.init>:
   0:	e8 2c 00 00 00       	call   31 <__do_init+0x1>
			1: R_386_PC32	.text

Disassembly of section .text:

00000000 <abort>:
       0:	55                   	push   %ebp
       1:	89 e5                	mov    %esp,%ebp
       3:	83 ec 14             	sub    $0x14,%esp
       6:	6a 2d                	push   $0x2d
       8:	e8 fc ff ff ff       	call   9 <abort+0x9>
			9: R_386_PC32	_Exit
       d:	66 90                	xchg   %ax,%ax
       f:	90                   	nop

00000010 <atexit>:
      10:	31 c0                	xor    %eax,%eax
      12:	c3                   	ret    
      13:	66 90                	xchg   %ax,%ax
      15:	66 90                	xchg   %ax,%ax
      17:	66 90                	xchg   %ax,%ax
      19:	66 90                	xchg   %ax,%ax
      1b:	66 90                	xchg   %ax,%ax
      1d:	66 90                	xchg   %ax,%ax
      1f:	90                   	nop

00000020 <at_quick_exit>:
      20:	31 c0                	xor    %eax,%eax
      22:	c3                   	ret    
      23:	66 90                	xchg   %ax,%ax
      25:	66 90                	xchg   %ax,%ax
      27:	66 90                	xchg   %ax,%ax
      29:	66 90                	xchg   %ax,%ax
      2b:	66 90                	xchg   %ax,%ax
      2d:	66 90                	xchg   %ax,%ax
      2f:	90                   	nop

00000030 <__do_init>:
      30:	80 3d 40 00 00 00 00 	cmpb   $0x0,0x40
			32: R_386_32	.bss
      37:	75 47                	jne    80 <__do_init+0x50>
      39:	55                   	push   %ebp
      3a:	b8 00 00 00 00       	mov    $0x0,%eax
			3b: R_386_32	__register_frame_info
      3f:	89 e5                	mov    %esp,%ebp
      41:	83 ec 08             	sub    $0x8,%esp
      44:	c6 05 40 00 00 00 01 	movb   $0x1,0x40
			46: R_386_32	.bss
      4b:	85 c0                	test   %eax,%eax
      4d:	74 16                	je     65 <__do_init+0x35>
      4f:	83 ec 08             	sub    $0x8,%esp
      52:	68 20 00 00 00       	push   $0x20
			53: R_386_32	.bss
      57:	ff 35 00 00 00 00    	push   0x0
			59: R_386_32	.eh_frame
      5d:	e8 fc ff ff ff       	call   5e <__do_init+0x2e>
			5e: R_386_PC32	__register_frame_info
      62:	83 c4 10             	add    $0x10,%esp
      65:	b8 ff ff ff ff       	mov    $0xffffffff,%eax
			66: R_386_32	__CTOR_LIST_END__
      6a:	2d 00 00 00 00       	sub    $0x0,%eax
			6b: R_386_32	.ctors
      6f:	8b 04 85 00 00 00 00 	mov    0x0(,%eax,4),%eax
			72: R_386_32	.ctors
      76:	c9                   	leave  
      77:	ff e0                	jmp    *%eax
      79:	8d b4 26 00 00 00 00 	lea    0x0(%esi,%eiz,1),%esi
      80:	c3                   	ret    
      81:	8d b4 26 00 00 00 00 	lea    0x0(%esi,%eiz,1),%esi
      88:	8d b4 26 00 00 00 00 	lea    0x0(%esi,%eiz,1),%esi
      8f:	90                   	nop

00000090 <__do_fini>:
      90:	80 3d 04 00 00 00 00 	cmpb   $0x0,0x4
			92: R_386_32	.bss
      97:	75 57                	jne    f0 <__do_fini+0x60>
      99:	55                   	push   %ebp
      9a:	b8 00 00 00 00       	mov    $0x0,%eax
			9b: R_386_32	__deregister_frame_info
      9f:	c6 05 04 00 00 00 01 	movb   $0x1,0x4
			a1: R_386_32	.bss
      a6:	89 e5                	mov    %esp,%ebp
      a8:	56                   	push   %esi
      a9:	53                   	push   %ebx
      aa:	85 c0                	test   %eax,%eax
      ac:	74 11                	je     bf <__do_fini+0x2f>
      ae:	83 ec 0c             	sub    $0xc,%esp
      b1:	ff 35 00 00 00 00    	push   0x0
			b3: R_386_32	.eh_frame
      b7:	e8 fc ff ff ff       	call   b8 <__do_fini+0x28>
			b8: R_386_PC32	__deregister_frame_info
      bc:	83 c4 10             	add    $0x10,%esp
      bf:	be ff ff ff ff       	mov    $0xffffffff,%esi
			c0: R_386_32	__DTOR_LIST_END__
      c4:	bb 01 00 00 00       	mov    $0x1,%ebx
      c9:	81 ee 00 00 00 00    	sub    $0x0,%esi
			cb: R_386_32	.dtors
      cf:	90                   	nop
      d0:	ff 14 9d 00 00 00 00 	call   *0x0(,%ebx,4)
			d3: R_386_32	.dtors
      d7:	83 c3 01             	add    $0x1,%ebx
      da:	39 de                	cmp    %ebx,%esi
      dc:	77 f2                	ja     d0 <__do_fini+0x40>
      de:	8d 65 f8             	lea    -0x8(%ebp),%esp
      e1:	5b                   	pop    %ebx
      e2:	5e                   	pop    %esi
      e3:	5d                   	pop    %ebp
      e4:	c3                   	ret    
      e5:	8d b4 26 00 00 00 00 	lea    0x0(%esi,%eiz,1),%esi
      ec:	8d 74 26 00          	lea    0x0(%esi,%eiz,1),%esi
      f0:	c3                   	ret    
      f1:	66 90                	xchg   %ax,%ax
      f3:	66 90                	xchg   %ax,%ax
      f5:	66 90                	xchg   %ax,%ax
      f7:	66 90                	xchg   %ax,%ax
      f9:	66 90                	xchg   %ax,%ax
      fb:	66 90                	xchg   %ax,%ax
      fd:	66 90                	xchg   %ax,%ax
      ff:	90                   	nop

00000100 <__cxa_atexit>:
     100:	31 c0                	xor    %eax,%eax
     102:	c3                   	ret    
     103:	66 90                	xchg   %ax,%ax
     105:	66 90                	xchg   %ax,%ax
     107:	66 90                	xchg   %ax,%ax
     109:	66 90                	xchg   %ax,%ax
     10b:	66 90                	xchg   %ax,%ax
     10d:	66 90                	xchg   %ax,%ax
     10f:	90                   	nop

00000110 <exit>:
     110:	55                   	push   %ebp
     111:	89 e5                	mov    %esp,%ebp
     113:	83 ec 14             	sub    $0x14,%esp
     116:	ff 75 08             	push   0x8(%ebp)
     119:	e8 fc ff ff ff       	call   11a <exit+0xa>
			11a: R_386_PC32	_Exit
     11e:	66 90                	xchg   %ax,%ax

00000120 <_Exit>:
     120:	eb fe                	jmp    120 <_Exit>
     122:	66 90                	xchg   %ax,%ax
     124:	66 90                	xchg   %ax,%ax
     126:	66 90                	xchg   %ax,%ax
     128:	66 90                	xchg   %ax,%ax
     12a:	66 90                	xchg   %ax,%ax
     12c:	66 90                	xchg   %ax,%ax
     12e:	66 90                	xchg   %ax,%ax

00000130 <quick_exit>:
     130:	55                   	push   %ebp
     131:	89 e5                	mov    %esp,%ebp
     133:	83 ec 14             	sub    $0x14,%esp
     136:	ff 75 08             	push   0x8(%ebp)
     139:	e8 fc ff ff ff       	call   13a <quick_exit+0xa>
			13a: R_386_PC32	_Exit
     13e:	66 90                	xchg   %ax,%ax

00000140 <__stack_chk_guard_init>:
     140:	b8 8d cc f3 a5       	mov    $0xa5f3cc8d,%eax
     145:	c3                   	ret    
     146:	8d b4 26 00 00 00 00 	lea    0x0(%esi,%eiz,1),%esi
     14d:	8d 76 00             	lea    0x0(%esi),%esi

00000150 <__stack_chk_fail>:
     150:	55                   	push   %ebp
     151:	89 e5                	mov    %esp,%ebp
     153:	83 ec 14             	sub    $0x14,%esp
     156:	68 00 00 00 00       	push   $0x0
			157: R_386_32	.rodata.str1.4
     15b:	e8 fc ff ff ff       	call   15c <__stack_chk_fail+0xc>
			15c: R_386_PC32	printf_
     160:	e8 fc ff ff ff       	call   161 <__stack_chk_fail+0x11>
			161: R_386_PC32	abort
     165:	66 90                	xchg   %ax,%ax
     167:	66 90                	xchg   %ax,%ax
     169:	66 90                	xchg   %ax,%ax
     16b:	66 90                	xchg   %ax,%ax
     16d:	66 90                	xchg   %ax,%ax
     16f:	90                   	nop

00000170 <isalnum>:
     170:	55                   	push   %ebp
     171:	89 e5                	mov    %esp,%ebp
     173:	53                   	push   %ebx
     174:	83 ec 10             	sub    $0x10,%esp
     177:	8b 5d 08             	mov    0x8(%ebp),%ebx
     17a:	53                   	push   %ebx
     17b:	e8 fc ff ff ff       	call   17c <isalnum+0xc>
			17c: R_386_PC32	isalpha
     180:	83 c4 10             	add    $0x10,%esp
     183:	89 c2                	mov    %eax,%edx
     185:	b8 01 00 00 00       	mov    $0x1,%eax
     18a:	85 d2                	test   %edx,%edx
     18c:	74 12                	je     1a0 <isalnum+0x30>
     18e:	8b 5d fc             	mov    -0x4(%ebp),%ebx
     191:	c9                   	leave  
     192:	c3                   	ret    
     193:	8d b4 26 00 00 00 00 	lea    0x0(%esi,%eiz,1),%esi
     19a:	8d b6 00 00 00 00    	lea    0x0(%esi),%esi
     1a0:	83 ec 0c             	sub    $0xc,%esp
     1a3:	53                   	push   %ebx
     1a4:	e8 fc ff ff ff       	call   1a5 <isalnum+0x35>
			1a5: R_386_PC32	isdigit
     1a9:	83 c4 10             	add    $0x10,%esp
     1ac:	8b 5d fc             	mov    -0x4(%ebp),%ebx
     1af:	c9                   	leave  
     1b0:	85 c0                	test   %eax,%eax
     1b2:	0f 95 c0             	setne  %al
     1b5:	0f b6 c0             	movzbl %al,%eax
     1b8:	c3                   	ret    
     1b9:	66 90                	xchg   %ax,%ax
     1bb:	66 90                	xchg   %ax,%ax
     1bd:	66 90                	xchg   %ax,%ax
     1bf:	90                   	nop

000001c0 <isalpha>:
     1c0:	55                   	push   %ebp
     1c1:	89 e5                	mov    %esp,%ebp
     1c3:	8b 45 08             	mov    0x8(%ebp),%eax
     1c6:	5d                   	pop    %ebp
     1c7:	83 c8 20             	or     $0x20,%eax
     1ca:	83 e8 61             	sub    $0x61,%eax
     1cd:	83 f8 19             	cmp    $0x19,%eax
     1d0:	0f 96 c0             	setbe  %al
     1d3:	0f b6 c0             	movzbl %al,%eax
     1d6:	c3                   	ret    
     1d7:	66 90                	xchg   %ax,%ax
     1d9:	66 90                	xchg   %ax,%ax
     1db:	66 90                	xchg   %ax,%ax
     1dd:	66 90                	xchg   %ax,%ax
     1df:	90                   	nop

000001e0 <isascii>:
     1e0:	55                   	push   %ebp
     1e1:	31 c0                	xor    %eax,%eax
     1e3:	89 e5                	mov    %esp,%ebp
     1e5:	f7 45 08 80 ff ff ff 	testl  $0xffffff80,0x8(%ebp)
     1ec:	5d                   	pop    %ebp
     1ed:	0f 94 c0             	sete   %al
     1f0:	c3                   	ret    
     1f1:	66 90                	xchg   %ax,%ax
     1f3:	66 90                	xchg   %ax,%ax
     1f5:	66 90                	xchg   %ax,%ax
     1f7:	66 90                	xchg   %ax,%ax
     1f9:	66 90                	xchg   %ax,%ax
     1fb:	66 90                	xchg   %ax,%ax
     1fd:	66 90                	xchg   %ax,%ax
     1ff:	90                   	nop

00000200 <isblank>:
     200:	55                   	push   %ebp
     201:	89 e5                	mov    %esp,%ebp
     203:	8b 55 08             	mov    0x8(%ebp),%edx
     206:	5d                   	pop    %ebp
     207:	83 fa 20             	cmp    $0x20,%edx
     20a:	0f 94 c0             	sete   %al
     20d:	83 fa 09             	cmp    $0x9,%edx
     210:	0f 94 c2             	sete   %dl
     213:	09 d0                	or     %edx,%eax
     215:	0f b6 c0             	movzbl %al,%eax
     218:	c3                   	ret    
     219:	66 90                	xchg   %ax,%ax
     21b:	66 90                	xchg   %ax,%ax
     21d:	66 90                	xchg   %ax,%ax
     21f:	90                   	nop

00000220 <iscntrl>:
     220:	55                   	push   %ebp
     221:	89 e5                	mov    %esp,%ebp
     223:	8b 55 08             	mov    0x8(%ebp),%edx
     226:	5d                   	pop    %ebp
     227:	83 fa 1f             	cmp    $0x1f,%edx
     22a:	0f 96 c0             	setbe  %al
     22d:	83 fa 7f             	cmp    $0x7f,%edx
     230:	0f 94 c2             	sete   %dl
     233:	09 d0                	or     %edx,%eax
     235:	0f b6 c0             	movzbl %al,%eax
     238:	c3                   	ret    
     239:	66 90                	xchg   %ax,%ax
     23b:	66 90                	xchg   %ax,%ax
     23d:	66 90                	xchg   %ax,%ax
     23f:	90                   	nop

00000240 <isdigit>:
     240:	55                   	push   %ebp
     241:	89 e5                	mov    %esp,%ebp
     243:	8b 45 08             	mov    0x8(%ebp),%eax
     246:	5d                   	pop    %ebp
     247:	83 e8 30             	sub    $0x30,%eax
     24a:	83 f8 09             	cmp    $0x9,%eax
     24d:	0f 96 c0             	setbe  %al
     250:	0f b6 c0             	movzbl %al,%eax
     253:	c3                   	ret    
     254:	66 90                	xchg   %ax,%ax
     256:	66 90                	xchg   %ax,%ax
     258:	66 90                	xchg   %ax,%ax
     25a:	66 90                	xchg   %ax,%ax
     25c:	66 90                	xchg   %ax,%ax
     25e:	66 90                	xchg   %ax,%ax

00000260 <isgraph>:
     260:	55                   	push   %ebp
     261:	89 e5                	mov    %esp,%ebp
     263:	8b 45 08             	mov    0x8(%ebp),%eax
     266:	5d                   	pop    %ebp
     267:	83 e8 21             	sub    $0x21,%eax
     26a:	83 f8 5d             	cmp    $0x5d,%eax
     26d:	0f 96 c0             	setbe  %al
     270:	0f b6 c0             	movzbl %al,%eax
     273:	c3                   	ret    
     274:	66 90                	xchg   %ax,%ax
     276:	66 90                	xchg   %ax,%ax
     278:	66 90                	xchg   %ax,%ax
     27a:	66 90                	xchg   %ax,%ax
     27c:	66 90                	xchg   %ax,%ax
     27e:	66 90                	xchg   %ax,%ax

00000280 <islower>:
     280:	55                   	push   %ebp
     281:	89 e5                	mov    %esp,%ebp
     283:	8b 45 08             	mov    0x8(%ebp),%eax
     286:	5d                   	pop    %ebp
     287:	83 e8 61             	sub    $0x61,%eax
     28a:	83 f8 19             	cmp    $0x19,%eax
     28d:	0f 96 c0             	setbe  %al
     290:	0f b6 c0             	movzbl %al,%eax
     293:	c3                   	ret    
     294:	66 90                	xchg   %ax,%ax
     296:	66 90                	xchg   %ax,%ax
     298:	66 90                	xchg   %ax,%ax
     29a:	66 90                	xchg   %ax,%ax
     29c:	66 90                	xchg   %ax,%ax
     29e:	66 90                	xchg   %ax,%ax

000002a0 <isprint>:
     2a0:	55                   	push   %ebp
     2a1:	89 e5                	mov    %esp,%ebp
     2a3:	8b 45 08             	mov    0x8(%ebp),%eax
     2a6:	5d                   	pop    %ebp
     2a7:	83 e8 20             	sub    $0x20,%eax
     2aa:	83 f8 5e             	cmp    $0x5e,%eax
     2ad:	0f 96 c0             	setbe  %al
     2b0:	0f b6 c0             	movzbl %al,%eax
     2b3:	c3                   	ret    
     2b4:	66 90                	xchg   %ax,%ax
     2b6:	66 90                	xchg   %ax,%ax
     2b8:	66 90                	xchg   %ax,%ax
     2ba:	66 90                	xchg   %ax,%ax
     2bc:	66 90                	xchg   %ax,%ax
     2be:	66 90                	xchg   %ax,%ax

000002c0 <ispunct>:
     2c0:	55                   	push   %ebp
     2c1:	89 e5                	mov    %esp,%ebp
     2c3:	53                   	push   %ebx
     2c4:	83 ec 10             	sub    $0x10,%esp
     2c7:	8b 5d 08             	mov    0x8(%ebp),%ebx
     2ca:	53                   	push   %ebx
     2cb:	e8 fc ff ff ff       	call   2cc <ispunct+0xc>
			2cc: R_386_PC32	isgraph
     2d0:	83 c4 10             	add    $0x10,%esp
     2d3:	85 c0                	test   %eax,%eax
     2d5:	75 09                	jne    2e0 <ispunct+0x20>
     2d7:	8b 5d fc             	mov    -0x4(%ebp),%ebx
     2da:	c9                   	leave  
     2db:	c3                   	ret    
     2dc:	8d 74 26 00          	lea    0x0(%esi,%eiz,1),%esi
     2e0:	83 ec 0c             	sub    $0xc,%esp
     2e3:	53                   	push   %ebx
     2e4:	e8 fc ff ff ff       	call   2e5 <ispunct+0x25>
			2e5: R_386_PC32	isalnum
     2e9:	83 c4 10             	add    $0x10,%esp
     2ec:	8b 5d fc             	mov    -0x4(%ebp),%ebx
     2ef:	c9                   	leave  
     2f0:	85 c0                	test   %eax,%eax
     2f2:	0f 94 c0             	sete   %al
     2f5:	0f b6 c0             	movzbl %al,%eax
     2f8:	c3                   	ret    
     2f9:	66 90                	xchg   %ax,%ax
     2fb:	66 90                	xchg   %ax,%ax
     2fd:	66 90                	xchg   %ax,%ax
     2ff:	90                   	nop

00000300 <isspace>:
     300:	55                   	push   %ebp
     301:	89 e5                	mov    %esp,%ebp
     303:	8b 55 08             	mov    0x8(%ebp),%edx
     306:	5d                   	pop    %ebp
     307:	8d 42 f7             	lea    -0x9(%edx),%eax
     30a:	83 f8 04             	cmp    $0x4,%eax
     30d:	0f 96 c0             	setbe  %al
     310:	83 fa 20             	cmp    $0x20,%edx
     313:	0f 94 c2             	sete   %dl
     316:	09 d0                	or     %edx,%eax
     318:	0f b6 c0             	movzbl %al,%eax
     31b:	c3                   	ret    
     31c:	66 90                	xchg   %ax,%ax
     31e:	66 90                	xchg   %ax,%ax

00000320 <isupper>:
     320:	55                   	push   %ebp
     321:	89 e5                	mov    %esp,%ebp
     323:	8b 45 08             	mov    0x8(%ebp),%eax
     326:	5d                   	pop    %ebp
     327:	83 e8 41             	sub    $0x41,%eax
     32a:	83 f8 19             	cmp    $0x19,%eax
     32d:	0f 96 c0             	setbe  %al
     330:	0f b6 c0             	movzbl %al,%eax
     333:	c3                   	ret    
     334:	66 90                	xchg   %ax,%ax
     336:	66 90                	xchg   %ax,%ax
     338:	66 90                	xchg   %ax,%ax
     33a:	66 90                	xchg   %ax,%ax
     33c:	66 90                	xchg   %ax,%ax
     33e:	66 90                	xchg   %ax,%ax

00000340 <isxdigit>:
     340:	55                   	push   %ebp
     341:	89 e5                	mov    %esp,%ebp
     343:	53                   	push   %ebx
     344:	83 ec 10             	sub    $0x10,%esp
     347:	8b 5d 08             	mov    0x8(%ebp),%ebx
     34a:	53                   	push   %ebx
     34b:	e8 fc ff ff ff       	call   34c <isxdigit+0xc>
			34c: R_386_PC32	isdigit
     350:	83 c4 10             	add    $0x10,%esp
     353:	89 c2                	mov    %eax,%edx
     355:	b8 01 00 00 00       	mov    $0x1,%eax
     35a:	85 d2                	test   %edx,%edx
     35c:	75 0e                	jne    36c <isxdigit+0x2c>
     35e:	83 cb 20             	or     $0x20,%ebx
     361:	31 c0                	xor    %eax,%eax
     363:	83 eb 61             	sub    $0x61,%ebx
     366:	83 fb 05             	cmp    $0x5,%ebx
     369:	0f 96 c0             	setbe  %al
     36c:	8b 5d fc             	mov    -0x4(%ebp),%ebx
     36f:	c9                   	leave  
     370:	c3                   	ret    
     371:	66 90                	xchg   %ax,%ax
     373:	66 90                	xchg   %ax,%ax
     375:	66 90                	xchg   %ax,%ax
     377:	66 90                	xchg   %ax,%ax
     379:	66 90                	xchg   %ax,%ax
     37b:	66 90                	xchg   %ax,%ax
     37d:	66 90                	xchg   %ax,%ax
     37f:	90                   	nop

00000380 <toascii>:
     380:	55                   	push   %ebp
     381:	89 e5                	mov    %esp,%ebp
     383:	8b 45 08             	mov    0x8(%ebp),%eax
     386:	5d                   	pop    %ebp
     387:	83 e0 7f             	and    $0x7f,%eax
     38a:	c3                   	ret    
     38b:	66 90                	xchg   %ax,%ax
     38d:	66 90                	xchg   %ax,%ax
     38f:	90                   	nop

00000390 <tolower>:
     390:	55                   	push   %ebp
     391:	89 e5                	mov    %esp,%ebp
     393:	53                   	push   %ebx
     394:	83 ec 10             	sub    $0x10,%esp
     397:	8b 5d 08             	mov    0x8(%ebp),%ebx
     39a:	53                   	push   %ebx
     39b:	e8 fc ff ff ff       	call   39c <tolower+0xc>
			39c: R_386_PC32	isupper
     3a0:	83 c4 10             	add    $0x10,%esp
     3a3:	89 c2                	mov    %eax,%edx
     3a5:	89 d8                	mov    %ebx,%eax
     3a7:	83 c8 20             	or     $0x20,%eax
     3aa:	85 d2                	test   %edx,%edx
     3ac:	0f 45 d8             	cmovne %eax,%ebx
     3af:	89 d8                	mov    %ebx,%eax
     3b1:	8b 5d fc             	mov    -0x4(%ebp),%ebx
     3b4:	c9                   	leave  
     3b5:	c3                   	ret    
     3b6:	66 90                	xchg   %ax,%ax
     3b8:	66 90                	xchg   %ax,%ax
     3ba:	66 90                	xchg   %ax,%ax
     3bc:	66 90                	xchg   %ax,%ax
     3be:	66 90                	xchg   %ax,%ax

000003c0 <toupper>:
     3c0:	55                   	push   %ebp
     3c1:	89 e5                	mov    %esp,%ebp
     3c3:	53                   	push   %ebx
     3c4:	83 ec 10             	sub    $0x10,%esp
     3c7:	8b 5d 08             	mov    0x8(%ebp),%ebx
     3ca:	53                   	push   %ebx
     3cb:	e8 fc ff ff ff       	call   3cc <toupper+0xc>
			3cc: R_386_PC32	islower
     3d0:	83 c4 10             	add    $0x10,%esp
     3d3:	89 c2                	mov    %eax,%edx
     3d5:	89 d8                	mov    %ebx,%eax
     3d7:	83 e0 5f             	and    $0x5f,%eax
     3da:	85 d2                	test   %edx,%edx
     3dc:	0f 45 d8             	cmovne %eax,%ebx
     3df:	89 d8                	mov    %ebx,%eax
     3e1:	8b 5d fc             	mov    -0x4(%ebp),%ebx
     3e4:	c9                   	leave  
     3e5:	c3                   	ret    
     3e6:	66 90                	xchg   %ax,%ax
     3e8:	66 90                	xchg   %ax,%ax
     3ea:	66 90                	xchg   %ax,%ax
     3ec:	66 90                	xchg   %ax,%ax
     3ee:	66 90                	xchg   %ax,%ax

000003f0 <nl_langinfo>:
     3f0:	55                   	push   %ebp
     3f1:	89 e5                	mov    %esp,%ebp
     3f3:	53                   	push   %ebx
     3f4:	83 ec 04             	sub    $0x4,%esp
     3f7:	8b 5d 08             	mov    0x8(%ebp),%ebx
     3fa:	89 d9                	mov    %ebx,%ecx
     3fc:	c1 f9 10             	sar    $0x10,%ecx
     3ff:	83 fb 0e             	cmp    $0xe,%ebx
     402:	0f 84 8e 00 00 00    	je     496 <nl_langinfo+0xa6>
     408:	0f b7 d3             	movzwl %bx,%edx
     40b:	81 fa ff ff 00 00    	cmp    $0xffff,%edx
     411:	75 05                	jne    418 <nl_langinfo+0x28>
     413:	83 f9 05             	cmp    $0x5,%ecx
     416:	7e 68                	jle    480 <nl_langinfo+0x90>
     418:	b8 00 00 00 00       	mov    $0x0,%eax
			419: R_386_32	.rodata.str1.1
     41d:	83 f9 02             	cmp    $0x2,%ecx
     420:	74 43                	je     465 <nl_langinfo+0x75>
     422:	83 f9 05             	cmp    $0x5,%ecx
     425:	74 4a                	je     471 <nl_langinfo+0x81>
     427:	83 f9 01             	cmp    $0x1,%ecx
     42a:	74 05                	je     431 <nl_langinfo+0x41>
     42c:	8b 5d fc             	mov    -0x4(%ebp),%ebx
     42f:	c9                   	leave  
     430:	c3                   	ret    
     431:	81 e3 fe ff 00 00    	and    $0xfffe,%ebx
     437:	75 f3                	jne    42c <nl_langinfo+0x3c>
     439:	b8 0c 00 00 00       	mov    $0xc,%eax
			43a: R_386_32	.rodata
     43e:	85 d2                	test   %edx,%edx
     440:	75 11                	jne    453 <nl_langinfo+0x63>
     442:	eb e8                	jmp    42c <nl_langinfo+0x3c>
     444:	8d b4 26 00 00 00 00 	lea    0x0(%esi,%eiz,1),%esi
     44b:	8d 74 26 00          	lea    0x0(%esi,%eiz,1),%esi
     44f:	90                   	nop
     450:	83 c0 01             	add    $0x1,%eax
     453:	80 38 00             	cmpb   $0x0,(%eax)
     456:	75 f8                	jne    450 <nl_langinfo+0x60>
     458:	83 c0 01             	add    $0x1,%eax
     45b:	83 ea 01             	sub    $0x1,%edx
     45e:	75 f3                	jne    453 <nl_langinfo+0x63>
     460:	8b 5d fc             	mov    -0x4(%ebp),%ebx
     463:	c9                   	leave  
     464:	c3                   	ret    
     465:	83 fa 31             	cmp    $0x31,%edx
     468:	7f c2                	jg     42c <nl_langinfo+0x3c>
     46a:	b8 40 00 00 00       	mov    $0x40,%eax
			46b: R_386_32	.rodata
     46f:	eb cd                	jmp    43e <nl_langinfo+0x4e>
     471:	81 e3 fc ff 00 00    	and    $0xfffc,%ebx
     477:	75 b3                	jne    42c <nl_langinfo+0x3c>
     479:	b8 10 00 00 00       	mov    $0x10,%eax
			47a: R_386_32	.rodata
     47e:	eb be                	jmp    43e <nl_langinfo+0x4e>
     480:	68 00 00 00 00       	push   $0x0
			481: R_386_32	.rodata
     485:	6a 4f                	push   $0x4f
     487:	68 01 00 00 00       	push   $0x1
			488: R_386_32	.rodata.str1.1
     48c:	68 17 00 00 00       	push   $0x17
			48d: R_386_32	.rodata.str1.1
     491:	e8 fc ff ff ff       	call   492 <nl_langinfo+0xa2>
			492: R_386_PC32	__assert_fail
     496:	68 00 00 00 00       	push   $0x0
			497: R_386_32	.rodata
     49b:	6a 48                	push   $0x48
     49d:	68 01 00 00 00       	push   $0x1
			49e: R_386_32	.rodata.str1.1
     4a2:	68 17 00 00 00       	push   $0x17
			4a3: R_386_32	.rodata.str1.1
     4a7:	e8 fc ff ff ff       	call   4a8 <nl_langinfo+0xb8>
			4a8: R_386_PC32	__assert_fail
     4ac:	66 90                	xchg   %ax,%ax
     4ae:	66 90                	xchg   %ax,%ax

000004b0 <__assert_fail>:
     4b0:	55                   	push   %ebp
     4b1:	89 e5                	mov    %esp,%ebp
     4b3:	83 ec 14             	sub    $0x14,%esp
     4b6:	ff 75 10             	push   0x10(%ebp)
     4b9:	ff 75 14             	push   0x14(%ebp)
     4bc:	ff 75 0c             	push   0xc(%ebp)
     4bf:	ff 75 08             	push   0x8(%ebp)
     4c2:	68 2c 00 00 00       	push   $0x2c
			4c3: R_386_32	.rodata.str1.4
     4c7:	e8 fc ff ff ff       	call   4c8 <__assert_fail+0x18>
			4c8: R_386_PC32	printf_
     4cc:	66 90                	xchg   %ax,%ax
     4ce:	66 90                	xchg   %ax,%ax

000004d0 <_out_buffer>:
     4d0:	55                   	push   %ebp
     4d1:	89 e5                	mov    %esp,%ebp
     4d3:	8b 55 08             	mov    0x8(%ebp),%edx
     4d6:	8b 45 10             	mov    0x10(%ebp),%eax
     4d9:	3b 45 14             	cmp    0x14(%ebp),%eax
     4dc:	73 06                	jae    4e4 <_out_buffer+0x14>
     4de:	8b 4d 0c             	mov    0xc(%ebp),%ecx
     4e1:	88 14 01             	mov    %dl,(%ecx,%eax,1)
     4e4:	5d                   	pop    %ebp
     4e5:	c3                   	ret    
     4e6:	8d b4 26 00 00 00 00 	lea    0x0(%esi,%eiz,1),%esi
     4ed:	8d 76 00             	lea    0x0(%esi),%esi

000004f0 <_out_null>:
     4f0:	c3                   	ret    
     4f1:	8d b4 26 00 00 00 00 	lea    0x0(%esi,%eiz,1),%esi
     4f8:	8d b4 26 00 00 00 00 	lea    0x0(%esi,%eiz,1),%esi
     4ff:	90                   	nop

00000500 <_out_rev>:
     500:	55                   	push   %ebp
     501:	89 e5                	mov    %esp,%ebp
     503:	57                   	push   %edi
     504:	56                   	push   %esi
     505:	89 d6                	mov    %edx,%esi
     507:	53                   	push   %ebx
     508:	89 cb                	mov    %ecx,%ebx
     50a:	83 ec 1c             	sub    $0x1c,%esp
     50d:	89 45 e4             	mov    %eax,-0x1c(%ebp)
     510:	89 4d dc             	mov    %ecx,-0x24(%ebp)
     513:	f6 45 18 03          	testb  $0x3,0x18(%ebp)
     517:	75 2f                	jne    548 <_out_rev+0x48>
     519:	8b 45 14             	mov    0x14(%ebp),%eax
     51c:	2b 45 10             	sub    0x10(%ebp),%eax
     51f:	89 cf                	mov    %ecx,%edi
     521:	8d 1c 08             	lea    (%eax,%ecx,1),%ebx
     524:	8b 45 14             	mov    0x14(%ebp),%eax
     527:	39 45 10             	cmp    %eax,0x10(%ebp)
     52a:	0f 83 98 00 00 00    	jae    5c8 <_out_rev+0xc8>
     530:	89 fa                	mov    %edi,%edx
     532:	ff 75 08             	push   0x8(%ebp)
     535:	83 c7 01             	add    $0x1,%edi
     538:	8b 45 e4             	mov    -0x1c(%ebp),%eax
     53b:	52                   	push   %edx
     53c:	56                   	push   %esi
     53d:	6a 20                	push   $0x20
     53f:	ff d0                	call   *%eax
     541:	83 c4 10             	add    $0x10,%esp
     544:	39 fb                	cmp    %edi,%ebx
     546:	75 e8                	jne    530 <_out_rev+0x30>
     548:	8b 7d 10             	mov    0x10(%ebp),%edi
     54b:	8d 04 1f             	lea    (%edi,%ebx,1),%eax
     54e:	85 ff                	test   %edi,%edi
     550:	74 34                	je     586 <_out_rev+0x86>
     552:	89 c3                	mov    %eax,%ebx
     554:	8d b4 26 00 00 00 00 	lea    0x0(%esi,%eiz,1),%esi
     55b:	8d 74 26 00          	lea    0x0(%esi,%eiz,1),%esi
     55f:	90                   	nop
     560:	8b 45 0c             	mov    0xc(%ebp),%eax
     563:	89 da                	mov    %ebx,%edx
     565:	ff 75 08             	push   0x8(%ebp)
     568:	29 fa                	sub    %edi,%edx
     56a:	83 ef 01             	sub    $0x1,%edi
     56d:	89 5d e0             	mov    %ebx,-0x20(%ebp)
     570:	52                   	push   %edx
     571:	56                   	push   %esi
     572:	0f be 14 38          	movsbl (%eax,%edi,1),%edx
     576:	8b 45 e4             	mov    -0x1c(%ebp),%eax
     579:	52                   	push   %edx
     57a:	ff d0                	call   *%eax
     57c:	83 c4 10             	add    $0x10,%esp
     57f:	85 ff                	test   %edi,%edi
     581:	75 dd                	jne    560 <_out_rev+0x60>
     583:	8b 5d e0             	mov    -0x20(%ebp),%ebx
     586:	f6 45 18 02          	testb  $0x2,0x18(%ebp)
     58a:	74 32                	je     5be <_out_rev+0xbe>
     58c:	89 df                	mov    %ebx,%edi
     58e:	2b 7d dc             	sub    -0x24(%ebp),%edi
     591:	39 7d 14             	cmp    %edi,0x14(%ebp)
     594:	76 28                	jbe    5be <_out_rev+0xbe>
     596:	89 f0                	mov    %esi,%eax
     598:	89 de                	mov    %ebx,%esi
     59a:	89 fb                	mov    %edi,%ebx
     59c:	89 c7                	mov    %eax,%edi
     59e:	66 90                	xchg   %ax,%ax
     5a0:	89 f1                	mov    %esi,%ecx
     5a2:	ff 75 08             	push   0x8(%ebp)
     5a5:	8b 45 e4             	mov    -0x1c(%ebp),%eax
     5a8:	83 c6 01             	add    $0x1,%esi
     5ab:	51                   	push   %ecx
     5ac:	83 c3 01             	add    $0x1,%ebx
     5af:	57                   	push   %edi
     5b0:	6a 20                	push   $0x20
     5b2:	ff d0                	call   *%eax
     5b4:	83 c4 10             	add    $0x10,%esp
     5b7:	39 5d 14             	cmp    %ebx,0x14(%ebp)
     5ba:	77 e4                	ja     5a0 <_out_rev+0xa0>
     5bc:	89 f3                	mov    %esi,%ebx
     5be:	8d 65 f4             	lea    -0xc(%ebp),%esp
     5c1:	89 d8                	mov    %ebx,%eax
     5c3:	5b                   	pop    %ebx
     5c4:	5e                   	pop    %esi
     5c5:	5f                   	pop    %edi
     5c6:	5d                   	pop    %ebp
     5c7:	c3                   	ret    
     5c8:	89 cb                	mov    %ecx,%ebx
     5ca:	e9 79 ff ff ff       	jmp    548 <_out_rev+0x48>
     5cf:	90                   	nop

000005d0 <_ntoa_format>:
     5d0:	55                   	push   %ebp
     5d1:	89 e5                	mov    %esp,%ebp
     5d3:	57                   	push   %edi
     5d4:	89 c7                	mov    %eax,%edi
     5d6:	56                   	push   %esi
     5d7:	53                   	push   %ebx
     5d8:	83 ec 2c             	sub    $0x2c,%esp
     5db:	8b 75 14             	mov    0x14(%ebp),%esi
     5de:	8b 5d 18             	mov    0x18(%ebp),%ebx
     5e1:	89 55 e0             	mov    %edx,-0x20(%ebp)
     5e4:	8b 45 08             	mov    0x8(%ebp),%eax
     5e7:	8b 55 0c             	mov    0xc(%ebp),%edx
     5ea:	89 4d dc             	mov    %ecx,-0x24(%ebp)
     5ed:	89 75 cc             	mov    %esi,-0x34(%ebp)
     5f0:	8b 75 24             	mov    0x24(%ebp),%esi
     5f3:	89 5d d0             	mov    %ebx,-0x30(%ebp)
     5f6:	8b 5d 1c             	mov    0x1c(%ebp),%ebx
     5f9:	89 45 d8             	mov    %eax,-0x28(%ebp)
     5fc:	8b 4d 20             	mov    0x20(%ebp),%ecx
     5ff:	89 5d e4             	mov    %ebx,-0x1c(%ebp)
     602:	8b 45 10             	mov    0x10(%ebp),%eax
     605:	f7 c6 02 00 00 00    	test   $0x2,%esi
     60b:	0f 85 93 00 00 00    	jne    6a4 <_ntoa_format+0xd4>
     611:	89 f3                	mov    %esi,%ebx
     613:	83 e3 01             	and    $0x1,%ebx
     616:	83 f8 1f             	cmp    $0x1f,%eax
     619:	0f 96 45 d7          	setbe  -0x29(%ebp)
     61d:	3b 45 e4             	cmp    -0x1c(%ebp),%eax
     620:	0f 92 45 d6          	setb   -0x2a(%ebp)
     624:	89 5d c8             	mov    %ebx,-0x38(%ebp)
     627:	0f b6 5d d6          	movzbl -0x2a(%ebp),%ebx
     62b:	22 5d d7             	and    -0x29(%ebp),%bl
     62e:	88 5d d6             	mov    %bl,-0x2a(%ebp)
     631:	85 c9                	test   %ecx,%ecx
     633:	0f 85 27 01 00 00    	jne    760 <_ntoa_format+0x190>
     639:	80 7d d6 00          	cmpb   $0x0,-0x2a(%ebp)
     63d:	74 25                	je     664 <_ntoa_format+0x94>
     63f:	8b 5d e4             	mov    -0x1c(%ebp),%ebx
     642:	8d b4 26 00 00 00 00 	lea    0x0(%esi,%eiz,1),%esi
     649:	8d b4 26 00 00 00 00 	lea    0x0(%esi,%eiz,1),%esi
     650:	83 c0 01             	add    $0x1,%eax
     653:	c6 44 02 ff 30       	movb   $0x30,-0x1(%edx,%eax,1)
     658:	39 c3                	cmp    %eax,%ebx
     65a:	76 05                	jbe    661 <_ntoa_format+0x91>
     65c:	83 f8 1f             	cmp    $0x1f,%eax
     65f:	76 ef                	jbe    650 <_ntoa_format+0x80>
     661:	89 5d e4             	mov    %ebx,-0x1c(%ebp)
     664:	8b 5d c8             	mov    -0x38(%ebp),%ebx
     667:	85 db                	test   %ebx,%ebx
     669:	74 39                	je     6a4 <_ntoa_format+0xd4>
     66b:	83 f8 1f             	cmp    $0x1f,%eax
     66e:	0f 96 45 d7          	setbe  -0x29(%ebp)
     672:	39 c1                	cmp    %eax,%ecx
     674:	76 2e                	jbe    6a4 <_ntoa_format+0xd4>
     676:	80 7d d7 00          	cmpb   $0x0,-0x29(%ebp)
     67a:	74 28                	je     6a4 <_ntoa_format+0xd4>
     67c:	8b 5d e4             	mov    -0x1c(%ebp),%ebx
     67f:	eb 14                	jmp    695 <_ntoa_format+0xc5>
     681:	8d b4 26 00 00 00 00 	lea    0x0(%esi,%eiz,1),%esi
     688:	8d b4 26 00 00 00 00 	lea    0x0(%esi,%eiz,1),%esi
     68f:	90                   	nop
     690:	83 f8 1f             	cmp    $0x1f,%eax
     693:	77 0c                	ja     6a1 <_ntoa_format+0xd1>
     695:	83 c0 01             	add    $0x1,%eax
     698:	c6 44 02 ff 30       	movb   $0x30,-0x1(%edx,%eax,1)
     69d:	39 c8                	cmp    %ecx,%eax
     69f:	72 ef                	jb     690 <_ntoa_format+0xc0>
     6a1:	89 5d e4             	mov    %ebx,-0x1c(%ebp)
     6a4:	f7 c6 10 00 00 00    	test   $0x10,%esi
     6aa:	0f 84 8d 00 00 00    	je     73d <_ntoa_format+0x16d>
     6b0:	f7 c6 00 04 00 00    	test   $0x400,%esi
     6b6:	74 58                	je     710 <_ntoa_format+0x140>
     6b8:	83 7d d0 10          	cmpl   $0x10,-0x30(%ebp)
     6bc:	0f 84 2c 01 00 00    	je     7ee <_ntoa_format+0x21e>
     6c2:	83 7d d0 02          	cmpl   $0x2,-0x30(%ebp)
     6c6:	75 0e                	jne    6d6 <_ntoa_format+0x106>
     6c8:	83 f8 1f             	cmp    $0x1f,%eax
     6cb:	77 09                	ja     6d6 <_ntoa_format+0x106>
     6cd:	8d 1c 02             	lea    (%edx,%eax,1),%ebx
     6d0:	83 c0 01             	add    $0x1,%eax
     6d3:	c6 03 62             	movb   $0x62,(%ebx)
     6d6:	83 f8 20             	cmp    $0x20,%eax
     6d9:	75 59                	jne    734 <_ntoa_format+0x164>
     6db:	89 45 10             	mov    %eax,0x10(%ebp)
     6de:	8b 45 d8             	mov    -0x28(%ebp),%eax
     6e1:	89 75 18             	mov    %esi,0x18(%ebp)
     6e4:	89 4d 14             	mov    %ecx,0x14(%ebp)
     6e7:	8b 4d dc             	mov    -0x24(%ebp),%ecx
     6ea:	89 55 0c             	mov    %edx,0xc(%ebp)
     6ed:	8b 55 e0             	mov    -0x20(%ebp),%edx
     6f0:	89 45 08             	mov    %eax,0x8(%ebp)
     6f3:	83 c4 2c             	add    $0x2c,%esp
     6f6:	89 f8                	mov    %edi,%eax
     6f8:	5b                   	pop    %ebx
     6f9:	5e                   	pop    %esi
     6fa:	5f                   	pop    %edi
     6fb:	5d                   	pop    %ebp
     6fc:	e9 ff fd ff ff       	jmp    500 <_out_rev>
     701:	8d b4 26 00 00 00 00 	lea    0x0(%esi,%eiz,1),%esi
     708:	8d b4 26 00 00 00 00 	lea    0x0(%esi,%eiz,1),%esi
     70f:	90                   	nop
     710:	85 c0                	test   %eax,%eax
     712:	0f 85 b8 00 00 00    	jne    7d0 <_ntoa_format+0x200>
     718:	83 7d d0 10          	cmpl   $0x10,-0x30(%ebp)
     71c:	0f 84 07 01 00 00    	je     829 <_ntoa_format+0x259>
     722:	83 7d d0 02          	cmpl   $0x2,-0x30(%ebp)
     726:	0f 85 12 01 00 00    	jne    83e <_ntoa_format+0x26e>
     72c:	c6 02 62             	movb   $0x62,(%edx)
     72f:	b8 01 00 00 00       	mov    $0x1,%eax
     734:	8d 1c 02             	lea    (%edx,%eax,1),%ebx
     737:	83 c0 01             	add    $0x1,%eax
     73a:	c6 03 30             	movb   $0x30,(%ebx)
     73d:	83 f8 20             	cmp    $0x20,%eax
     740:	74 99                	je     6db <_ntoa_format+0x10b>
     742:	80 7d cc 00          	cmpb   $0x0,-0x34(%ebp)
     746:	74 48                	je     790 <_ntoa_format+0x1c0>
     748:	c6 04 02 2d          	movb   $0x2d,(%edx,%eax,1)
     74c:	83 c0 01             	add    $0x1,%eax
     74f:	eb 8a                	jmp    6db <_ntoa_format+0x10b>
     751:	8d b4 26 00 00 00 00 	lea    0x0(%esi,%eiz,1),%esi
     758:	8d b4 26 00 00 00 00 	lea    0x0(%esi,%eiz,1),%esi
     75f:	90                   	nop
     760:	8b 5d c8             	mov    -0x38(%ebp),%ebx
     763:	85 db                	test   %ebx,%ebx
     765:	74 59                	je     7c0 <_ntoa_format+0x1f0>
     767:	80 7d cc 00          	cmpb   $0x0,-0x34(%ebp)
     76b:	75 08                	jne    775 <_ntoa_format+0x1a5>
     76d:	f7 c6 0c 00 00 00    	test   $0xc,%esi
     773:	74 03                	je     778 <_ntoa_format+0x1a8>
     775:	83 e9 01             	sub    $0x1,%ecx
     778:	80 7d d6 00          	cmpb   $0x0,-0x2a(%ebp)
     77c:	0f 85 bd fe ff ff    	jne    63f <_ntoa_format+0x6f>
     782:	e9 eb fe ff ff       	jmp    672 <_ntoa_format+0xa2>
     787:	8d b4 26 00 00 00 00 	lea    0x0(%esi,%eiz,1),%esi
     78e:	66 90                	xchg   %ax,%ax
     790:	f7 c6 04 00 00 00    	test   $0x4,%esi
     796:	75 18                	jne    7b0 <_ntoa_format+0x1e0>
     798:	f7 c6 08 00 00 00    	test   $0x8,%esi
     79e:	0f 84 37 ff ff ff    	je     6db <_ntoa_format+0x10b>
     7a4:	c6 04 02 20          	movb   $0x20,(%edx,%eax,1)
     7a8:	83 c0 01             	add    $0x1,%eax
     7ab:	e9 2b ff ff ff       	jmp    6db <_ntoa_format+0x10b>
     7b0:	c6 04 02 2b          	movb   $0x2b,(%edx,%eax,1)
     7b4:	83 c0 01             	add    $0x1,%eax
     7b7:	e9 1f ff ff ff       	jmp    6db <_ntoa_format+0x10b>
     7bc:	8d 74 26 00          	lea    0x0(%esi,%eiz,1),%esi
     7c0:	80 7d d6 00          	cmpb   $0x0,-0x2a(%ebp)
     7c4:	0f 85 75 fe ff ff    	jne    63f <_ntoa_format+0x6f>
     7ca:	e9 d5 fe ff ff       	jmp    6a4 <_ntoa_format+0xd4>
     7cf:	90                   	nop
     7d0:	3b 45 e4             	cmp    -0x1c(%ebp),%eax
     7d3:	74 08                	je     7dd <_ntoa_format+0x20d>
     7d5:	39 c8                	cmp    %ecx,%eax
     7d7:	0f 85 db fe ff ff    	jne    6b8 <_ntoa_format+0xe8>
     7dd:	8d 58 ff             	lea    -0x1(%eax),%ebx
     7e0:	83 f8 01             	cmp    $0x1,%eax
     7e3:	74 3d                	je     822 <_ntoa_format+0x252>
     7e5:	83 e8 02             	sub    $0x2,%eax
     7e8:	83 7d d0 10          	cmpl   $0x10,-0x30(%ebp)
     7ec:	75 34                	jne    822 <_ntoa_format+0x252>
     7ee:	83 f8 1f             	cmp    $0x1f,%eax
     7f1:	89 f3                	mov    %esi,%ebx
     7f3:	0f 96 45 e4          	setbe  -0x1c(%ebp)
     7f7:	83 e3 20             	and    $0x20,%ebx
     7fa:	75 0e                	jne    80a <_ntoa_format+0x23a>
     7fc:	80 7d e4 00          	cmpb   $0x0,-0x1c(%ebp)
     800:	75 49                	jne    84b <_ntoa_format+0x27b>
     802:	85 db                	test   %ebx,%ebx
     804:	0f 84 cc fe ff ff    	je     6d6 <_ntoa_format+0x106>
     80a:	80 7d e4 00          	cmpb   $0x0,-0x1c(%ebp)
     80e:	0f 84 c2 fe ff ff    	je     6d6 <_ntoa_format+0x106>
     814:	8d 1c 02             	lea    (%edx,%eax,1),%ebx
     817:	83 c0 01             	add    $0x1,%eax
     81a:	c6 03 58             	movb   $0x58,(%ebx)
     81d:	e9 b4 fe ff ff       	jmp    6d6 <_ntoa_format+0x106>
     822:	89 d8                	mov    %ebx,%eax
     824:	e9 8f fe ff ff       	jmp    6b8 <_ntoa_format+0xe8>
     829:	f7 c6 20 00 00 00    	test   $0x20,%esi
     82f:	75 28                	jne    859 <_ntoa_format+0x289>
     831:	c6 02 78             	movb   $0x78,(%edx)
     834:	b8 01 00 00 00       	mov    $0x1,%eax
     839:	e9 f6 fe ff ff       	jmp    734 <_ntoa_format+0x164>
     83e:	c6 02 30             	movb   $0x30,(%edx)
     841:	b8 01 00 00 00       	mov    $0x1,%eax
     846:	e9 f7 fe ff ff       	jmp    742 <_ntoa_format+0x172>
     84b:	8d 1c 02             	lea    (%edx,%eax,1),%ebx
     84e:	83 c0 01             	add    $0x1,%eax
     851:	c6 03 78             	movb   $0x78,(%ebx)
     854:	e9 7d fe ff ff       	jmp    6d6 <_ntoa_format+0x106>
     859:	c6 02 58             	movb   $0x58,(%edx)
     85c:	b8 01 00 00 00       	mov    $0x1,%eax
     861:	e9 ce fe ff ff       	jmp    734 <_ntoa_format+0x164>
     866:	8d b4 26 00 00 00 00 	lea    0x0(%esi,%eiz,1),%esi
     86d:	8d 76 00             	lea    0x0(%esi),%esi

00000870 <_ntoa_long>:
     870:	55                   	push   %ebp
     871:	89 e5                	mov    %esp,%ebp
     873:	57                   	push   %edi
     874:	56                   	push   %esi
     875:	53                   	push   %ebx
     876:	83 ec 4c             	sub    $0x4c,%esp
     879:	89 45 c0             	mov    %eax,-0x40(%ebp)
     87c:	8b 5d 0c             	mov    0xc(%ebp),%ebx
     87f:	8b 45 10             	mov    0x10(%ebp),%eax
     882:	89 55 bc             	mov    %edx,-0x44(%ebp)
     885:	89 4d b8             	mov    %ecx,-0x48(%ebp)
     888:	89 45 b4             	mov    %eax,-0x4c(%ebp)
     88b:	85 db                	test   %ebx,%ebx
     88d:	75 51                	jne    8e0 <_ntoa_long+0x70>
     88f:	8b 45 20             	mov    0x20(%ebp),%eax
     892:	83 e0 ef             	and    $0xffffffef,%eax
     895:	f7 45 20 00 04 00 00 	testl  $0x400,0x20(%ebp)
     89c:	89 45 20             	mov    %eax,0x20(%ebp)
     89f:	74 3f                	je     8e0 <_ntoa_long+0x70>
     8a1:	31 c9                	xor    %ecx,%ecx
     8a3:	0f b6 45 b4          	movzbl -0x4c(%ebp),%eax
     8a7:	8b 55 bc             	mov    -0x44(%ebp),%edx
     8aa:	ff 75 20             	push   0x20(%ebp)
     8ad:	ff 75 1c             	push   0x1c(%ebp)
     8b0:	ff 75 18             	push   0x18(%ebp)
     8b3:	ff 75 14             	push   0x14(%ebp)
     8b6:	50                   	push   %eax
     8b7:	8d 45 c8             	lea    -0x38(%ebp),%eax
     8ba:	51                   	push   %ecx
     8bb:	8b 4d b8             	mov    -0x48(%ebp),%ecx
     8be:	50                   	push   %eax
     8bf:	8b 45 c0             	mov    -0x40(%ebp),%eax
     8c2:	ff 75 08             	push   0x8(%ebp)
     8c5:	e8 06 fd ff ff       	call   5d0 <_ntoa_format>
     8ca:	8d 65 f4             	lea    -0xc(%ebp),%esp
     8cd:	5b                   	pop    %ebx
     8ce:	5e                   	pop    %esi
     8cf:	5f                   	pop    %edi
     8d0:	5d                   	pop    %ebp
     8d1:	c3                   	ret    
     8d2:	8d b4 26 00 00 00 00 	lea    0x0(%esi,%eiz,1),%esi
     8d9:	8d b4 26 00 00 00 00 	lea    0x0(%esi,%eiz,1),%esi
     8e0:	8b 45 20             	mov    0x20(%ebp),%eax
     8e3:	83 e0 20             	and    $0x20,%eax
     8e6:	83 f8 01             	cmp    $0x1,%eax
     8e9:	19 c0                	sbb    %eax,%eax
     8eb:	31 c9                	xor    %ecx,%ecx
     8ed:	83 e0 20             	and    $0x20,%eax
     8f0:	83 c0 37             	add    $0x37,%eax
     8f3:	88 45 c7             	mov    %al,-0x39(%ebp)
     8f6:	eb 0a                	jmp    902 <_ntoa_long+0x92>
     8f8:	8d b4 26 00 00 00 00 	lea    0x0(%esi,%eiz,1),%esi
     8ff:	90                   	nop
     900:	89 c3                	mov    %eax,%ebx
     902:	31 d2                	xor    %edx,%edx
     904:	89 d8                	mov    %ebx,%eax
     906:	0f b6 75 c7          	movzbl -0x39(%ebp),%esi
     90a:	f7 75 14             	divl   0x14(%ebp)
     90d:	01 d6                	add    %edx,%esi
     90f:	8d 7a 30             	lea    0x30(%edx),%edi
     912:	83 fa 09             	cmp    $0x9,%edx
     915:	0f 47 fe             	cmova  %esi,%edi
     918:	83 c1 01             	add    $0x1,%ecx
     91b:	89 fa                	mov    %edi,%edx
     91d:	88 54 0d c7          	mov    %dl,-0x39(%ebp,%ecx,1)
     921:	3b 5d 14             	cmp    0x14(%ebp),%ebx
     924:	0f 82 79 ff ff ff    	jb     8a3 <_ntoa_long+0x33>
     92a:	83 f9 1f             	cmp    $0x1f,%ecx
     92d:	76 d1                	jbe    900 <_ntoa_long+0x90>
     92f:	e9 6f ff ff ff       	jmp    8a3 <_ntoa_long+0x33>
     934:	8d b4 26 00 00 00 00 	lea    0x0(%esi,%eiz,1),%esi
     93b:	8d 74 26 00          	lea    0x0(%esi,%eiz,1),%esi
     93f:	90                   	nop

00000940 <_ntoa_long_long>:
     940:	55                   	push   %ebp
     941:	89 e5                	mov    %esp,%ebp
     943:	57                   	push   %edi
     944:	56                   	push   %esi
     945:	53                   	push   %ebx
     946:	83 ec 5c             	sub    $0x5c,%esp
     949:	8b 7d 10             	mov    0x10(%ebp),%edi
     94c:	8b 75 0c             	mov    0xc(%ebp),%esi
     94f:	89 45 a8             	mov    %eax,-0x58(%ebp)
     952:	8b 45 14             	mov    0x14(%ebp),%eax
     955:	89 55 a4             	mov    %edx,-0x5c(%ebp)
     958:	8b 55 1c             	mov    0x1c(%ebp),%edx
     95b:	89 4d a0             	mov    %ecx,-0x60(%ebp)
     95e:	89 45 9c             	mov    %eax,-0x64(%ebp)
     961:	8b 45 18             	mov    0x18(%ebp),%eax
     964:	89 55 bc             	mov    %edx,-0x44(%ebp)
     967:	89 45 b8             	mov    %eax,-0x48(%ebp)
     96a:	89 f8                	mov    %edi,%eax
     96c:	09 f0                	or     %esi,%eax
     96e:	75 20                	jne    990 <_ntoa_long_long+0x50>
     970:	8b 45 28             	mov    0x28(%ebp),%eax
     973:	83 e0 ef             	and    $0xffffffef,%eax
     976:	f7 45 28 00 04 00 00 	testl  $0x400,0x28(%ebp)
     97d:	89 45 28             	mov    %eax,0x28(%ebp)
     980:	74 0e                	je     990 <_ntoa_long_long+0x50>
     982:	31 ff                	xor    %edi,%edi
     984:	eb 79                	jmp    9ff <_ntoa_long_long+0xbf>
     986:	8d b4 26 00 00 00 00 	lea    0x0(%esi,%eiz,1),%esi
     98d:	8d 76 00             	lea    0x0(%esi),%esi
     990:	8b 45 28             	mov    0x28(%ebp),%eax
     993:	83 e0 20             	and    $0x20,%eax
     996:	83 f8 01             	cmp    $0x1,%eax
     999:	19 c0                	sbb    %eax,%eax
     99b:	31 db                	xor    %ebx,%ebx
     99d:	83 e0 20             	and    $0x20,%eax
     9a0:	83 c0 37             	add    $0x37,%eax
     9a3:	88 45 af             	mov    %al,-0x51(%ebp)
     9a6:	eb 13                	jmp    9bb <_ntoa_long_long+0x7b>
     9a8:	8d b4 26 00 00 00 00 	lea    0x0(%esi,%eiz,1),%esi
     9af:	90                   	nop
     9b0:	83 fb 1f             	cmp    $0x1f,%ebx
     9b3:	77 48                	ja     9fd <_ntoa_long_long+0xbd>
     9b5:	8b 75 b0             	mov    -0x50(%ebp),%esi
     9b8:	8b 7d b4             	mov    -0x4c(%ebp),%edi
     9bb:	83 ec 0c             	sub    $0xc,%esp
     9be:	8d 45 c0             	lea    -0x40(%ebp),%eax
     9c1:	50                   	push   %eax
     9c2:	ff 75 bc             	push   -0x44(%ebp)
     9c5:	ff 75 b8             	push   -0x48(%ebp)
     9c8:	57                   	push   %edi
     9c9:	56                   	push   %esi
     9ca:	e8 fc ff ff ff       	call   9cb <_ntoa_long_long+0x8b>
			9cb: R_386_PC32	__udivmoddi4
     9cf:	83 c4 20             	add    $0x20,%esp
     9d2:	89 45 b0             	mov    %eax,-0x50(%ebp)
     9d5:	0f b6 45 af          	movzbl -0x51(%ebp),%eax
     9d9:	89 55 b4             	mov    %edx,-0x4c(%ebp)
     9dc:	8b 55 c0             	mov    -0x40(%ebp),%edx
     9df:	01 d0                	add    %edx,%eax
     9e1:	8d 4a 30             	lea    0x30(%edx),%ecx
     9e4:	80 fa 09             	cmp    $0x9,%dl
     9e7:	8b 55 bc             	mov    -0x44(%ebp),%edx
     9ea:	0f 4e c1             	cmovle %ecx,%eax
     9ed:	83 c3 01             	add    $0x1,%ebx
     9f0:	88 44 1d c7          	mov    %al,-0x39(%ebp,%ebx,1)
     9f4:	8b 45 b8             	mov    -0x48(%ebp),%eax
     9f7:	39 c6                	cmp    %eax,%esi
     9f9:	19 d7                	sbb    %edx,%edi
     9fb:	73 b3                	jae    9b0 <_ntoa_long_long+0x70>
     9fd:	89 df                	mov    %ebx,%edi
     9ff:	0f b6 45 9c          	movzbl -0x64(%ebp),%eax
     a03:	8b 4d a0             	mov    -0x60(%ebp),%ecx
     a06:	ff 75 28             	push   0x28(%ebp)
     a09:	8b 55 a4             	mov    -0x5c(%ebp),%edx
     a0c:	ff 75 24             	push   0x24(%ebp)
     a0f:	ff 75 20             	push   0x20(%ebp)
     a12:	ff 75 b8             	push   -0x48(%ebp)
     a15:	50                   	push   %eax
     a16:	8d 45 c8             	lea    -0x38(%ebp),%eax
     a19:	57                   	push   %edi
     a1a:	50                   	push   %eax
     a1b:	8b 45 a8             	mov    -0x58(%ebp),%eax
     a1e:	ff 75 08             	push   0x8(%ebp)
     a21:	e8 aa fb ff ff       	call   5d0 <_ntoa_format>
     a26:	8d 65 f4             	lea    -0xc(%ebp),%esp
     a29:	5b                   	pop    %ebx
     a2a:	5e                   	pop    %esi
     a2b:	5f                   	pop    %edi
     a2c:	5d                   	pop    %ebp
     a2d:	c3                   	ret    
     a2e:	66 90                	xchg   %ax,%ax

00000a30 <_etoa>:
     a30:	55                   	push   %ebp
     a31:	89 e5                	mov    %esp,%ebp
     a33:	57                   	push   %edi
     a34:	56                   	push   %esi
     a35:	53                   	push   %ebx
     a36:	83 ec 4c             	sub    $0x4c,%esp
     a39:	dd 45 0c             	fldl   0xc(%ebp)
     a3c:	8b 5d 1c             	mov    0x1c(%ebp),%ebx
     a3f:	89 45 cc             	mov    %eax,-0x34(%ebp)
     a42:	8b 45 08             	mov    0x8(%ebp),%eax
     a45:	89 55 d0             	mov    %edx,-0x30(%ebp)
     a48:	89 4d c8             	mov    %ecx,-0x38(%ebp)
     a4b:	8b 55 14             	mov    0x14(%ebp),%edx
     a4e:	89 45 e0             	mov    %eax,-0x20(%ebp)
     a51:	8b 45 18             	mov    0x18(%ebp),%eax
     a54:	db e8                	fucomi %st(0),%st
     a56:	89 45 d4             	mov    %eax,-0x2c(%ebp)
     a59:	0f 8a b1 02 00 00    	jp     d10 <_etoa+0x2e0>
     a5f:	dd 05 00 00 00 00    	fldl   0x0
			a61: R_386_32	.rodata.cst8
     a65:	d9 c9                	fxch   %st(1)
     a67:	db f1                	fcomi  %st(1),%st
     a69:	dd d9                	fstp   %st(1)
     a6b:	0f 87 9f 02 00 00    	ja     d10 <_etoa+0x2e0>
     a71:	dd 05 08 00 00 00    	fldl   0x8
			a73: R_386_32	.rodata.cst8
     a77:	df f1                	fcomip %st(1),%st
     a79:	0f 87 91 02 00 00    	ja     d10 <_etoa+0x2e0>
     a7f:	d9 7d e6             	fnstcw -0x1a(%ebp)
     a82:	d9 c0                	fld    %st(0)
     a84:	89 d8                	mov    %ebx,%eax
     a86:	d9 e0                	fchs   
     a88:	d9 ee                	fldz   
     a8a:	df f2                	fcomip %st(2),%st
     a8c:	da d1                	fcmovbe %st(1),%st
     a8e:	25 00 04 00 00       	and    $0x400,%eax
     a93:	89 45 ac             	mov    %eax,-0x54(%ebp)
     a96:	b8 06 00 00 00       	mov    $0x6,%eax
     a9b:	0f 44 d0             	cmove  %eax,%edx
     a9e:	dd 55 d8             	fstl   -0x28(%ebp)
     aa1:	8b 45 dc             	mov    -0x24(%ebp),%eax
     aa4:	8b 75 d8             	mov    -0x28(%ebp),%esi
     aa7:	89 c1                	mov    %eax,%ecx
     aa9:	25 ff ff 0f 00       	and    $0xfffff,%eax
     aae:	c1 e9 14             	shr    $0x14,%ecx
     ab1:	0d 00 00 f0 3f       	or     $0x3ff00000,%eax
     ab6:	81 e1 ff 07 00 00    	and    $0x7ff,%ecx
     abc:	89 45 c4             	mov    %eax,-0x3c(%ebp)
     abf:	0f b7 45 e6          	movzwl -0x1a(%ebp),%eax
     ac3:	81 e9 ff 03 00 00    	sub    $0x3ff,%ecx
     ac9:	89 4d c0             	mov    %ecx,-0x40(%ebp)
     acc:	db 45 c0             	fildl  -0x40(%ebp)
     acf:	80 cc 0c             	or     $0xc,%ah
     ad2:	dc 0d 10 00 00 00    	fmull  0x10
			ad4: R_386_32	.rodata.cst8
     ad8:	dc 05 18 00 00 00    	faddl  0x18
			ada: R_386_32	.rodata.cst8
     ade:	89 75 c0             	mov    %esi,-0x40(%ebp)
     ae1:	dd 45 c0             	fldl   -0x40(%ebp)
     ae4:	66 89 45 e4          	mov    %ax,-0x1c(%ebp)
     ae8:	d8 25 00 00 00 00    	fsubs  0x0
			aea: R_386_32	.rodata.cst4
     aee:	dc 0d 20 00 00 00    	fmull  0x20
			af0: R_386_32	.rodata.cst8
     af4:	de c1                	faddp  %st,%st(1)
     af6:	d9 6d e4             	fldcw  -0x1c(%ebp)
     af9:	db 5d c0             	fistpl -0x40(%ebp)
     afc:	d9 6d e6             	fldcw  -0x1a(%ebp)
     aff:	db 45 c0             	fildl  -0x40(%ebp)
     b02:	dd 05 28 00 00 00    	fldl   0x28
			b04: R_386_32	.rodata.cst8
     b08:	d8 c9                	fmul   %st(1),%st
     b0a:	d8 05 04 00 00 00    	fadds  0x4
			b0c: R_386_32	.rodata.cst4
     b10:	d9 6d e4             	fldcw  -0x1c(%ebp)
     b13:	db 5d b8             	fistpl -0x48(%ebp)
     b16:	d9 6d e6             	fldcw  -0x1a(%ebp)
     b19:	dc 0d 30 00 00 00    	fmull  0x30
			b1b: R_386_32	.rodata.cst8
     b1f:	db 45 b8             	fildl  -0x48(%ebp)
     b22:	dc 0d 38 00 00 00    	fmull  0x38
			b24: R_386_32	.rodata.cst8
     b28:	de e9                	fsubrp %st,%st(1)
     b2a:	d9 c0                	fld    %st(0)
     b2c:	d8 c9                	fmul   %st(1),%st
     b2e:	d9 c1                	fld    %st(1)
     b30:	d8 c2                	fadd   %st(2),%st
     b32:	d9 c1                	fld    %st(1)
     b34:	d8 35 08 00 00 00    	fdivs  0x8
			b36: R_386_32	.rodata.cst4
     b3a:	d9 05 0c 00 00 00    	flds   0xc
			b3c: R_386_32	.rodata.cst4
     b40:	dc c1                	fadd   %st,%st(1)
     b42:	d9 c9                	fxch   %st(1)
     b44:	d8 fb                	fdivr  %st(3),%st
     b46:	d8 05 10 00 00 00    	fadds  0x10
			b48: R_386_32	.rodata.cst4
     b4c:	de fb                	fdivrp %st,%st(3)
     b4e:	d9 cb                	fxch   %st(3)
     b50:	d8 2d 14 00 00 00    	fsubrs 0x14
			b52: R_386_32	.rodata.cst4
     b56:	de c2                	faddp  %st,%st(2)
     b58:	de f1                	fdivp  %st,%st(1)
     b5a:	d8 05 18 00 00 00    	fadds  0x18
			b5c: R_386_32	.rodata.cst4
     b60:	8b 75 b8             	mov    -0x48(%ebp),%esi
     b63:	81 c6 ff 03 00 00    	add    $0x3ff,%esi
     b69:	89 f7                	mov    %esi,%edi
     b6b:	be 00 00 00 00       	mov    $0x0,%esi
     b70:	c1 e7 14             	shl    $0x14,%edi
     b73:	89 75 b8             	mov    %esi,-0x48(%ebp)
     b76:	89 7d bc             	mov    %edi,-0x44(%ebp)
     b79:	dc 4d b8             	fmull  -0x48(%ebp)
     b7c:	dd 55 b8             	fstl   -0x48(%ebp)
     b7f:	df f2                	fcomip %st(2),%st
     b81:	dd d9                	fstp   %st(1)
     b83:	0f 87 b7 01 00 00    	ja     d40 <_etoa+0x310>
     b89:	dd d8                	fstp   %st(0)
     b8b:	8b 75 b8             	mov    -0x48(%ebp),%esi
     b8e:	8b 7d bc             	mov    -0x44(%ebp),%edi
     b91:	89 75 b0             	mov    %esi,-0x50(%ebp)
     b94:	89 7d b4             	mov    %edi,-0x4c(%ebp)
     b97:	8b 7d c0             	mov    -0x40(%ebp),%edi
     b9a:	8d 47 63             	lea    0x63(%edi),%eax
     b9d:	3d c6 00 00 00       	cmp    $0xc6,%eax
     ba2:	0f 97 c0             	seta   %al
     ba5:	0f b6 c0             	movzbl %al,%eax
     ba8:	89 c6                	mov    %eax,%esi
     baa:	83 c6 04             	add    $0x4,%esi
     bad:	f6 c7 08             	test   $0x8,%bh
     bb0:	74 40                	je     bf2 <_etoa+0x1c2>
     bb2:	dd 05 40 00 00 00    	fldl   0x40
			bb4: R_386_32	.rodata.cst8
     bb8:	dd 45 d8             	fldl   -0x28(%ebp)
     bbb:	89 d0                	mov    %edx,%eax
     bbd:	db f1                	fcomi  %st(1),%st
     bbf:	dd d9                	fstp   %st(1)
     bc1:	72 1d                	jb     be0 <_etoa+0x1b0>
     bc3:	d9 05 1c 00 00 00    	flds   0x1c
			bc5: R_386_32	.rodata.cst4
     bc9:	df f1                	fcomip %st(1),%st
     bcb:	dd d8                	fstp   %st(0)
     bcd:	0f 87 ad 01 00 00    	ja     d80 <_etoa+0x350>
     bd3:	eb 0d                	jmp    be2 <_etoa+0x1b2>
     bd5:	8d b4 26 00 00 00 00 	lea    0x0(%esi,%eiz,1),%esi
     bdc:	8d 74 26 00          	lea    0x0(%esi,%eiz,1),%esi
     be0:	dd d8                	fstp   %st(0)
     be2:	83 7d ac 01          	cmpl   $0x1,-0x54(%ebp)
     be6:	89 d1                	mov    %edx,%ecx
     be8:	83 d1 ff             	adc    $0xffffffff,%ecx
     beb:	85 d2                	test   %edx,%edx
     bed:	0f 45 c1             	cmovne %ecx,%eax
     bf0:	89 c2                	mov    %eax,%edx
     bf2:	8b 4d d4             	mov    -0x2c(%ebp),%ecx
     bf5:	89 df                	mov    %ebx,%edi
     bf7:	c6 45 b8 01          	movb   $0x1,-0x48(%ebp)
     bfb:	83 e7 02             	and    $0x2,%edi
     bfe:	89 c8                	mov    %ecx,%eax
     c00:	29 f0                	sub    %esi,%eax
     c02:	39 ce                	cmp    %ecx,%esi
     c04:	b9 00 00 00 00       	mov    $0x0,%ecx
     c09:	0f 43 c1             	cmovae %ecx,%eax
     c0c:	83 ff 01             	cmp    $0x1,%edi
     c0f:	19 c9                	sbb    %ecx,%ecx
     c11:	83 c1 01             	add    $0x1,%ecx
     c14:	85 ff                	test   %edi,%edi
     c16:	bf 00 00 00 00       	mov    $0x0,%edi
     c1b:	88 4d ac             	mov    %cl,-0x54(%ebp)
     c1e:	8b 4d c0             	mov    -0x40(%ebp),%ecx
     c21:	0f 45 c7             	cmovne %edi,%eax
     c24:	85 c9                	test   %ecx,%ecx
     c26:	74 09                	je     c31 <_etoa+0x201>
     c28:	dd 45 d8             	fldl   -0x28(%ebp)
     c2b:	dc 75 b0             	fdivl  -0x50(%ebp)
     c2e:	dd 5d d8             	fstpl  -0x28(%ebp)
     c31:	89 d9                	mov    %ebx,%ecx
     c33:	d9 ee                	fldz   
     c35:	80 e5 f7             	and    $0xf7,%ch
     c38:	df f1                	fcomip %st(1),%st
     c3a:	dd d8                	fstp   %st(0)
     c3c:	0f 87 2e 01 00 00    	ja     d70 <_etoa+0x340>
     c42:	83 ec 08             	sub    $0x8,%esp
     c45:	8b 7d d0             	mov    -0x30(%ebp),%edi
     c48:	51                   	push   %ecx
     c49:	8b 4d c8             	mov    -0x38(%ebp),%ecx
     c4c:	50                   	push   %eax
     c4d:	8b 45 cc             	mov    -0x34(%ebp),%eax
     c50:	52                   	push   %edx
     c51:	89 fa                	mov    %edi,%edx
     c53:	ff 75 dc             	push   -0x24(%ebp)
     c56:	ff 75 d8             	push   -0x28(%ebp)
     c59:	ff 75 e0             	push   -0x20(%ebp)
     c5c:	e8 8f 01 00 00       	call   df0 <_ftoa>
     c61:	83 c4 20             	add    $0x20,%esp
     c64:	80 7d b8 00          	cmpb   $0x0,-0x48(%ebp)
     c68:	0f 84 8f 00 00 00    	je     cfd <_etoa+0x2cd>
     c6e:	83 e3 20             	and    $0x20,%ebx
     c71:	8d 50 01             	lea    0x1(%eax),%edx
     c74:	ff 75 e0             	push   -0x20(%ebp)
     c77:	83 fb 01             	cmp    $0x1,%ebx
     c7a:	50                   	push   %eax
     c7b:	19 c9                	sbb    %ecx,%ecx
     c7d:	57                   	push   %edi
     c7e:	8b 45 cc             	mov    -0x34(%ebp),%eax
     c81:	83 ee 01             	sub    $0x1,%esi
     c84:	83 e1 20             	and    $0x20,%ecx
     c87:	89 55 d8             	mov    %edx,-0x28(%ebp)
     c8a:	83 c1 45             	add    $0x45,%ecx
     c8d:	51                   	push   %ecx
     c8e:	ff d0                	call   *%eax
     c90:	8b 5d c0             	mov    -0x40(%ebp),%ebx
     c93:	89 fa                	mov    %edi,%edx
     c95:	8b 7d cc             	mov    -0x34(%ebp),%edi
     c98:	8b 4d d8             	mov    -0x28(%ebp),%ecx
     c9b:	89 d8                	mov    %ebx,%eax
     c9d:	83 c4 0c             	add    $0xc,%esp
     ca0:	c1 e8 1f             	shr    $0x1f,%eax
     ca3:	6a 05                	push   $0x5
     ca5:	56                   	push   %esi
     ca6:	6a 00                	push   $0x0
     ca8:	6a 0a                	push   $0xa
     caa:	50                   	push   %eax
     cab:	89 d8                	mov    %ebx,%eax
     cad:	f7 d8                	neg    %eax
     caf:	0f 48 c3             	cmovs  %ebx,%eax
     cb2:	50                   	push   %eax
     cb3:	89 f8                	mov    %edi,%eax
     cb5:	ff 75 e0             	push   -0x20(%ebp)
     cb8:	e8 b3 fb ff ff       	call   870 <_ntoa_long>
     cbd:	83 c4 20             	add    $0x20,%esp
     cc0:	80 7d ac 00          	cmpb   $0x0,-0x54(%ebp)
     cc4:	74 37                	je     cfd <_etoa+0x2cd>
     cc6:	89 c3                	mov    %eax,%ebx
     cc8:	2b 5d c8             	sub    -0x38(%ebp),%ebx
     ccb:	39 5d d4             	cmp    %ebx,-0x2c(%ebp)
     cce:	76 2d                	jbe    cfd <_etoa+0x2cd>
     cd0:	89 c6                	mov    %eax,%esi
     cd2:	8d b4 26 00 00 00 00 	lea    0x0(%esi,%eiz,1),%esi
     cd9:	8d b4 26 00 00 00 00 	lea    0x0(%esi,%eiz,1),%esi
     ce0:	89 f1                	mov    %esi,%ecx
     ce2:	ff 75 e0             	push   -0x20(%ebp)
     ce5:	83 c6 01             	add    $0x1,%esi
     ce8:	83 c3 01             	add    $0x1,%ebx
     ceb:	51                   	push   %ecx
     cec:	ff 75 d0             	push   -0x30(%ebp)
     cef:	6a 20                	push   $0x20
     cf1:	ff d7                	call   *%edi
     cf3:	83 c4 10             	add    $0x10,%esp
     cf6:	39 5d d4             	cmp    %ebx,-0x2c(%ebp)
     cf9:	77 e5                	ja     ce0 <_etoa+0x2b0>
     cfb:	89 f0                	mov    %esi,%eax
     cfd:	8d 65 f4             	lea    -0xc(%ebp),%esp
     d00:	5b                   	pop    %ebx
     d01:	5e                   	pop    %esi
     d02:	5f                   	pop    %edi
     d03:	5d                   	pop    %ebp
     d04:	c3                   	ret    
     d05:	8d b4 26 00 00 00 00 	lea    0x0(%esi,%eiz,1),%esi
     d0c:	8d 74 26 00          	lea    0x0(%esi,%eiz,1),%esi
     d10:	8b 45 d4             	mov    -0x2c(%ebp),%eax
     d13:	89 5d 1c             	mov    %ebx,0x1c(%ebp)
     d16:	89 55 14             	mov    %edx,0x14(%ebp)
     d19:	89 45 18             	mov    %eax,0x18(%ebp)
     d1c:	dd 5d 0c             	fstpl  0xc(%ebp)
     d1f:	8b 45 e0             	mov    -0x20(%ebp),%eax
     d22:	8b 4d c8             	mov    -0x38(%ebp),%ecx
     d25:	8b 55 d0             	mov    -0x30(%ebp),%edx
     d28:	89 45 08             	mov    %eax,0x8(%ebp)
     d2b:	8b 45 cc             	mov    -0x34(%ebp),%eax
     d2e:	8d 65 f4             	lea    -0xc(%ebp),%esp
     d31:	5b                   	pop    %ebx
     d32:	5e                   	pop    %esi
     d33:	5f                   	pop    %edi
     d34:	5d                   	pop    %ebp
     d35:	e9 b6 00 00 00       	jmp    df0 <_ftoa>
     d3a:	8d b6 00 00 00 00    	lea    0x0(%esi),%esi
     d40:	dc 7d b8             	fdivrl -0x48(%ebp)
     d43:	83 6d c0 01          	subl   $0x1,-0x40(%ebp)
     d47:	dd 5d b0             	fstpl  -0x50(%ebp)
     d4a:	e9 48 fe ff ff       	jmp    b97 <_etoa+0x167>
     d4f:	c6 45 ac 00          	movb   $0x0,-0x54(%ebp)
     d53:	89 f3                	mov    %esi,%ebx
     d55:	31 c0                	xor    %eax,%eax
     d57:	31 f6                	xor    %esi,%esi
     d59:	c6 45 b8 00          	movb   $0x0,-0x48(%ebp)
     d5d:	c7 45 c0 00 00 00 00 	movl   $0x0,-0x40(%ebp)
     d64:	8d b4 26 00 00 00 00 	lea    0x0(%esi,%eiz,1),%esi
     d6b:	8d 74 26 00          	lea    0x0(%esi,%eiz,1),%esi
     d6f:	90                   	nop
     d70:	dd 45 d8             	fldl   -0x28(%ebp)
     d73:	d9 e0                	fchs   
     d75:	dd 5d d8             	fstpl  -0x28(%ebp)
     d78:	e9 c5 fe ff ff       	jmp    c42 <_etoa+0x212>
     d7d:	8d 76 00             	lea    0x0(%esi),%esi
     d80:	29 f8                	sub    %edi,%eax
     d82:	31 c9                	xor    %ecx,%ecx
     d84:	89 de                	mov    %ebx,%esi
     d86:	83 e8 01             	sub    $0x1,%eax
     d89:	39 fa                	cmp    %edi,%edx
     d8b:	8b 7d d4             	mov    -0x2c(%ebp),%edi
     d8e:	89 ca                	mov    %ecx,%edx
     d90:	0f 4f d0             	cmovg  %eax,%edx
     d93:	81 ce 00 04 00 00    	or     $0x400,%esi
     d99:	85 ff                	test   %edi,%edi
     d9b:	75 33                	jne    dd0 <_etoa+0x3a0>
     d9d:	80 e7 f7             	and    $0xf7,%bh
     da0:	d9 ee                	fldz   
     da2:	89 d9                	mov    %ebx,%ecx
     da4:	80 cd 04             	or     $0x4,%ch
     da7:	df f1                	fcomip %st(1),%st
     da9:	dd d8                	fstp   %st(0)
     dab:	77 a2                	ja     d4f <_etoa+0x31f>
     dad:	dd 45 d8             	fldl   -0x28(%ebp)
     db0:	89 4d 1c             	mov    %ecx,0x1c(%ebp)
     db3:	c7 45 18 00 00 00 00 	movl   $0x0,0x18(%ebp)
     dba:	89 55 14             	mov    %edx,0x14(%ebp)
     dbd:	dd 5d 0c             	fstpl  0xc(%ebp)
     dc0:	e9 5a ff ff ff       	jmp    d1f <_etoa+0x2ef>
     dc5:	8d b4 26 00 00 00 00 	lea    0x0(%esi,%eiz,1),%esi
     dcc:	8d 74 26 00          	lea    0x0(%esi,%eiz,1),%esi
     dd0:	89 f3                	mov    %esi,%ebx
     dd2:	c7 45 c0 00 00 00 00 	movl   $0x0,-0x40(%ebp)
     dd9:	8b 45 d4             	mov    -0x2c(%ebp),%eax
     ddc:	31 f6                	xor    %esi,%esi
     dde:	c6 45 b8 00          	movb   $0x0,-0x48(%ebp)
     de2:	c6 45 ac 00          	movb   $0x0,-0x54(%ebp)
     de6:	e9 46 fe ff ff       	jmp    c31 <_etoa+0x201>
     deb:	8d 74 26 00          	lea    0x0(%esi,%eiz,1),%esi
     def:	90                   	nop

00000df0 <_ftoa>:
     df0:	55                   	push   %ebp
     df1:	89 e5                	mov    %esp,%ebp
     df3:	57                   	push   %edi
     df4:	56                   	push   %esi
     df5:	53                   	push   %ebx
     df6:	83 ec 5c             	sub    $0x5c,%esp
     df9:	dd 45 0c             	fldl   0xc(%ebp)
     dfc:	8b 7d 14             	mov    0x14(%ebp),%edi
     dff:	89 45 b8             	mov    %eax,-0x48(%ebp)
     e02:	8b 45 08             	mov    0x8(%ebp),%eax
     e05:	89 55 b4             	mov    %edx,-0x4c(%ebp)
     e08:	89 4d b0             	mov    %ecx,-0x50(%ebp)
     e0b:	89 45 ac             	mov    %eax,-0x54(%ebp)
     e0e:	8b 45 18             	mov    0x18(%ebp),%eax
     e11:	db e8                	fucomi %st(0),%st
     e13:	89 45 bc             	mov    %eax,-0x44(%ebp)
     e16:	8b 45 1c             	mov    0x1c(%ebp),%eax
     e19:	89 45 c0             	mov    %eax,-0x40(%ebp)
     e1c:	0f 8a de 01 00 00    	jp     1000 <_ftoa+0x210>
     e22:	dd 05 08 00 00 00    	fldl   0x8
			e24: R_386_32	.rodata.cst8
     e28:	df f1                	fcomip %st(1),%st
     e2a:	0f 87 40 02 00 00    	ja     1070 <_ftoa+0x280>
     e30:	dd 05 00 00 00 00    	fldl   0x0
			e32: R_386_32	.rodata.cst8
     e36:	d9 c9                	fxch   %st(1)
     e38:	db f1                	fcomi  %st(1),%st
     e3a:	dd d9                	fstp   %st(1)
     e3c:	0f 87 6e 01 00 00    	ja     fb0 <_ftoa+0x1c0>
     e42:	d9 05 20 00 00 00    	flds   0x20
			e44: R_386_32	.rodata.cst4
     e48:	d9 c9                	fxch   %st(1)
     e4a:	db f1                	fcomi  %st(1),%st
     e4c:	dd d9                	fstp   %st(1)
     e4e:	0f 87 ec 01 00 00    	ja     1040 <_ftoa+0x250>
     e54:	d9 05 24 00 00 00    	flds   0x24
			e56: R_386_32	.rodata.cst4
     e5a:	df f1                	fcomip %st(1),%st
     e5c:	0f 87 de 01 00 00    	ja     1040 <_ftoa+0x250>
     e62:	d9 ee                	fldz   
     e64:	db f1                	fcomi  %st(1),%st
     e66:	0f 87 c4 01 00 00    	ja     1030 <_ftoa+0x240>
     e6c:	dd d8                	fstp   %st(0)
     e6e:	c6 45 ab 00          	movb   $0x0,-0x55(%ebp)
     e72:	8b 4d c0             	mov    -0x40(%ebp),%ecx
     e75:	81 e1 00 04 00 00    	and    $0x400,%ecx
     e7b:	0f 84 ff 02 00 00    	je     1180 <_ftoa+0x390>
     e81:	31 c9                	xor    %ecx,%ecx
     e83:	8d 45 c7             	lea    -0x39(%ebp),%eax
     e86:	83 ff 09             	cmp    $0x9,%edi
     e89:	0f 86 14 04 00 00    	jbe    12a3 <_ftoa+0x4b3>
     e8f:	90                   	nop
     e90:	83 c1 01             	add    $0x1,%ecx
     e93:	83 ef 01             	sub    $0x1,%edi
     e96:	c6 04 08 30          	movb   $0x30,(%eax,%ecx,1)
     e9a:	83 f9 1f             	cmp    $0x1f,%ecx
     e9d:	77 05                	ja     ea4 <_ftoa+0xb4>
     e9f:	83 ff 09             	cmp    $0x9,%edi
     ea2:	77 ec                	ja     e90 <_ftoa+0xa0>
     ea4:	d9 05 20 00 00 00    	flds   0x20
			ea6: R_386_32	.rodata.cst4
     eaa:	d9 c9                	fxch   %st(1)
     eac:	d9 7d c6             	fnstcw -0x3a(%ebp)
     eaf:	0f b7 45 c6          	movzwl -0x3a(%ebp),%eax
     eb3:	80 cc 0c             	or     $0xc,%ah
     eb6:	66 89 45 c4          	mov    %ax,-0x3c(%ebp)
     eba:	d9 6d c4             	fldcw  -0x3c(%ebp)
     ebd:	db 55 a0             	fistl  -0x60(%ebp)
     ec0:	d9 6d c6             	fldcw  -0x3a(%ebp)
     ec3:	db 45 a0             	fildl  -0x60(%ebp)
     ec6:	8b 75 a0             	mov    -0x60(%ebp),%esi
     ec9:	d8 e9                	fsubr  %st(1),%st
     ecb:	d8 ca                	fmul   %st(2),%st
     ecd:	d9 c0                	fld    %st(0)
     ecf:	d9 6d c4             	fldcw  -0x3c(%ebp)
     ed2:	df 7d a0             	fistpll -0x60(%ebp)
     ed5:	d9 6d c6             	fldcw  -0x3a(%ebp)
     ed8:	c7 45 a4 00 00 00 00 	movl   $0x0,-0x5c(%ebp)
     edf:	df 6d a0             	fildll -0x60(%ebp)
     ee2:	8b 5d a0             	mov    -0x60(%ebp),%ebx
     ee5:	de e9                	fsubrp %st,%st(1)
     ee7:	d9 05 04 00 00 00    	flds   0x4
			ee9: R_386_32	.rodata.cst4
     eed:	d9 c9                	fxch   %st(1)
     eef:	db f1                	fcomi  %st(1),%st
     ef1:	0f 86 59 02 00 00    	jbe    1150 <_ftoa+0x360>
     ef7:	dd d8                	fstp   %st(0)
     ef9:	dd d8                	fstp   %st(0)
     efb:	83 c3 01             	add    $0x1,%ebx
     efe:	c7 45 a4 00 00 00 00 	movl   $0x0,-0x5c(%ebp)
     f05:	89 5d a0             	mov    %ebx,-0x60(%ebp)
     f08:	df 6d a0             	fildll -0x60(%ebp)
     f0b:	df f2                	fcomip %st(2),%st
     f0d:	dd d9                	fstp   %st(1)
     f0f:	72 05                	jb     f16 <_ftoa+0x126>
     f11:	83 c6 01             	add    $0x1,%esi
     f14:	31 db                	xor    %ebx,%ebx
     f16:	85 ff                	test   %edi,%edi
     f18:	0f 84 82 01 00 00    	je     10a0 <_ftoa+0x2b0>
     f1e:	dd d8                	fstp   %st(0)
     f20:	89 75 9c             	mov    %esi,-0x64(%ebp)
     f23:	eb 3c                	jmp    f61 <_ftoa+0x171>
     f25:	8d b4 26 00 00 00 00 	lea    0x0(%esi,%eiz,1),%esi
     f2c:	8d 74 26 00          	lea    0x0(%esi,%eiz,1),%esi
     f30:	8d 47 ff             	lea    -0x1(%edi),%eax
     f33:	83 c1 01             	add    $0x1,%ecx
     f36:	89 45 a0             	mov    %eax,-0x60(%ebp)
     f39:	b8 cd cc cc cc       	mov    $0xcccccccd,%eax
     f3e:	f7 e3                	mul    %ebx
     f40:	89 d8                	mov    %ebx,%eax
     f42:	c1 ea 03             	shr    $0x3,%edx
     f45:	8d 34 92             	lea    (%edx,%edx,4),%esi
     f48:	01 f6                	add    %esi,%esi
     f4a:	29 f0                	sub    %esi,%eax
     f4c:	83 c0 30             	add    $0x30,%eax
     f4f:	88 44 0d c7          	mov    %al,-0x39(%ebp,%ecx,1)
     f53:	83 fb 09             	cmp    $0x9,%ebx
     f56:	0f 86 64 02 00 00    	jbe    11c0 <_ftoa+0x3d0>
     f5c:	8b 7d a0             	mov    -0x60(%ebp),%edi
     f5f:	89 d3                	mov    %edx,%ebx
     f61:	83 f9 20             	cmp    $0x20,%ecx
     f64:	75 ca                	jne    f30 <_ftoa+0x140>
     f66:	8b 45 c0             	mov    -0x40(%ebp),%eax
     f69:	83 e0 03             	and    $0x3,%eax
     f6c:	83 f8 01             	cmp    $0x1,%eax
     f6f:	0f 84 bb 02 00 00    	je     1230 <_ftoa+0x440>
     f75:	b8 20 00 00 00       	mov    $0x20,%eax
     f7a:	83 ec 0c             	sub    $0xc,%esp
     f7d:	8b 4d b0             	mov    -0x50(%ebp),%ecx
     f80:	8b 55 b4             	mov    -0x4c(%ebp),%edx
     f83:	ff 75 c0             	push   -0x40(%ebp)
     f86:	ff 75 bc             	push   -0x44(%ebp)
     f89:	50                   	push   %eax
     f8a:	8d 45 c8             	lea    -0x38(%ebp),%eax
     f8d:	50                   	push   %eax
     f8e:	8b 45 b8             	mov    -0x48(%ebp),%eax
     f91:	ff 75 ac             	push   -0x54(%ebp)
     f94:	e8 67 f5 ff ff       	call   500 <_out_rev>
     f99:	83 c4 20             	add    $0x20,%esp
     f9c:	8d 65 f4             	lea    -0xc(%ebp),%esp
     f9f:	5b                   	pop    %ebx
     fa0:	5e                   	pop    %esi
     fa1:	5f                   	pop    %edi
     fa2:	5d                   	pop    %ebp
     fa3:	c3                   	ret    
     fa4:	8d b4 26 00 00 00 00 	lea    0x0(%esi,%eiz,1),%esi
     fab:	8d 74 26 00          	lea    0x0(%esi,%eiz,1),%esi
     faf:	90                   	nop
     fb0:	dd d8                	fstp   %st(0)
     fb2:	8b 5d c0             	mov    -0x40(%ebp),%ebx
     fb5:	b9 1e 00 00 00       	mov    $0x1e,%ecx
			fb6: R_386_32	.rodata.str1.1
     fba:	89 d8                	mov    %ebx,%eax
     fbc:	89 5d 18             	mov    %ebx,0x18(%ebp)
     fbf:	8b 5d bc             	mov    -0x44(%ebp),%ebx
     fc2:	83 e0 04             	and    $0x4,%eax
     fc5:	83 f8 01             	cmp    $0x1,%eax
     fc8:	89 5d 14             	mov    %ebx,0x14(%ebp)
     fcb:	19 d2                	sbb    %edx,%edx
     fcd:	83 c2 04             	add    $0x4,%edx
     fd0:	85 c0                	test   %eax,%eax
     fd2:	b8 19 00 00 00       	mov    $0x19,%eax
			fd3: R_386_32	.rodata.str1.1
     fd7:	0f 44 c1             	cmove  %ecx,%eax
     fda:	89 55 10             	mov    %edx,0x10(%ebp)
     fdd:	89 45 0c             	mov    %eax,0xc(%ebp)
     fe0:	8b 45 ac             	mov    -0x54(%ebp),%eax
     fe3:	8b 4d b0             	mov    -0x50(%ebp),%ecx
     fe6:	8b 55 b4             	mov    -0x4c(%ebp),%edx
     fe9:	89 45 08             	mov    %eax,0x8(%ebp)
     fec:	8b 45 b8             	mov    -0x48(%ebp),%eax
     fef:	8d 65 f4             	lea    -0xc(%ebp),%esp
     ff2:	5b                   	pop    %ebx
     ff3:	5e                   	pop    %esi
     ff4:	5f                   	pop    %edi
     ff5:	5d                   	pop    %ebp
     ff6:	e9 05 f5 ff ff       	jmp    500 <_out_rev>
     ffb:	8d 74 26 00          	lea    0x0(%esi,%eiz,1),%esi
     fff:	90                   	nop
    1000:	dd d8                	fstp   %st(0)
    1002:	89 45 18             	mov    %eax,0x18(%ebp)
    1005:	8b 45 bc             	mov    -0x44(%ebp),%eax
    1008:	c7 45 10 03 00 00 00 	movl   $0x3,0x10(%ebp)
    100f:	89 45 14             	mov    %eax,0x14(%ebp)
    1012:	8b 45 b8             	mov    -0x48(%ebp),%eax
    1015:	c7 45 0c 22 00 00 00 	movl   $0x22,0xc(%ebp)
			1018: R_386_32	.rodata.str1.1
    101c:	8d 65 f4             	lea    -0xc(%ebp),%esp
    101f:	5b                   	pop    %ebx
    1020:	5e                   	pop    %esi
    1021:	5f                   	pop    %edi
    1022:	5d                   	pop    %ebp
    1023:	e9 d8 f4 ff ff       	jmp    500 <_out_rev>
    1028:	8d b4 26 00 00 00 00 	lea    0x0(%esi,%eiz,1),%esi
    102f:	90                   	nop
    1030:	de e1                	fsubp  %st,%st(1)
    1032:	c6 45 ab 01          	movb   $0x1,-0x55(%ebp)
    1036:	e9 37 fe ff ff       	jmp    e72 <_ftoa+0x82>
    103b:	8d 74 26 00          	lea    0x0(%esi,%eiz,1),%esi
    103f:	90                   	nop
    1040:	8b 45 c0             	mov    -0x40(%ebp),%eax
    1043:	8b 4d b0             	mov    -0x50(%ebp),%ecx
    1046:	89 7d 14             	mov    %edi,0x14(%ebp)
    1049:	8b 55 b4             	mov    -0x4c(%ebp),%edx
    104c:	dd 5d 0c             	fstpl  0xc(%ebp)
    104f:	89 45 1c             	mov    %eax,0x1c(%ebp)
    1052:	8b 45 bc             	mov    -0x44(%ebp),%eax
    1055:	89 45 18             	mov    %eax,0x18(%ebp)
    1058:	8b 45 ac             	mov    -0x54(%ebp),%eax
    105b:	89 45 08             	mov    %eax,0x8(%ebp)
    105e:	8b 45 b8             	mov    -0x48(%ebp),%eax
    1061:	8d 65 f4             	lea    -0xc(%ebp),%esp
    1064:	5b                   	pop    %ebx
    1065:	5e                   	pop    %esi
    1066:	5f                   	pop    %edi
    1067:	5d                   	pop    %ebp
    1068:	e9 c3 f9 ff ff       	jmp    a30 <_etoa>
    106d:	8d 76 00             	lea    0x0(%esi),%esi
    1070:	dd d8                	fstp   %st(0)
    1072:	8b 45 c0             	mov    -0x40(%ebp),%eax
    1075:	c7 45 10 04 00 00 00 	movl   $0x4,0x10(%ebp)
    107c:	c7 45 0c 26 00 00 00 	movl   $0x26,0xc(%ebp)
			107f: R_386_32	.rodata.str1.1
    1083:	89 45 18             	mov    %eax,0x18(%ebp)
    1086:	8b 45 bc             	mov    -0x44(%ebp),%eax
    1089:	89 45 14             	mov    %eax,0x14(%ebp)
    108c:	e9 4f ff ff ff       	jmp    fe0 <_ftoa+0x1f0>
    1091:	8d b4 26 00 00 00 00 	lea    0x0(%esi,%eiz,1),%esi
    1098:	8d b4 26 00 00 00 00 	lea    0x0(%esi,%eiz,1),%esi
    109f:	90                   	nop
    10a0:	89 75 a0             	mov    %esi,-0x60(%ebp)
    10a3:	db 45 a0             	fildl  -0x60(%ebp)
    10a6:	de e9                	fsubrp %st,%st(1)
    10a8:	d9 05 04 00 00 00    	flds   0x4
			10aa: R_386_32	.rodata.cst4
    10ae:	db f1                	fcomi  %st(1),%st
    10b0:	76 7e                	jbe    1130 <_ftoa+0x340>
    10b2:	d9 c9                	fxch   %st(1)
    10b4:	df f1                	fcomip %st(1),%st
    10b6:	dd d8                	fstp   %st(0)
    10b8:	77 7a                	ja     1134 <_ftoa+0x344>
    10ba:	8d b6 00 00 00 00    	lea    0x0(%esi),%esi
    10c0:	bb 67 66 66 66       	mov    $0x66666667,%ebx
    10c5:	8d b4 26 00 00 00 00 	lea    0x0(%esi,%eiz,1),%esi
    10cc:	8d 74 26 00          	lea    0x0(%esi,%eiz,1),%esi
    10d0:	83 f9 20             	cmp    $0x20,%ecx
    10d3:	0f 84 8d fe ff ff    	je     f66 <_ftoa+0x176>
    10d9:	89 f0                	mov    %esi,%eax
    10db:	83 c1 01             	add    $0x1,%ecx
    10de:	f7 eb                	imul   %ebx
    10e0:	89 f0                	mov    %esi,%eax
    10e2:	c1 f8 1f             	sar    $0x1f,%eax
    10e5:	c1 fa 02             	sar    $0x2,%edx
    10e8:	29 c2                	sub    %eax,%edx
    10ea:	8d 04 92             	lea    (%edx,%edx,4),%eax
    10ed:	01 c0                	add    %eax,%eax
    10ef:	29 c6                	sub    %eax,%esi
    10f1:	8d 46 30             	lea    0x30(%esi),%eax
    10f4:	89 d6                	mov    %edx,%esi
    10f6:	88 44 0d c7          	mov    %al,-0x39(%ebp,%ecx,1)
    10fa:	85 d2                	test   %edx,%edx
    10fc:	75 d2                	jne    10d0 <_ftoa+0x2e0>
    10fe:	8b 45 c0             	mov    -0x40(%ebp),%eax
    1101:	83 e0 03             	and    $0x3,%eax
    1104:	83 f8 01             	cmp    $0x1,%eax
    1107:	0f 84 83 01 00 00    	je     1290 <_ftoa+0x4a0>
    110d:	83 f9 20             	cmp    $0x20,%ecx
    1110:	0f 84 5f fe ff ff    	je     f75 <_ftoa+0x185>
    1116:	80 7d ab 00          	cmpb   $0x0,-0x55(%ebp)
    111a:	0f 84 80 00 00 00    	je     11a0 <_ftoa+0x3b0>
    1120:	c6 44 0d c8 2d       	movb   $0x2d,-0x38(%ebp,%ecx,1)
    1125:	8d 41 01             	lea    0x1(%ecx),%eax
    1128:	e9 4d fe ff ff       	jmp    f7a <_ftoa+0x18a>
    112d:	8d 76 00             	lea    0x0(%esi),%esi
    1130:	dd d8                	fstp   %st(0)
    1132:	dd d8                	fstp   %st(0)
    1134:	89 f0                	mov    %esi,%eax
    1136:	83 e0 01             	and    $0x1,%eax
    1139:	83 f8 01             	cmp    $0x1,%eax
    113c:	83 de ff             	sbb    $0xffffffff,%esi
    113f:	e9 7c ff ff ff       	jmp    10c0 <_ftoa+0x2d0>
    1144:	8d b4 26 00 00 00 00 	lea    0x0(%esi,%eiz,1),%esi
    114b:	8d 74 26 00          	lea    0x0(%esi,%eiz,1),%esi
    114f:	90                   	nop
    1150:	dd db                	fstp   %st(3)
    1152:	d9 c9                	fxch   %st(1)
    1154:	d9 ca                	fxch   %st(2)
    1156:	d9 c9                	fxch   %st(1)
    1158:	df f1                	fcomip %st(1),%st
    115a:	dd d8                	fstp   %st(0)
    115c:	0f 87 b4 fd ff ff    	ja     f16 <_ftoa+0x126>
    1162:	85 db                	test   %ebx,%ebx
    1164:	0f 85 b6 00 00 00    	jne    1220 <_ftoa+0x430>
    116a:	83 c3 01             	add    $0x1,%ebx
    116d:	e9 a4 fd ff ff       	jmp    f16 <_ftoa+0x126>
    1172:	8d b4 26 00 00 00 00 	lea    0x0(%esi,%eiz,1),%esi
    1179:	8d b4 26 00 00 00 00 	lea    0x0(%esi,%eiz,1),%esi
    1180:	d9 05 1c 00 00 00    	flds   0x1c
			1182: R_386_32	.rodata.cst4
    1186:	d9 c9                	fxch   %st(1)
    1188:	bf 06 00 00 00       	mov    $0x6,%edi
    118d:	e9 1a fd ff ff       	jmp    eac <_ftoa+0xbc>
    1192:	8d b4 26 00 00 00 00 	lea    0x0(%esi,%eiz,1),%esi
    1199:	8d b4 26 00 00 00 00 	lea    0x0(%esi,%eiz,1),%esi
    11a0:	f6 45 c0 04          	testb  $0x4,-0x40(%ebp)
    11a4:	75 6a                	jne    1210 <_ftoa+0x420>
    11a6:	89 c8                	mov    %ecx,%eax
    11a8:	f6 45 c0 08          	testb  $0x8,-0x40(%ebp)
    11ac:	0f 84 c8 fd ff ff    	je     f7a <_ftoa+0x18a>
    11b2:	c6 44 0d c8 20       	movb   $0x20,-0x38(%ebp,%ecx,1)
    11b7:	83 c0 01             	add    $0x1,%eax
    11ba:	e9 bb fd ff ff       	jmp    f7a <_ftoa+0x18a>
    11bf:	90                   	nop
    11c0:	8b 75 9c             	mov    -0x64(%ebp),%esi
    11c3:	83 f9 20             	cmp    $0x20,%ecx
    11c6:	0f 84 9a fd ff ff    	je     f66 <_ftoa+0x176>
    11cc:	8b 5d a0             	mov    -0x60(%ebp),%ebx
    11cf:	89 c8                	mov    %ecx,%eax
    11d1:	85 db                	test   %ebx,%ebx
    11d3:	74 28                	je     11fd <_ftoa+0x40d>
    11d5:	8d b4 26 00 00 00 00 	lea    0x0(%esi,%eiz,1),%esi
    11dc:	8d 74 26 00          	lea    0x0(%esi,%eiz,1),%esi
    11e0:	83 c0 01             	add    $0x1,%eax
    11e3:	c6 44 05 c7 30       	movb   $0x30,-0x39(%ebp,%eax,1)
    11e8:	83 f8 20             	cmp    $0x20,%eax
    11eb:	0f 84 75 fd ff ff    	je     f66 <_ftoa+0x176>
    11f1:	89 fa                	mov    %edi,%edx
    11f3:	29 c2                	sub    %eax,%edx
    11f5:	8d 54 11 ff          	lea    -0x1(%ecx,%edx,1),%edx
    11f9:	85 d2                	test   %edx,%edx
    11fb:	75 e3                	jne    11e0 <_ftoa+0x3f0>
    11fd:	c6 44 05 c8 2e       	movb   $0x2e,-0x38(%ebp,%eax,1)
    1202:	8d 48 01             	lea    0x1(%eax),%ecx
    1205:	e9 b6 fe ff ff       	jmp    10c0 <_ftoa+0x2d0>
    120a:	8d b6 00 00 00 00    	lea    0x0(%esi),%esi
    1210:	c6 44 0d c8 2b       	movb   $0x2b,-0x38(%ebp,%ecx,1)
    1215:	8d 41 01             	lea    0x1(%ecx),%eax
    1218:	e9 5d fd ff ff       	jmp    f7a <_ftoa+0x18a>
    121d:	8d 76 00             	lea    0x0(%esi),%esi
    1220:	f6 c3 01             	test   $0x1,%bl
    1223:	0f 84 ed fc ff ff    	je     f16 <_ftoa+0x126>
    1229:	e9 3c ff ff ff       	jmp    116a <_ftoa+0x37a>
    122e:	66 90                	xchg   %ax,%ax
    1230:	8b 45 bc             	mov    -0x44(%ebp),%eax
    1233:	85 c0                	test   %eax,%eax
    1235:	0f 84 3a fd ff ff    	je     f75 <_ftoa+0x185>
    123b:	31 d2                	xor    %edx,%edx
    123d:	b9 20 00 00 00       	mov    $0x20,%ecx
    1242:	80 7d ab 00          	cmpb   $0x0,-0x55(%ebp)
    1246:	75 06                	jne    124e <_ftoa+0x45e>
    1248:	f6 45 c0 0c          	testb  $0xc,-0x40(%ebp)
    124c:	74 04                	je     1252 <_ftoa+0x462>
    124e:	83 6d bc 01          	subl   $0x1,-0x44(%ebp)
    1252:	3b 4d bc             	cmp    -0x44(%ebp),%ecx
    1255:	0f 83 b2 fe ff ff    	jae    110d <_ftoa+0x31d>
    125b:	8d 45 c7             	lea    -0x39(%ebp),%eax
    125e:	84 d2                	test   %dl,%dl
    1260:	0f 84 a7 fe ff ff    	je     110d <_ftoa+0x31d>
    1266:	8b 55 bc             	mov    -0x44(%ebp),%edx
    1269:	8d b4 26 00 00 00 00 	lea    0x0(%esi,%eiz,1),%esi
    1270:	83 c1 01             	add    $0x1,%ecx
    1273:	c6 04 08 30          	movb   $0x30,(%eax,%ecx,1)
    1277:	39 d1                	cmp    %edx,%ecx
    1279:	0f 83 8e fe ff ff    	jae    110d <_ftoa+0x31d>
    127f:	83 f9 1f             	cmp    $0x1f,%ecx
    1282:	76 ec                	jbe    1270 <_ftoa+0x480>
    1284:	e9 84 fe ff ff       	jmp    110d <_ftoa+0x31d>
    1289:	8d b4 26 00 00 00 00 	lea    0x0(%esi,%eiz,1),%esi
    1290:	8b 55 bc             	mov    -0x44(%ebp),%edx
    1293:	85 d2                	test   %edx,%edx
    1295:	0f 84 72 fe ff ff    	je     110d <_ftoa+0x31d>
    129b:	83 f9 1f             	cmp    $0x1f,%ecx
    129e:	0f 96 c2             	setbe  %dl
    12a1:	eb 9f                	jmp    1242 <_ftoa+0x452>
    12a3:	dd 04 fd 20 03 00 00 	fldl   0x320(,%edi,8)
			12a6: R_386_32	.rodata
    12aa:	d9 c9                	fxch   %st(1)
    12ac:	e9 fb fb ff ff       	jmp    eac <_ftoa+0xbc>
    12b1:	8d b4 26 00 00 00 00 	lea    0x0(%esi,%eiz,1),%esi
    12b8:	8d b4 26 00 00 00 00 	lea    0x0(%esi,%eiz,1),%esi
    12bf:	90                   	nop

000012c0 <_out_char>:
    12c0:	55                   	push   %ebp
    12c1:	89 e5                	mov    %esp,%ebp
    12c3:	8b 45 08             	mov    0x8(%ebp),%eax
    12c6:	84 c0                	test   %al,%al
    12c8:	75 06                	jne    12d0 <_out_char+0x10>
    12ca:	5d                   	pop    %ebp
    12cb:	c3                   	ret    
    12cc:	8d 74 26 00          	lea    0x0(%esi,%eiz,1),%esi
    12d0:	0f be c0             	movsbl %al,%eax
    12d3:	89 45 08             	mov    %eax,0x8(%ebp)
    12d6:	5d                   	pop    %ebp
    12d7:	e9 fc ff ff ff       	jmp    12d8 <_out_char+0x18>
			12d8: R_386_PC32	term_put_char
    12dc:	8d 74 26 00          	lea    0x0(%esi,%eiz,1),%esi

000012e0 <_out_fct>:
    12e0:	55                   	push   %ebp
    12e1:	89 e5                	mov    %esp,%ebp
    12e3:	8b 45 08             	mov    0x8(%ebp),%eax
    12e6:	8b 55 0c             	mov    0xc(%ebp),%edx
    12e9:	84 c0                	test   %al,%al
    12eb:	74 13                	je     1300 <_out_fct+0x20>
    12ed:	8b 4a 04             	mov    0x4(%edx),%ecx
    12f0:	0f be c0             	movsbl %al,%eax
    12f3:	89 45 08             	mov    %eax,0x8(%ebp)
    12f6:	89 4d 0c             	mov    %ecx,0xc(%ebp)
    12f9:	5d                   	pop    %ebp
    12fa:	8b 02                	mov    (%edx),%eax
    12fc:	ff e0                	jmp    *%eax
    12fe:	66 90                	xchg   %ax,%ax
    1300:	5d                   	pop    %ebp
    1301:	c3                   	ret    
    1302:	8d b4 26 00 00 00 00 	lea    0x0(%esi,%eiz,1),%esi
    1309:	8d b4 26 00 00 00 00 	lea    0x0(%esi,%eiz,1),%esi

00001310 <_vsnprintf>:
    1310:	55                   	push   %ebp
    1311:	89 e5                	mov    %esp,%ebp
    1313:	57                   	push   %edi
    1314:	56                   	push   %esi
    1315:	53                   	push   %ebx
    1316:	83 ec 4c             	sub    $0x4c,%esp
    1319:	8b 5d 08             	mov    0x8(%ebp),%ebx
    131c:	85 d2                	test   %edx,%edx
    131e:	89 55 e0             	mov    %edx,-0x20(%ebp)
    1321:	ba f0 04 00 00       	mov    $0x4f0,%edx
			1322: R_386_32	.text
    1326:	89 4d dc             	mov    %ecx,-0x24(%ebp)
    1329:	0f 45 d0             	cmovne %eax,%edx
    132c:	0f be 03             	movsbl (%ebx),%eax
    132f:	31 ff                	xor    %edi,%edi
    1331:	89 55 e4             	mov    %edx,-0x1c(%ebp)
    1334:	84 c0                	test   %al,%al
    1336:	75 28                	jne    1360 <_vsnprintf+0x50>
    1338:	e9 f3 06 00 00       	jmp    1a30 <_vsnprintf+0x720>
    133d:	8d 76 00             	lea    0x0(%esi),%esi
    1340:	ff 75 dc             	push   -0x24(%ebp)
    1343:	8d 77 01             	lea    0x1(%edi),%esi
    1346:	57                   	push   %edi
    1347:	89 f7                	mov    %esi,%edi
    1349:	ff 75 e0             	push   -0x20(%ebp)
    134c:	50                   	push   %eax
    134d:	8b 45 e4             	mov    -0x1c(%ebp),%eax
    1350:	ff d0                	call   *%eax
    1352:	83 c4 10             	add    $0x10,%esp
    1355:	0f be 03             	movsbl (%ebx),%eax
    1358:	84 c0                	test   %al,%al
    135a:	0f 84 80 01 00 00    	je     14e0 <_vsnprintf+0x1d0>
    1360:	83 c3 01             	add    $0x1,%ebx
    1363:	3c 25                	cmp    $0x25,%al
    1365:	75 d9                	jne    1340 <_vsnprintf+0x30>
    1367:	31 f6                	xor    %esi,%esi
    1369:	8d b4 26 00 00 00 00 	lea    0x0(%esi,%eiz,1),%esi
    1370:	0f be 03             	movsbl (%ebx),%eax
    1373:	8d 53 01             	lea    0x1(%ebx),%edx
    1376:	8d 48 e0             	lea    -0x20(%eax),%ecx
    1379:	80 f9 10             	cmp    $0x10,%cl
    137c:	77 12                	ja     1390 <_vsnprintf+0x80>
    137e:	0f b6 c9             	movzbl %cl,%ecx
    1381:	ff 24 8d 80 01 00 00 	jmp    *0x180(,%ecx,4)
			1384: R_386_32	.rodata
    1388:	8d b4 26 00 00 00 00 	lea    0x0(%esi,%eiz,1),%esi
    138f:	90                   	nop
    1390:	8d 48 d0             	lea    -0x30(%eax),%ecx
    1393:	80 f9 09             	cmp    $0x9,%cl
    1396:	0f 86 a4 01 00 00    	jbe    1540 <_vsnprintf+0x230>
    139c:	c7 45 d4 00 00 00 00 	movl   $0x0,-0x2c(%ebp)
    13a3:	3c 2a                	cmp    $0x2a,%al
    13a5:	0f 84 d5 01 00 00    	je     1580 <_vsnprintf+0x270>
    13ab:	c7 45 d8 00 00 00 00 	movl   $0x0,-0x28(%ebp)
    13b2:	3c 2e                	cmp    $0x2e,%al
    13b4:	0f 84 56 01 00 00    	je     1510 <_vsnprintf+0x200>
    13ba:	8d 48 98             	lea    -0x68(%eax),%ecx
    13bd:	80 f9 12             	cmp    $0x12,%cl
    13c0:	77 1b                	ja     13dd <_vsnprintf+0xcd>
    13c2:	0f b6 c9             	movzbl %cl,%ecx
    13c5:	ff 24 8d c4 01 00 00 	jmp    *0x1c4(,%ecx,4)
			13c8: R_386_32	.rodata
    13cc:	8d 74 26 00          	lea    0x0(%esi,%eiz,1),%esi
    13d0:	0f be 43 01          	movsbl 0x1(%ebx),%eax
    13d4:	81 ce 00 01 00 00    	or     $0x100,%esi
    13da:	83 c2 01             	add    $0x1,%edx
    13dd:	89 d3                	mov    %edx,%ebx
    13df:	3c 67                	cmp    $0x67,%al
    13e1:	7f 7d                	jg     1460 <_vsnprintf+0x150>
    13e3:	3c 24                	cmp    $0x24,%al
    13e5:	0f 8e 55 ff ff ff    	jle    1340 <_vsnprintf+0x30>
    13eb:	8d 50 db             	lea    -0x25(%eax),%edx
    13ee:	80 fa 42             	cmp    $0x42,%dl
    13f1:	0f 87 49 ff ff ff    	ja     1340 <_vsnprintf+0x30>
    13f7:	0f b6 d2             	movzbl %dl,%edx
    13fa:	ff 24 95 10 02 00 00 	jmp    *0x210(,%edx,4)
			13fd: R_386_32	.rodata
    1401:	8d b4 26 00 00 00 00 	lea    0x0(%esi,%eiz,1),%esi
    1408:	8d b4 26 00 00 00 00 	lea    0x0(%esi,%eiz,1),%esi
    140f:	90                   	nop
    1410:	83 ce 01             	or     $0x1,%esi
    1413:	89 d3                	mov    %edx,%ebx
    1415:	e9 56 ff ff ff       	jmp    1370 <_vsnprintf+0x60>
    141a:	8d b6 00 00 00 00    	lea    0x0(%esi),%esi
    1420:	83 ce 02             	or     $0x2,%esi
    1423:	89 d3                	mov    %edx,%ebx
    1425:	e9 46 ff ff ff       	jmp    1370 <_vsnprintf+0x60>
    142a:	8d b6 00 00 00 00    	lea    0x0(%esi),%esi
    1430:	83 ce 04             	or     $0x4,%esi
    1433:	89 d3                	mov    %edx,%ebx
    1435:	e9 36 ff ff ff       	jmp    1370 <_vsnprintf+0x60>
    143a:	8d b6 00 00 00 00    	lea    0x0(%esi),%esi
    1440:	83 ce 10             	or     $0x10,%esi
    1443:	89 d3                	mov    %edx,%ebx
    1445:	e9 26 ff ff ff       	jmp    1370 <_vsnprintf+0x60>
    144a:	8d b6 00 00 00 00    	lea    0x0(%esi),%esi
    1450:	83 ce 08             	or     $0x8,%esi
    1453:	89 d3                	mov    %edx,%ebx
    1455:	e9 16 ff ff ff       	jmp    1370 <_vsnprintf+0x60>
    145a:	8d b6 00 00 00 00    	lea    0x0(%esi),%esi
    1460:	8d 48 97             	lea    -0x69(%eax),%ecx
    1463:	80 f9 0f             	cmp    $0xf,%cl
    1466:	0f 87 d4 fe ff ff    	ja     1340 <_vsnprintf+0x30>
    146c:	ba 01 00 00 00       	mov    $0x1,%edx
    1471:	d3 e2                	shl    %cl,%edx
    1473:	81 e2 41 90 00 00    	and    $0x9041,%edx
    1479:	89 55 c8             	mov    %edx,-0x38(%ebp)
    147c:	0f 85 9e 03 00 00    	jne    1820 <_vsnprintf+0x510>
    1482:	80 f9 0a             	cmp    $0xa,%cl
    1485:	0f 84 a5 02 00 00    	je     1730 <_vsnprintf+0x420>
    148b:	80 f9 07             	cmp    $0x7,%cl
    148e:	0f 85 ac fe ff ff    	jne    1340 <_vsnprintf+0x30>
    1494:	83 ec 04             	sub    $0x4,%esp
    1497:	83 ce 21             	or     $0x21,%esi
    149a:	8b 45 0c             	mov    0xc(%ebp),%eax
    149d:	8b 55 e0             	mov    -0x20(%ebp),%edx
    14a0:	56                   	push   %esi
    14a1:	8b 75 0c             	mov    0xc(%ebp),%esi
    14a4:	89 f9                	mov    %edi,%ecx
    14a6:	6a 08                	push   $0x8
    14a8:	83 c0 04             	add    $0x4,%eax
    14ab:	ff 75 d8             	push   -0x28(%ebp)
    14ae:	6a 10                	push   $0x10
    14b0:	6a 00                	push   $0x0
    14b2:	ff 36                	push   (%esi)
    14b4:	ff 75 dc             	push   -0x24(%ebp)
    14b7:	89 45 d4             	mov    %eax,-0x2c(%ebp)
    14ba:	8b 45 e4             	mov    -0x1c(%ebp),%eax
    14bd:	e8 ae f3 ff ff       	call   870 <_ntoa_long>
    14c2:	83 c4 20             	add    $0x20,%esp
    14c5:	89 c7                	mov    %eax,%edi
    14c7:	8b 45 d4             	mov    -0x2c(%ebp),%eax
    14ca:	89 45 0c             	mov    %eax,0xc(%ebp)
    14cd:	0f be 03             	movsbl (%ebx),%eax
    14d0:	84 c0                	test   %al,%al
    14d2:	0f 85 88 fe ff ff    	jne    1360 <_vsnprintf+0x50>
    14d8:	8d b4 26 00 00 00 00 	lea    0x0(%esi,%eiz,1),%esi
    14df:	90                   	nop
    14e0:	89 f9                	mov    %edi,%ecx
    14e2:	89 fb                	mov    %edi,%ebx
    14e4:	8b 7d dc             	mov    -0x24(%ebp),%edi
    14e7:	39 f9                	cmp    %edi,%ecx
    14e9:	8d 47 ff             	lea    -0x1(%edi),%eax
    14ec:	57                   	push   %edi
    14ed:	0f 42 c1             	cmovb  %ecx,%eax
    14f0:	50                   	push   %eax
    14f1:	8b 45 e4             	mov    -0x1c(%ebp),%eax
    14f4:	ff 75 e0             	push   -0x20(%ebp)
    14f7:	6a 00                	push   $0x0
    14f9:	ff d0                	call   *%eax
    14fb:	8d 65 f4             	lea    -0xc(%ebp),%esp
    14fe:	89 d8                	mov    %ebx,%eax
    1500:	5b                   	pop    %ebx
    1501:	5e                   	pop    %esi
    1502:	5f                   	pop    %edi
    1503:	5d                   	pop    %ebp
    1504:	c3                   	ret    
    1505:	8d b4 26 00 00 00 00 	lea    0x0(%esi,%eiz,1),%esi
    150c:	8d 74 26 00          	lea    0x0(%esi,%eiz,1),%esi
    1510:	0f be 43 01          	movsbl 0x1(%ebx),%eax
    1514:	89 55 d0             	mov    %edx,-0x30(%ebp)
    1517:	81 ce 00 04 00 00    	or     $0x400,%esi
    151d:	8d 48 d0             	lea    -0x30(%eax),%ecx
    1520:	80 f9 09             	cmp    $0x9,%cl
    1523:	0f 86 c7 03 00 00    	jbe    18f0 <_vsnprintf+0x5e0>
    1529:	3c 2a                	cmp    $0x2a,%al
    152b:	0f 84 ff 03 00 00    	je     1930 <_vsnprintf+0x620>
    1531:	89 d3                	mov    %edx,%ebx
    1533:	83 c2 01             	add    $0x1,%edx
    1536:	e9 7f fe ff ff       	jmp    13ba <_vsnprintf+0xaa>
    153b:	8d 74 26 00          	lea    0x0(%esi,%eiz,1),%esi
    153f:	90                   	nop
    1540:	89 7d d8             	mov    %edi,-0x28(%ebp)
    1543:	31 c9                	xor    %ecx,%ecx
    1545:	eb 0c                	jmp    1553 <_vsnprintf+0x243>
    1547:	8d b4 26 00 00 00 00 	lea    0x0(%esi,%eiz,1),%esi
    154e:	66 90                	xchg   %ax,%ax
    1550:	83 c2 01             	add    $0x1,%edx
    1553:	8d 0c 89             	lea    (%ecx,%ecx,4),%ecx
    1556:	8d 4c 48 d0          	lea    -0x30(%eax,%ecx,2),%ecx
    155a:	0f be 02             	movsbl (%edx),%eax
    155d:	8d 58 d0             	lea    -0x30(%eax),%ebx
    1560:	80 fb 09             	cmp    $0x9,%bl
    1563:	76 eb                	jbe    1550 <_vsnprintf+0x240>
    1565:	89 d3                	mov    %edx,%ebx
    1567:	89 4d d4             	mov    %ecx,-0x2c(%ebp)
    156a:	8b 7d d8             	mov    -0x28(%ebp),%edi
    156d:	83 c2 01             	add    $0x1,%edx
    1570:	e9 36 fe ff ff       	jmp    13ab <_vsnprintf+0x9b>
    1575:	8d b4 26 00 00 00 00 	lea    0x0(%esi,%eiz,1),%esi
    157c:	8d 74 26 00          	lea    0x0(%esi,%eiz,1),%esi
    1580:	8b 45 0c             	mov    0xc(%ebp),%eax
    1583:	8d 48 04             	lea    0x4(%eax),%ecx
    1586:	8b 00                	mov    (%eax),%eax
    1588:	89 45 d4             	mov    %eax,-0x2c(%ebp)
    158b:	85 c0                	test   %eax,%eax
    158d:	78 11                	js     15a0 <_vsnprintf+0x290>
    158f:	0f be 43 01          	movsbl 0x1(%ebx),%eax
    1593:	89 4d 0c             	mov    %ecx,0xc(%ebp)
    1596:	89 d3                	mov    %edx,%ebx
    1598:	83 c2 01             	add    $0x1,%edx
    159b:	e9 0b fe ff ff       	jmp    13ab <_vsnprintf+0x9b>
    15a0:	f7 d8                	neg    %eax
    15a2:	89 4d 0c             	mov    %ecx,0xc(%ebp)
    15a5:	83 ce 02             	or     $0x2,%esi
    15a8:	89 45 d4             	mov    %eax,-0x2c(%ebp)
    15ab:	0f be 43 01          	movsbl 0x1(%ebx),%eax
    15af:	89 d3                	mov    %edx,%ebx
    15b1:	83 c2 01             	add    $0x1,%edx
    15b4:	e9 f2 fd ff ff       	jmp    13ab <_vsnprintf+0x9b>
    15b9:	89 c1                	mov    %eax,%ecx
    15bb:	89 f2                	mov    %esi,%edx
    15bd:	83 e1 df             	and    $0xffffffdf,%ecx
    15c0:	80 ce 08             	or     $0x8,%dh
    15c3:	80 f9 47             	cmp    $0x47,%cl
    15c6:	89 f9                	mov    %edi,%ecx
    15c8:	0f 44 f2             	cmove  %edx,%esi
    15cb:	83 e0 fd             	and    $0xfffffffd,%eax
    15ce:	89 f2                	mov    %esi,%edx
    15d0:	83 ca 20             	or     $0x20,%edx
    15d3:	3c 45                	cmp    $0x45,%al
    15d5:	8b 45 0c             	mov    0xc(%ebp),%eax
    15d8:	0f 44 f2             	cmove  %edx,%esi
    15db:	83 ec 08             	sub    $0x8,%esp
    15de:	8b 55 e0             	mov    -0x20(%ebp),%edx
    15e1:	83 c0 08             	add    $0x8,%eax
    15e4:	56                   	push   %esi
    15e5:	8b 75 0c             	mov    0xc(%ebp),%esi
    15e8:	ff 75 d4             	push   -0x2c(%ebp)
    15eb:	ff 75 d8             	push   -0x28(%ebp)
    15ee:	ff 76 04             	push   0x4(%esi)
    15f1:	ff 36                	push   (%esi)
    15f3:	ff 75 dc             	push   -0x24(%ebp)
    15f6:	89 45 d0             	mov    %eax,-0x30(%ebp)
    15f9:	8b 45 e4             	mov    -0x1c(%ebp),%eax
    15fc:	e8 2f f4 ff ff       	call   a30 <_etoa>
    1601:	83 c4 20             	add    $0x20,%esp
    1604:	89 c7                	mov    %eax,%edi
    1606:	8b 45 d0             	mov    -0x30(%ebp),%eax
    1609:	89 45 0c             	mov    %eax,0xc(%ebp)
    160c:	e9 44 fd ff ff       	jmp    1355 <_vsnprintf+0x45>
    1611:	0f be 43 01          	movsbl 0x1(%ebx),%eax
    1615:	3c 6c                	cmp    $0x6c,%al
    1617:	0f 84 f3 03 00 00    	je     1a10 <_vsnprintf+0x700>
    161d:	81 ce 00 01 00 00    	or     $0x100,%esi
    1623:	83 c2 01             	add    $0x1,%edx
    1626:	e9 b2 fd ff ff       	jmp    13dd <_vsnprintf+0xcd>
    162b:	0f be 43 01          	movsbl 0x1(%ebx),%eax
    162f:	81 ce 00 02 00 00    	or     $0x200,%esi
    1635:	83 c2 01             	add    $0x1,%edx
    1638:	e9 a0 fd ff ff       	jmp    13dd <_vsnprintf+0xcd>
    163d:	0f be 43 01          	movsbl 0x1(%ebx),%eax
    1641:	3c 68                	cmp    $0x68,%al
    1643:	0f 84 b5 03 00 00    	je     19fe <_vsnprintf+0x6ee>
    1649:	81 ce 80 00 00 00    	or     $0x80,%esi
    164f:	83 c2 01             	add    $0x1,%edx
    1652:	e9 86 fd ff ff       	jmp    13dd <_vsnprintf+0xcd>
    1657:	89 f2                	mov    %esi,%edx
    1659:	89 f9                	mov    %edi,%ecx
    165b:	83 ca 20             	or     $0x20,%edx
    165e:	3c 46                	cmp    $0x46,%al
    1660:	8b 45 0c             	mov    0xc(%ebp),%eax
    1663:	0f 44 f2             	cmove  %edx,%esi
    1666:	83 ec 08             	sub    $0x8,%esp
    1669:	8b 55 e0             	mov    -0x20(%ebp),%edx
    166c:	83 c0 08             	add    $0x8,%eax
    166f:	56                   	push   %esi
    1670:	8b 75 0c             	mov    0xc(%ebp),%esi
    1673:	ff 75 d4             	push   -0x2c(%ebp)
    1676:	ff 75 d8             	push   -0x28(%ebp)
    1679:	ff 76 04             	push   0x4(%esi)
    167c:	ff 36                	push   (%esi)
    167e:	ff 75 dc             	push   -0x24(%ebp)
    1681:	89 45 d0             	mov    %eax,-0x30(%ebp)
    1684:	8b 45 e4             	mov    -0x1c(%ebp),%eax
    1687:	e8 64 f7 ff ff       	call   df0 <_ftoa>
    168c:	83 c4 20             	add    $0x20,%esp
    168f:	89 c7                	mov    %eax,%edi
    1691:	8b 45 d0             	mov    -0x30(%ebp),%eax
    1694:	89 45 0c             	mov    %eax,0xc(%ebp)
    1697:	e9 b9 fc ff ff       	jmp    1355 <_vsnprintf+0x45>
    169c:	8b 45 0c             	mov    0xc(%ebp),%eax
    169f:	83 c0 04             	add    $0x4,%eax
    16a2:	83 e6 02             	and    $0x2,%esi
    16a5:	89 45 d8             	mov    %eax,-0x28(%ebp)
    16a8:	0f 84 95 03 00 00    	je     1a43 <_vsnprintf+0x733>
    16ae:	8b 45 0c             	mov    0xc(%ebp),%eax
    16b1:	ff 75 dc             	push   -0x24(%ebp)
    16b4:	8d 77 01             	lea    0x1(%edi),%esi
    16b7:	57                   	push   %edi
    16b8:	0f be 00             	movsbl (%eax),%eax
    16bb:	ff 75 e0             	push   -0x20(%ebp)
    16be:	50                   	push   %eax
    16bf:	8b 45 e4             	mov    -0x1c(%ebp),%eax
    16c2:	ff d0                	call   *%eax
    16c4:	8b 45 d4             	mov    -0x2c(%ebp),%eax
    16c7:	83 c4 10             	add    $0x10,%esp
    16ca:	01 c7                	add    %eax,%edi
    16cc:	83 f8 01             	cmp    $0x1,%eax
    16cf:	0f 86 8a 04 00 00    	jbe    1b5f <_vsnprintf+0x84f>
    16d5:	89 5d 08             	mov    %ebx,0x8(%ebp)
    16d8:	89 fb                	mov    %edi,%ebx
    16da:	8b 7d e0             	mov    -0x20(%ebp),%edi
    16dd:	8d 76 00             	lea    0x0(%esi),%esi
    16e0:	89 f2                	mov    %esi,%edx
    16e2:	ff 75 dc             	push   -0x24(%ebp)
    16e5:	83 c6 01             	add    $0x1,%esi
    16e8:	8b 45 e4             	mov    -0x1c(%ebp),%eax
    16eb:	52                   	push   %edx
    16ec:	57                   	push   %edi
    16ed:	6a 20                	push   $0x20
    16ef:	ff d0                	call   *%eax
    16f1:	83 c4 10             	add    $0x10,%esp
    16f4:	39 de                	cmp    %ebx,%esi
    16f6:	75 e8                	jne    16e0 <_vsnprintf+0x3d0>
    16f8:	89 df                	mov    %ebx,%edi
    16fa:	8b 5d 08             	mov    0x8(%ebp),%ebx
    16fd:	8b 45 d8             	mov    -0x28(%ebp),%eax
    1700:	89 45 0c             	mov    %eax,0xc(%ebp)
    1703:	e9 4d fc ff ff       	jmp    1355 <_vsnprintf+0x45>
    1708:	ff 75 dc             	push   -0x24(%ebp)
    170b:	8d 77 01             	lea    0x1(%edi),%esi
    170e:	8b 45 e4             	mov    -0x1c(%ebp),%eax
    1711:	57                   	push   %edi
    1712:	89 f7                	mov    %esi,%edi
    1714:	ff 75 e0             	push   -0x20(%ebp)
    1717:	6a 25                	push   $0x25
    1719:	ff d0                	call   *%eax
    171b:	83 c4 10             	add    $0x10,%esp
    171e:	e9 32 fc ff ff       	jmp    1355 <_vsnprintf+0x45>
    1723:	8d b4 26 00 00 00 00 	lea    0x0(%esi,%eiz,1),%esi
    172a:	8d b6 00 00 00 00    	lea    0x0(%esi),%esi
    1730:	8b 45 0c             	mov    0xc(%ebp),%eax
    1733:	8b 4d d8             	mov    -0x28(%ebp),%ecx
    1736:	83 c0 04             	add    $0x4,%eax
    1739:	89 45 c0             	mov    %eax,-0x40(%ebp)
    173c:	8b 45 0c             	mov    0xc(%ebp),%eax
    173f:	8b 00                	mov    (%eax),%eax
    1741:	89 45 cc             	mov    %eax,-0x34(%ebp)
    1744:	0f b6 00             	movzbl (%eax),%eax
    1747:	88 45 c6             	mov    %al,-0x3a(%ebp)
    174a:	88 45 c7             	mov    %al,-0x39(%ebp)
    174d:	85 c9                	test   %ecx,%ecx
    174f:	0f 85 0b 02 00 00    	jne    1960 <_vsnprintf+0x650>
    1755:	ba fe ff ff ff       	mov    $0xfffffffe,%edx
    175a:	84 c0                	test   %al,%al
    175c:	74 2b                	je     1789 <_vsnprintf+0x479>
    175e:	8b 45 cc             	mov    -0x34(%ebp),%eax
    1761:	8d 4c 10 01          	lea    0x1(%eax,%edx,1),%ecx
    1765:	89 c2                	mov    %eax,%edx
    1767:	0f b6 45 c7          	movzbl -0x39(%ebp),%eax
    176b:	eb 0b                	jmp    1778 <_vsnprintf+0x468>
    176d:	8d 76 00             	lea    0x0(%esi),%esi
    1770:	39 d1                	cmp    %edx,%ecx
    1772:	0f 84 aa 02 00 00    	je     1a22 <_vsnprintf+0x712>
    1778:	83 c2 01             	add    $0x1,%edx
    177b:	80 3a 00             	cmpb   $0x0,(%edx)
    177e:	75 f0                	jne    1770 <_vsnprintf+0x460>
    1780:	2b 55 cc             	sub    -0x34(%ebp),%edx
    1783:	88 45 c7             	mov    %al,-0x39(%ebp)
    1786:	89 55 c8             	mov    %edx,-0x38(%ebp)
    1789:	8b 4d c8             	mov    -0x38(%ebp),%ecx
    178c:	8b 55 d8             	mov    -0x28(%ebp),%edx
    178f:	89 f0                	mov    %esi,%eax
    1791:	39 d1                	cmp    %edx,%ecx
    1793:	0f 46 d1             	cmovbe %ecx,%edx
    1796:	25 00 04 00 00       	and    $0x400,%eax
    179b:	89 45 d0             	mov    %eax,-0x30(%ebp)
    179e:	0f 44 d1             	cmove  %ecx,%edx
    17a1:	83 e6 02             	and    $0x2,%esi
    17a4:	89 75 bc             	mov    %esi,-0x44(%ebp)
    17a7:	89 55 c8             	mov    %edx,-0x38(%ebp)
    17aa:	0f 84 30 03 00 00    	je     1ae0 <_vsnprintf+0x7d0>
    17b0:	80 7d c6 00          	cmpb   $0x0,-0x3a(%ebp)
    17b4:	0f 84 e1 02 00 00    	je     1a9b <_vsnprintf+0x78b>
    17ba:	8b 45 cc             	mov    -0x34(%ebp),%eax
    17bd:	89 5d 08             	mov    %ebx,0x8(%ebp)
    17c0:	8b 5d d8             	mov    -0x28(%ebp),%ebx
    17c3:	29 f8                	sub    %edi,%eax
    17c5:	89 45 cc             	mov    %eax,-0x34(%ebp)
    17c8:	0f be 45 c7          	movsbl -0x39(%ebp),%eax
    17cc:	eb 04                	jmp    17d2 <_vsnprintf+0x4c2>
    17ce:	66 90                	xchg   %ax,%ax
    17d0:	89 f7                	mov    %esi,%edi
    17d2:	8b 55 d0             	mov    -0x30(%ebp),%edx
    17d5:	85 d2                	test   %edx,%edx
    17d7:	74 0d                	je     17e6 <_vsnprintf+0x4d6>
    17d9:	8d 4b ff             	lea    -0x1(%ebx),%ecx
    17dc:	85 db                	test   %ebx,%ebx
    17de:	0f 84 55 02 00 00    	je     1a39 <_vsnprintf+0x729>
    17e4:	89 cb                	mov    %ecx,%ebx
    17e6:	ff 75 dc             	push   -0x24(%ebp)
    17e9:	8d 77 01             	lea    0x1(%edi),%esi
    17ec:	57                   	push   %edi
    17ed:	ff 75 e0             	push   -0x20(%ebp)
    17f0:	50                   	push   %eax
    17f1:	8b 45 e4             	mov    -0x1c(%ebp),%eax
    17f4:	ff d0                	call   *%eax
    17f6:	8b 45 cc             	mov    -0x34(%ebp),%eax
    17f9:	83 c4 10             	add    $0x10,%esp
    17fc:	0f be 44 07 01       	movsbl 0x1(%edi,%eax,1),%eax
    1801:	84 c0                	test   %al,%al
    1803:	75 cb                	jne    17d0 <_vsnprintf+0x4c0>
    1805:	8b 5d 08             	mov    0x8(%ebp),%ebx
    1808:	8b 45 bc             	mov    -0x44(%ebp),%eax
    180b:	85 c0                	test   %eax,%eax
    180d:	0f 85 86 02 00 00    	jne    1a99 <_vsnprintf+0x789>
    1813:	8b 45 c0             	mov    -0x40(%ebp),%eax
    1816:	89 f7                	mov    %esi,%edi
    1818:	89 45 0c             	mov    %eax,0xc(%ebp)
    181b:	e9 35 fb ff ff       	jmp    1355 <_vsnprintf+0x45>
    1820:	89 c2                	mov    %eax,%edx
    1822:	83 e2 df             	and    $0xffffffdf,%edx
    1825:	80 fa 58             	cmp    $0x58,%dl
    1828:	0f 84 ca 03 00 00    	je     1bf8 <_vsnprintf+0x8e8>
    182e:	3c 6f                	cmp    $0x6f,%al
    1830:	0f 84 0f 03 00 00    	je     1b45 <_vsnprintf+0x835>
    1836:	3c 62                	cmp    $0x62,%al
    1838:	0f 84 c4 03 00 00    	je     1c02 <_vsnprintf+0x8f2>
    183e:	83 e6 ef             	and    $0xffffffef,%esi
    1841:	b9 0a 00 00 00       	mov    $0xa,%ecx
    1846:	3c 69                	cmp    $0x69,%al
    1848:	74 08                	je     1852 <_vsnprintf+0x542>
    184a:	3c 64                	cmp    $0x64,%al
    184c:	0f 85 a4 01 00 00    	jne    19f6 <_vsnprintf+0x6e6>
    1852:	89 f2                	mov    %esi,%edx
    1854:	83 e2 fe             	and    $0xfffffffe,%edx
    1857:	f7 c6 00 04 00 00    	test   $0x400,%esi
    185d:	0f 45 f2             	cmovne %edx,%esi
    1860:	89 f2                	mov    %esi,%edx
    1862:	81 e2 00 02 00 00    	and    $0x200,%edx
    1868:	3c 69                	cmp    $0x69,%al
    186a:	0f 84 10 01 00 00    	je     1980 <_vsnprintf+0x670>
    1870:	3c 64                	cmp    $0x64,%al
    1872:	0f 84 08 01 00 00    	je     1980 <_vsnprintf+0x670>
    1878:	8b 45 0c             	mov    0xc(%ebp),%eax
    187b:	85 d2                	test   %edx,%edx
    187d:	0f 85 55 03 00 00    	jne    1bd8 <_vsnprintf+0x8c8>
    1883:	83 c0 04             	add    $0x4,%eax
    1886:	89 45 d0             	mov    %eax,-0x30(%ebp)
    1889:	f7 c6 00 01 00 00    	test   $0x100,%esi
    188f:	0f 85 77 03 00 00    	jne    1c0c <_vsnprintf+0x8fc>
    1895:	8b 45 0c             	mov    0xc(%ebp),%eax
    1898:	f7 c6 40 00 00 00    	test   $0x40,%esi
    189e:	0f 85 b3 02 00 00    	jne    1b57 <_vsnprintf+0x847>
    18a4:	f7 c6 80 00 00 00    	test   $0x80,%esi
    18aa:	0f 84 73 03 00 00    	je     1c23 <_vsnprintf+0x913>
    18b0:	0f b7 00             	movzwl (%eax),%eax
    18b3:	83 ec 04             	sub    $0x4,%esp
    18b6:	56                   	push   %esi
    18b7:	ff 75 d4             	push   -0x2c(%ebp)
    18ba:	ff 75 d8             	push   -0x28(%ebp)
    18bd:	51                   	push   %ecx
    18be:	6a 00                	push   $0x0
    18c0:	50                   	push   %eax
    18c1:	8b 55 e0             	mov    -0x20(%ebp),%edx
    18c4:	8b 45 e4             	mov    -0x1c(%ebp),%eax
    18c7:	ff 75 dc             	push   -0x24(%ebp)
    18ca:	89 f9                	mov    %edi,%ecx
    18cc:	e8 9f ef ff ff       	call   870 <_ntoa_long>
    18d1:	83 c4 20             	add    $0x20,%esp
    18d4:	89 c7                	mov    %eax,%edi
    18d6:	8b 45 d0             	mov    -0x30(%ebp),%eax
    18d9:	89 45 0c             	mov    %eax,0xc(%ebp)
    18dc:	e9 74 fa ff ff       	jmp    1355 <_vsnprintf+0x45>
    18e1:	8d b4 26 00 00 00 00 	lea    0x0(%esi,%eiz,1),%esi
    18e8:	8d b4 26 00 00 00 00 	lea    0x0(%esi,%eiz,1),%esi
    18ef:	90                   	nop
    18f0:	89 d1                	mov    %edx,%ecx
    18f2:	31 d2                	xor    %edx,%edx
    18f4:	8d b4 26 00 00 00 00 	lea    0x0(%esi,%eiz,1),%esi
    18fb:	8d 74 26 00          	lea    0x0(%esi,%eiz,1),%esi
    18ff:	90                   	nop
    1900:	83 c1 01             	add    $0x1,%ecx
    1903:	8d 14 92             	lea    (%edx,%edx,4),%edx
    1906:	8d 54 50 d0          	lea    -0x30(%eax,%edx,2),%edx
    190a:	0f be 01             	movsbl (%ecx),%eax
    190d:	8d 58 d0             	lea    -0x30(%eax),%ebx
    1910:	80 fb 09             	cmp    $0x9,%bl
    1913:	76 eb                	jbe    1900 <_vsnprintf+0x5f0>
    1915:	89 55 d8             	mov    %edx,-0x28(%ebp)
    1918:	89 cb                	mov    %ecx,%ebx
    191a:	8d 51 01             	lea    0x1(%ecx),%edx
    191d:	e9 98 fa ff ff       	jmp    13ba <_vsnprintf+0xaa>
    1922:	8d b4 26 00 00 00 00 	lea    0x0(%esi,%eiz,1),%esi
    1929:	8d b4 26 00 00 00 00 	lea    0x0(%esi,%eiz,1),%esi
    1930:	8b 45 0c             	mov    0xc(%ebp),%eax
    1933:	31 d2                	xor    %edx,%edx
    1935:	8b 4d 0c             	mov    0xc(%ebp),%ecx
    1938:	8b 00                	mov    (%eax),%eax
    193a:	85 c0                	test   %eax,%eax
    193c:	0f 49 d0             	cmovns %eax,%edx
    193f:	0f be 43 02          	movsbl 0x2(%ebx),%eax
    1943:	83 c3 02             	add    $0x2,%ebx
    1946:	89 55 d8             	mov    %edx,-0x28(%ebp)
    1949:	8d 51 04             	lea    0x4(%ecx),%edx
    194c:	89 55 0c             	mov    %edx,0xc(%ebp)
    194f:	8d 53 01             	lea    0x1(%ebx),%edx
    1952:	e9 63 fa ff ff       	jmp    13ba <_vsnprintf+0xaa>
    1957:	8d b4 26 00 00 00 00 	lea    0x0(%esi,%eiz,1),%esi
    195e:	66 90                	xchg   %ax,%ax
    1960:	80 7d c6 00          	cmpb   $0x0,-0x3a(%ebp)
    1964:	0f 84 1f fe ff ff    	je     1789 <_vsnprintf+0x479>
    196a:	8b 45 d8             	mov    -0x28(%ebp),%eax
    196d:	8d 50 ff             	lea    -0x1(%eax),%edx
    1970:	e9 e9 fd ff ff       	jmp    175e <_vsnprintf+0x44e>
    1975:	8d b4 26 00 00 00 00 	lea    0x0(%esi,%eiz,1),%esi
    197c:	8d 74 26 00          	lea    0x0(%esi,%eiz,1),%esi
    1980:	8b 45 0c             	mov    0xc(%ebp),%eax
    1983:	85 d2                	test   %edx,%edx
    1985:	0f 85 e2 01 00 00    	jne    1b6d <_vsnprintf+0x85d>
    198b:	83 c0 04             	add    $0x4,%eax
    198e:	89 45 d0             	mov    %eax,-0x30(%ebp)
    1991:	8b 45 0c             	mov    0xc(%ebp),%eax
    1994:	f7 c6 00 01 00 00    	test   $0x100,%esi
    199a:	0f 85 c6 01 00 00    	jne    1b66 <_vsnprintf+0x856>
    19a0:	f7 c6 40 00 00 00    	test   $0x40,%esi
    19a6:	0f 85 a3 01 00 00    	jne    1b4f <_vsnprintf+0x83f>
    19ac:	f7 c6 80 00 00 00    	test   $0x80,%esi
    19b2:	0f 84 ae 01 00 00    	je     1b66 <_vsnprintf+0x856>
    19b8:	0f bf 00             	movswl (%eax),%eax
    19bb:	89 c2                	mov    %eax,%edx
    19bd:	83 ec 04             	sub    $0x4,%esp
    19c0:	c1 ea 1f             	shr    $0x1f,%edx
    19c3:	56                   	push   %esi
    19c4:	ff 75 d4             	push   -0x2c(%ebp)
    19c7:	ff 75 d8             	push   -0x28(%ebp)
    19ca:	51                   	push   %ecx
    19cb:	52                   	push   %edx
    19cc:	89 c2                	mov    %eax,%edx
    19ce:	f7 da                	neg    %edx
    19d0:	0f 49 c2             	cmovns %edx,%eax
    19d3:	e9 e8 fe ff ff       	jmp    18c0 <_vsnprintf+0x5b0>
    19d8:	89 c2                	mov    %eax,%edx
    19da:	83 e2 df             	and    $0xffffffdf,%edx
    19dd:	80 fa 58             	cmp    $0x58,%dl
    19e0:	0f 85 50 fe ff ff    	jne    1836 <_vsnprintf+0x526>
    19e6:	3c 58                	cmp    $0x58,%al
    19e8:	0f 85 0a 02 00 00    	jne    1bf8 <_vsnprintf+0x8e8>
    19ee:	83 ce 20             	or     $0x20,%esi
    19f1:	b9 10 00 00 00       	mov    $0x10,%ecx
    19f6:	83 e6 f3             	and    $0xfffffff3,%esi
    19f9:	e9 54 fe ff ff       	jmp    1852 <_vsnprintf+0x542>
    19fe:	0f be 43 02          	movsbl 0x2(%ebx),%eax
    1a02:	81 ce c0 00 00 00    	or     $0xc0,%esi
    1a08:	8d 53 03             	lea    0x3(%ebx),%edx
    1a0b:	e9 cd f9 ff ff       	jmp    13dd <_vsnprintf+0xcd>
    1a10:	0f be 43 02          	movsbl 0x2(%ebx),%eax
    1a14:	81 ce 00 03 00 00    	or     $0x300,%esi
    1a1a:	8d 53 03             	lea    0x3(%ebx),%edx
    1a1d:	e9 bb f9 ff ff       	jmp    13dd <_vsnprintf+0xcd>
    1a22:	2b 4d cc             	sub    -0x34(%ebp),%ecx
    1a25:	88 45 c7             	mov    %al,-0x39(%ebp)
    1a28:	89 4d c8             	mov    %ecx,-0x38(%ebp)
    1a2b:	e9 59 fd ff ff       	jmp    1789 <_vsnprintf+0x479>
    1a30:	89 f9                	mov    %edi,%ecx
    1a32:	31 db                	xor    %ebx,%ebx
    1a34:	e9 ab fa ff ff       	jmp    14e4 <_vsnprintf+0x1d4>
    1a39:	8b 5d 08             	mov    0x8(%ebp),%ebx
    1a3c:	89 fe                	mov    %edi,%esi
    1a3e:	e9 c5 fd ff ff       	jmp    1808 <_vsnprintf+0x4f8>
    1a43:	8b 45 d4             	mov    -0x2c(%ebp),%eax
    1a46:	83 f8 01             	cmp    $0x1,%eax
    1a49:	0f 86 e3 01 00 00    	jbe    1c32 <_vsnprintf+0x922>
    1a4f:	89 5d 08             	mov    %ebx,0x8(%ebp)
    1a52:	8d 74 07 ff          	lea    -0x1(%edi,%eax,1),%esi
    1a56:	89 fb                	mov    %edi,%ebx
    1a58:	8b 7d dc             	mov    -0x24(%ebp),%edi
    1a5b:	8d 74 26 00          	lea    0x0(%esi,%eiz,1),%esi
    1a5f:	90                   	nop
    1a60:	89 da                	mov    %ebx,%edx
    1a62:	57                   	push   %edi
    1a63:	83 c3 01             	add    $0x1,%ebx
    1a66:	8b 45 e4             	mov    -0x1c(%ebp),%eax
    1a69:	52                   	push   %edx
    1a6a:	ff 75 e0             	push   -0x20(%ebp)
    1a6d:	6a 20                	push   $0x20
    1a6f:	ff d0                	call   *%eax
    1a71:	83 c4 10             	add    $0x10,%esp
    1a74:	39 f3                	cmp    %esi,%ebx
    1a76:	75 e8                	jne    1a60 <_vsnprintf+0x750>
    1a78:	8b 5d 08             	mov    0x8(%ebp),%ebx
    1a7b:	8b 45 0c             	mov    0xc(%ebp),%eax
    1a7e:	ff 75 dc             	push   -0x24(%ebp)
    1a81:	8d 7e 01             	lea    0x1(%esi),%edi
    1a84:	56                   	push   %esi
    1a85:	0f be 00             	movsbl (%eax),%eax
    1a88:	ff 75 e0             	push   -0x20(%ebp)
    1a8b:	50                   	push   %eax
    1a8c:	8b 45 e4             	mov    -0x1c(%ebp),%eax
    1a8f:	ff d0                	call   *%eax
    1a91:	83 c4 10             	add    $0x10,%esp
    1a94:	e9 64 fc ff ff       	jmp    16fd <_vsnprintf+0x3ed>
    1a99:	89 f7                	mov    %esi,%edi
    1a9b:	8b 45 d4             	mov    -0x2c(%ebp),%eax
    1a9e:	8b 55 c8             	mov    -0x38(%ebp),%edx
    1aa1:	39 d0                	cmp    %edx,%eax
    1aa3:	0f 86 95 00 00 00    	jbe    1b3e <_vsnprintf+0x82e>
    1aa9:	01 f8                	add    %edi,%eax
    1aab:	89 5d 08             	mov    %ebx,0x8(%ebp)
    1aae:	89 fb                	mov    %edi,%ebx
    1ab0:	8b 7d dc             	mov    -0x24(%ebp),%edi
    1ab3:	89 c6                	mov    %eax,%esi
    1ab5:	29 d6                	sub    %edx,%esi
    1ab7:	8d b4 26 00 00 00 00 	lea    0x0(%esi,%eiz,1),%esi
    1abe:	66 90                	xchg   %ax,%ax
    1ac0:	89 da                	mov    %ebx,%edx
    1ac2:	57                   	push   %edi
    1ac3:	83 c3 01             	add    $0x1,%ebx
    1ac6:	8b 45 e4             	mov    -0x1c(%ebp),%eax
    1ac9:	52                   	push   %edx
    1aca:	ff 75 e0             	push   -0x20(%ebp)
    1acd:	6a 20                	push   $0x20
    1acf:	ff d0                	call   *%eax
    1ad1:	83 c4 10             	add    $0x10,%esp
    1ad4:	39 f3                	cmp    %esi,%ebx
    1ad6:	75 e8                	jne    1ac0 <_vsnprintf+0x7b0>
    1ad8:	8b 5d 08             	mov    0x8(%ebp),%ebx
    1adb:	e9 33 fd ff ff       	jmp    1813 <_vsnprintf+0x503>
    1ae0:	8b 75 d4             	mov    -0x2c(%ebp),%esi
    1ae3:	8d 42 01             	lea    0x1(%edx),%eax
    1ae6:	39 d6                	cmp    %edx,%esi
    1ae8:	0f 86 3c 01 00 00    	jbe    1c2a <_vsnprintf+0x91a>
    1aee:	8d 04 3e             	lea    (%esi,%edi,1),%eax
    1af1:	89 5d 08             	mov    %ebx,0x8(%ebp)
    1af4:	89 fb                	mov    %edi,%ebx
    1af6:	8b 7d dc             	mov    -0x24(%ebp),%edi
    1af9:	29 d0                	sub    %edx,%eax
    1afb:	89 c6                	mov    %eax,%esi
    1afd:	8d 76 00             	lea    0x0(%esi),%esi
    1b00:	89 da                	mov    %ebx,%edx
    1b02:	57                   	push   %edi
    1b03:	83 c3 01             	add    $0x1,%ebx
    1b06:	8b 45 e4             	mov    -0x1c(%ebp),%eax
    1b09:	52                   	push   %edx
    1b0a:	ff 75 e0             	push   -0x20(%ebp)
    1b0d:	6a 20                	push   $0x20
    1b0f:	ff d0                	call   *%eax
    1b11:	83 c4 10             	add    $0x10,%esp
    1b14:	39 f3                	cmp    %esi,%ebx
    1b16:	75 e8                	jne    1b00 <_vsnprintf+0x7f0>
    1b18:	8b 45 d4             	mov    -0x2c(%ebp),%eax
    1b1b:	89 df                	mov    %ebx,%edi
    1b1d:	8b 5d 08             	mov    0x8(%ebp),%ebx
    1b20:	83 c0 01             	add    $0x1,%eax
    1b23:	89 45 c8             	mov    %eax,-0x38(%ebp)
    1b26:	8b 45 cc             	mov    -0x34(%ebp),%eax
    1b29:	0f b6 00             	movzbl (%eax),%eax
    1b2c:	88 45 c6             	mov    %al,-0x3a(%ebp)
    1b2f:	0f b6 45 c6          	movzbl -0x3a(%ebp),%eax
    1b33:	88 45 c7             	mov    %al,-0x39(%ebp)
    1b36:	84 c0                	test   %al,%al
    1b38:	0f 85 7c fc ff ff    	jne    17ba <_vsnprintf+0x4aa>
    1b3e:	89 fe                	mov    %edi,%esi
    1b40:	e9 ce fc ff ff       	jmp    1813 <_vsnprintf+0x503>
    1b45:	b9 08 00 00 00       	mov    $0x8,%ecx
    1b4a:	e9 a7 fe ff ff       	jmp    19f6 <_vsnprintf+0x6e6>
    1b4f:	0f be 00             	movsbl (%eax),%eax
    1b52:	e9 64 fe ff ff       	jmp    19bb <_vsnprintf+0x6ab>
    1b57:	0f b6 00             	movzbl (%eax),%eax
    1b5a:	e9 54 fd ff ff       	jmp    18b3 <_vsnprintf+0x5a3>
    1b5f:	89 f7                	mov    %esi,%edi
    1b61:	e9 97 fb ff ff       	jmp    16fd <_vsnprintf+0x3ed>
    1b66:	8b 00                	mov    (%eax),%eax
    1b68:	e9 4e fe ff ff       	jmp    19bb <_vsnprintf+0x6ab>
    1b6d:	8b 55 0c             	mov    0xc(%ebp),%edx
    1b70:	83 c0 08             	add    $0x8,%eax
    1b73:	83 ec 0c             	sub    $0xc,%esp
    1b76:	89 45 d0             	mov    %eax,-0x30(%ebp)
    1b79:	8b 02                	mov    (%edx),%eax
    1b7b:	89 45 cc             	mov    %eax,-0x34(%ebp)
    1b7e:	8b 42 04             	mov    0x4(%edx),%eax
    1b81:	31 d2                	xor    %edx,%edx
    1b83:	56                   	push   %esi
    1b84:	89 45 c8             	mov    %eax,-0x38(%ebp)
    1b87:	8b 75 c8             	mov    -0x38(%ebp),%esi
    1b8a:	ff 75 d4             	push   -0x2c(%ebp)
    1b8d:	ff 75 d8             	push   -0x28(%ebp)
    1b90:	89 f0                	mov    %esi,%eax
    1b92:	52                   	push   %edx
    1b93:	c1 e8 1f             	shr    $0x1f,%eax
    1b96:	51                   	push   %ecx
    1b97:	8b 4d cc             	mov    -0x34(%ebp),%ecx
    1b9a:	50                   	push   %eax
    1b9b:	89 f0                	mov    %esi,%eax
    1b9d:	89 ca                	mov    %ecx,%edx
    1b9f:	f7 da                	neg    %edx
    1ba1:	83 d0 00             	adc    $0x0,%eax
    1ba4:	f7 d8                	neg    %eax
    1ba6:	0f 48 d1             	cmovs  %ecx,%edx
    1ba9:	0f 48 c6             	cmovs  %esi,%eax
    1bac:	89 55 b0             	mov    %edx,-0x50(%ebp)
    1baf:	89 45 b4             	mov    %eax,-0x4c(%ebp)
    1bb2:	ff 75 b4             	push   -0x4c(%ebp)
    1bb5:	ff 75 b0             	push   -0x50(%ebp)
    1bb8:	8b 55 e0             	mov    -0x20(%ebp),%edx
    1bbb:	ff 75 dc             	push   -0x24(%ebp)
    1bbe:	89 f9                	mov    %edi,%ecx
    1bc0:	8b 45 e4             	mov    -0x1c(%ebp),%eax
    1bc3:	e8 78 ed ff ff       	call   940 <_ntoa_long_long>
    1bc8:	83 c4 30             	add    $0x30,%esp
    1bcb:	89 c7                	mov    %eax,%edi
    1bcd:	8b 45 d0             	mov    -0x30(%ebp),%eax
    1bd0:	89 45 0c             	mov    %eax,0xc(%ebp)
    1bd3:	e9 7d f7 ff ff       	jmp    1355 <_vsnprintf+0x45>
    1bd8:	83 ec 0c             	sub    $0xc,%esp
    1bdb:	83 c0 08             	add    $0x8,%eax
    1bde:	31 d2                	xor    %edx,%edx
    1be0:	56                   	push   %esi
    1be1:	8b 75 0c             	mov    0xc(%ebp),%esi
    1be4:	ff 75 d4             	push   -0x2c(%ebp)
    1be7:	89 45 d0             	mov    %eax,-0x30(%ebp)
    1bea:	ff 75 d8             	push   -0x28(%ebp)
    1bed:	52                   	push   %edx
    1bee:	51                   	push   %ecx
    1bef:	6a 00                	push   $0x0
    1bf1:	ff 76 04             	push   0x4(%esi)
    1bf4:	ff 36                	push   (%esi)
    1bf6:	eb c0                	jmp    1bb8 <_vsnprintf+0x8a8>
    1bf8:	b9 10 00 00 00       	mov    $0x10,%ecx
    1bfd:	e9 44 fc ff ff       	jmp    1846 <_vsnprintf+0x536>
    1c02:	b9 02 00 00 00       	mov    $0x2,%ecx
    1c07:	e9 ea fd ff ff       	jmp    19f6 <_vsnprintf+0x6e6>
    1c0c:	8b 45 0c             	mov    0xc(%ebp),%eax
    1c0f:	83 ec 04             	sub    $0x4,%esp
    1c12:	56                   	push   %esi
    1c13:	ff 75 d4             	push   -0x2c(%ebp)
    1c16:	ff 75 d8             	push   -0x28(%ebp)
    1c19:	51                   	push   %ecx
    1c1a:	6a 00                	push   $0x0
    1c1c:	ff 30                	push   (%eax)
    1c1e:	e9 9e fc ff ff       	jmp    18c1 <_vsnprintf+0x5b1>
    1c23:	8b 00                	mov    (%eax),%eax
    1c25:	e9 89 fc ff ff       	jmp    18b3 <_vsnprintf+0x5a3>
    1c2a:	89 45 c8             	mov    %eax,-0x38(%ebp)
    1c2d:	e9 fd fe ff ff       	jmp    1b2f <_vsnprintf+0x81f>
    1c32:	89 fe                	mov    %edi,%esi
    1c34:	e9 42 fe ff ff       	jmp    1a7b <_vsnprintf+0x76b>
    1c39:	8d b4 26 00 00 00 00 	lea    0x0(%esi,%eiz,1),%esi

00001c40 <printf_>:
    1c40:	55                   	push   %ebp
    1c41:	b9 ff ff ff ff       	mov    $0xffffffff,%ecx
    1c46:	89 e5                	mov    %esp,%ebp
    1c48:	83 ec 20             	sub    $0x20,%esp
    1c4b:	8d 45 0c             	lea    0xc(%ebp),%eax
    1c4e:	8d 55 f7             	lea    -0x9(%ebp),%edx
    1c51:	50                   	push   %eax
    1c52:	b8 c0 12 00 00       	mov    $0x12c0,%eax
			1c53: R_386_32	.text
    1c57:	ff 75 08             	push   0x8(%ebp)
    1c5a:	e8 b1 f6 ff ff       	call   1310 <_vsnprintf>
    1c5f:	c9                   	leave  
    1c60:	c3                   	ret    
    1c61:	8d b4 26 00 00 00 00 	lea    0x0(%esi,%eiz,1),%esi
    1c68:	8d b4 26 00 00 00 00 	lea    0x0(%esi,%eiz,1),%esi
    1c6f:	90                   	nop

00001c70 <sprintf_>:
    1c70:	55                   	push   %ebp
    1c71:	b9 ff ff ff ff       	mov    $0xffffffff,%ecx
    1c76:	89 e5                	mov    %esp,%ebp
    1c78:	83 ec 10             	sub    $0x10,%esp
    1c7b:	8d 45 10             	lea    0x10(%ebp),%eax
    1c7e:	8b 55 08             	mov    0x8(%ebp),%edx
    1c81:	50                   	push   %eax
    1c82:	b8 d0 04 00 00       	mov    $0x4d0,%eax
			1c83: R_386_32	.text
    1c87:	ff 75 0c             	push   0xc(%ebp)
    1c8a:	e8 81 f6 ff ff       	call   1310 <_vsnprintf>
    1c8f:	c9                   	leave  
    1c90:	c3                   	ret    
    1c91:	8d b4 26 00 00 00 00 	lea    0x0(%esi,%eiz,1),%esi
    1c98:	8d b4 26 00 00 00 00 	lea    0x0(%esi,%eiz,1),%esi
    1c9f:	90                   	nop

00001ca0 <snprintf_>:
    1ca0:	55                   	push   %ebp
    1ca1:	89 e5                	mov    %esp,%ebp
    1ca3:	83 ec 10             	sub    $0x10,%esp
    1ca6:	8d 45 14             	lea    0x14(%ebp),%eax
    1ca9:	8b 4d 0c             	mov    0xc(%ebp),%ecx
    1cac:	8b 55 08             	mov    0x8(%ebp),%edx
    1caf:	50                   	push   %eax
    1cb0:	b8 d0 04 00 00       	mov    $0x4d0,%eax
			1cb1: R_386_32	.text
    1cb5:	ff 75 10             	push   0x10(%ebp)
    1cb8:	e8 53 f6 ff ff       	call   1310 <_vsnprintf>
    1cbd:	c9                   	leave  
    1cbe:	c3                   	ret    
    1cbf:	90                   	nop

00001cc0 <vprintf_>:
    1cc0:	55                   	push   %ebp
    1cc1:	b9 ff ff ff ff       	mov    $0xffffffff,%ecx
    1cc6:	b8 c0 12 00 00       	mov    $0x12c0,%eax
			1cc7: R_386_32	.text
    1ccb:	89 e5                	mov    %esp,%ebp
    1ccd:	83 ec 20             	sub    $0x20,%esp
    1cd0:	ff 75 0c             	push   0xc(%ebp)
    1cd3:	8d 55 f7             	lea    -0x9(%ebp),%edx
    1cd6:	ff 75 08             	push   0x8(%ebp)
    1cd9:	e8 32 f6 ff ff       	call   1310 <_vsnprintf>
    1cde:	c9                   	leave  
    1cdf:	c3                   	ret    

00001ce0 <vsnprintf_>:
    1ce0:	55                   	push   %ebp
    1ce1:	89 e5                	mov    %esp,%ebp
    1ce3:	8b 45 14             	mov    0x14(%ebp),%eax
    1ce6:	8b 4d 0c             	mov    0xc(%ebp),%ecx
    1ce9:	8b 55 08             	mov    0x8(%ebp),%edx
    1cec:	89 45 0c             	mov    %eax,0xc(%ebp)
    1cef:	8b 45 10             	mov    0x10(%ebp),%eax
    1cf2:	89 45 08             	mov    %eax,0x8(%ebp)
    1cf5:	b8 d0 04 00 00       	mov    $0x4d0,%eax
			1cf6: R_386_32	.text
    1cfa:	5d                   	pop    %ebp
    1cfb:	e9 10 f6 ff ff       	jmp    1310 <_vsnprintf>

00001d00 <fctprintf>:
    1d00:	55                   	push   %ebp
    1d01:	b9 ff ff ff ff       	mov    $0xffffffff,%ecx
    1d06:	89 e5                	mov    %esp,%ebp
    1d08:	83 ec 20             	sub    $0x20,%esp
    1d0b:	8b 55 08             	mov    0x8(%ebp),%edx
    1d0e:	8d 45 14             	lea    0x14(%ebp),%eax
    1d11:	50                   	push   %eax
    1d12:	b8 e0 12 00 00       	mov    $0x12e0,%eax
			1d13: R_386_32	.text
    1d17:	89 55 f0             	mov    %edx,-0x10(%ebp)
    1d1a:	8b 55 0c             	mov    0xc(%ebp),%edx
    1d1d:	ff 75 10             	push   0x10(%ebp)
    1d20:	89 55 f4             	mov    %edx,-0xc(%ebp)
    1d23:	8d 55 f0             	lea    -0x10(%ebp),%edx
    1d26:	e8 e5 f5 ff ff       	call   1310 <_vsnprintf>
    1d2b:	c9                   	leave  
    1d2c:	c3                   	ret    
    1d2d:	8d 76 00             	lea    0x0(%esi),%esi

00001d30 <_putchar>:
    1d30:	55                   	push   %ebp
    1d31:	89 e5                	mov    %esp,%ebp
    1d33:	0f be 45 08          	movsbl 0x8(%ebp),%eax
    1d37:	89 45 08             	mov    %eax,0x8(%ebp)
    1d3a:	5d                   	pop    %ebp
    1d3b:	e9 fc ff ff ff       	jmp    1d3c <_putchar+0xc>
			1d3c: R_386_PC32	term_put_char

00001d40 <malloc>:
    1d40:	e9 fc ff ff ff       	jmp    1d41 <malloc+0x1>
			1d41: R_386_PC32	kmalloc
    1d45:	8d b4 26 00 00 00 00 	lea    0x0(%esi,%eiz,1),%esi
    1d4c:	8d 74 26 00          	lea    0x0(%esi,%eiz,1),%esi

00001d50 <free>:
    1d50:	e9 fc ff ff ff       	jmp    1d51 <free+0x1>
			1d51: R_386_PC32	kfree
    1d55:	66 90                	xchg   %ax,%ax
    1d57:	66 90                	xchg   %ax,%ax
    1d59:	66 90                	xchg   %ax,%ax
    1d5b:	66 90                	xchg   %ax,%ax
    1d5d:	66 90                	xchg   %ax,%ax
    1d5f:	90                   	nop

00001d60 <asprintf>:
    1d60:	55                   	push   %ebp
    1d61:	89 e5                	mov    %esp,%ebp
    1d63:	83 ec 0c             	sub    $0xc,%esp
    1d66:	8d 45 10             	lea    0x10(%ebp),%eax
    1d69:	50                   	push   %eax
    1d6a:	ff 75 0c             	push   0xc(%ebp)
    1d6d:	ff 75 08             	push   0x8(%ebp)
    1d70:	e8 fc ff ff ff       	call   1d71 <asprintf+0x11>
			1d71: R_386_PC32	vasprintf
    1d75:	c9                   	leave  
    1d76:	c3                   	ret    
    1d77:	66 90                	xchg   %ax,%ax
    1d79:	66 90                	xchg   %ax,%ax
    1d7b:	66 90                	xchg   %ax,%ax
    1d7d:	66 90                	xchg   %ax,%ax
    1d7f:	90                   	nop

00001d80 <putchar>:
    1d80:	55                   	push   %ebp
    1d81:	89 e5                	mov    %esp,%ebp
    1d83:	53                   	push   %ebx
    1d84:	83 ec 10             	sub    $0x10,%esp
    1d87:	8b 5d 08             	mov    0x8(%ebp),%ebx
    1d8a:	0f be c3             	movsbl %bl,%eax
    1d8d:	50                   	push   %eax
    1d8e:	e8 fc ff ff ff       	call   1d8f <putchar+0xf>
			1d8f: R_386_PC32	_putchar
    1d93:	89 d8                	mov    %ebx,%eax
    1d95:	8b 5d fc             	mov    -0x4(%ebp),%ebx
    1d98:	c9                   	leave  
    1d99:	c3                   	ret    
    1d9a:	66 90                	xchg   %ax,%ax
    1d9c:	66 90                	xchg   %ax,%ax
    1d9e:	66 90                	xchg   %ax,%ax

00001da0 <puts>:
    1da0:	55                   	push   %ebp
    1da1:	89 e5                	mov    %esp,%ebp
    1da3:	57                   	push   %edi
    1da4:	56                   	push   %esi
    1da5:	53                   	push   %ebx
    1da6:	83 ec 0c             	sub    $0xc,%esp
    1da9:	8b 5d 08             	mov    0x8(%ebp),%ebx
    1dac:	0f be 03             	movsbl (%ebx),%eax
    1daf:	84 c0                	test   %al,%al
    1db1:	74 4d                	je     1e00 <puts+0x60>
    1db3:	31 f6                	xor    %esi,%esi
    1db5:	8d b4 26 00 00 00 00 	lea    0x0(%esi,%eiz,1),%esi
    1dbc:	8d 74 26 00          	lea    0x0(%esi,%eiz,1),%esi
    1dc0:	83 ec 0c             	sub    $0xc,%esp
    1dc3:	89 f7                	mov    %esi,%edi
    1dc5:	83 c6 01             	add    $0x1,%esi
    1dc8:	50                   	push   %eax
    1dc9:	e8 fc ff ff ff       	call   1dca <puts+0x2a>
			1dca: R_386_PC32	putchar
    1dce:	0f be 04 33          	movsbl (%ebx,%esi,1),%eax
    1dd2:	83 c4 10             	add    $0x10,%esp
    1dd5:	84 c0                	test   %al,%al
    1dd7:	75 e7                	jne    1dc0 <puts+0x20>
    1dd9:	83 ec 0c             	sub    $0xc,%esp
    1ddc:	6a 0a                	push   $0xa
    1dde:	e8 fc ff ff ff       	call   1ddf <puts+0x3f>
			1ddf: R_386_PC32	putchar
    1de3:	83 c4 10             	add    $0x10,%esp
    1de6:	8d 65 f4             	lea    -0xc(%ebp),%esp
    1de9:	8d 47 02             	lea    0x2(%edi),%eax
    1dec:	5b                   	pop    %ebx
    1ded:	5e                   	pop    %esi
    1dee:	5f                   	pop    %edi
    1def:	5d                   	pop    %ebp
    1df0:	c3                   	ret    
    1df1:	8d b4 26 00 00 00 00 	lea    0x0(%esi,%eiz,1),%esi
    1df8:	8d b4 26 00 00 00 00 	lea    0x0(%esi,%eiz,1),%esi
    1dff:	90                   	nop
    1e00:	8d 65 f4             	lea    -0xc(%ebp),%esp
    1e03:	b8 ff ff ff ff       	mov    $0xffffffff,%eax
    1e08:	5b                   	pop    %ebx
    1e09:	5e                   	pop    %esi
    1e0a:	5f                   	pop    %edi
    1e0b:	5d                   	pop    %ebp
    1e0c:	c3                   	ret    
    1e0d:	66 90                	xchg   %ax,%ax
    1e0f:	90                   	nop

00001e10 <vasprintf>:
    1e10:	55                   	push   %ebp
    1e11:	89 e5                	mov    %esp,%ebp
    1e13:	57                   	push   %edi
    1e14:	56                   	push   %esi
    1e15:	53                   	push   %ebx
    1e16:	83 ec 0c             	sub    $0xc,%esp
    1e19:	8b 5d 0c             	mov    0xc(%ebp),%ebx
    1e1c:	8b 75 10             	mov    0x10(%ebp),%esi
    1e1f:	56                   	push   %esi
    1e20:	53                   	push   %ebx
    1e21:	6a 00                	push   $0x0
    1e23:	6a 00                	push   $0x0
    1e25:	e8 fc ff ff ff       	call   1e26 <vasprintf+0x16>
			1e26: R_386_PC32	vsnprintf_
    1e2a:	83 c4 10             	add    $0x10,%esp
    1e2d:	85 c0                	test   %eax,%eax
    1e2f:	78 2f                	js     1e60 <vasprintf+0x50>
    1e31:	83 ec 0c             	sub    $0xc,%esp
    1e34:	8d 78 01             	lea    0x1(%eax),%edi
    1e37:	57                   	push   %edi
    1e38:	e8 fc ff ff ff       	call   1e39 <vasprintf+0x29>
			1e39: R_386_PC32	malloc
    1e3d:	8b 55 08             	mov    0x8(%ebp),%edx
    1e40:	83 c4 10             	add    $0x10,%esp
    1e43:	89 02                	mov    %eax,(%edx)
    1e45:	85 c0                	test   %eax,%eax
    1e47:	74 17                	je     1e60 <vasprintf+0x50>
    1e49:	56                   	push   %esi
    1e4a:	53                   	push   %ebx
    1e4b:	57                   	push   %edi
    1e4c:	50                   	push   %eax
    1e4d:	e8 fc ff ff ff       	call   1e4e <vasprintf+0x3e>
			1e4e: R_386_PC32	vsnprintf_
    1e52:	83 c4 10             	add    $0x10,%esp
    1e55:	8d 65 f4             	lea    -0xc(%ebp),%esp
    1e58:	5b                   	pop    %ebx
    1e59:	5e                   	pop    %esi
    1e5a:	5f                   	pop    %edi
    1e5b:	5d                   	pop    %ebp
    1e5c:	c3                   	ret    
    1e5d:	8d 76 00             	lea    0x0(%esi),%esi
    1e60:	b8 ff ff ff ff       	mov    $0xffffffff,%eax
    1e65:	eb ee                	jmp    1e55 <vasprintf+0x45>
    1e67:	66 90                	xchg   %ax,%ax
    1e69:	66 90                	xchg   %ax,%ax
    1e6b:	66 90                	xchg   %ax,%ax
    1e6d:	66 90                	xchg   %ax,%ax
    1e6f:	90                   	nop

00001e70 <abs>:
    1e70:	55                   	push   %ebp
    1e71:	89 e5                	mov    %esp,%ebp
    1e73:	8b 55 08             	mov    0x8(%ebp),%edx
    1e76:	5d                   	pop    %ebp
    1e77:	89 d0                	mov    %edx,%eax
    1e79:	f7 d8                	neg    %eax
    1e7b:	0f 48 c2             	cmovs  %edx,%eax
    1e7e:	c3                   	ret    
    1e7f:	90                   	nop

00001e80 <atoi>:
    1e80:	55                   	push   %ebp
    1e81:	89 e5                	mov    %esp,%ebp
    1e83:	57                   	push   %edi
    1e84:	56                   	push   %esi
    1e85:	53                   	push   %ebx
    1e86:	31 db                	xor    %ebx,%ebx
    1e88:	83 ec 0c             	sub    $0xc,%esp
    1e8b:	8b 75 08             	mov    0x8(%ebp),%esi
    1e8e:	0f be 06             	movsbl (%esi),%eax
    1e91:	3c 2b                	cmp    $0x2b,%al
    1e93:	74 09                	je     1e9e <atoi+0x1e>
    1e95:	3c 2d                	cmp    $0x2d,%al
    1e97:	75 0c                	jne    1ea5 <atoi+0x25>
    1e99:	bb 01 00 00 00       	mov    $0x1,%ebx
    1e9e:	0f be 46 01          	movsbl 0x1(%esi),%eax
    1ea2:	83 c6 01             	add    $0x1,%esi
    1ea5:	31 ff                	xor    %edi,%edi
    1ea7:	eb 17                	jmp    1ec0 <atoi+0x40>
    1ea9:	8d b4 26 00 00 00 00 	lea    0x0(%esi,%eiz,1),%esi
    1eb0:	0f be 06             	movsbl (%esi),%eax
    1eb3:	8d 14 bf             	lea    (%edi,%edi,4),%edx
    1eb6:	83 c6 01             	add    $0x1,%esi
    1eb9:	8d 7c 50 d0          	lea    -0x30(%eax,%edx,2),%edi
    1ebd:	0f be 06             	movsbl (%esi),%eax
    1ec0:	83 ec 0c             	sub    $0xc,%esp
    1ec3:	50                   	push   %eax
    1ec4:	e8 fc ff ff ff       	call   1ec5 <atoi+0x45>
			1ec5: R_386_PC32	isdigit
    1ec9:	83 c4 10             	add    $0x10,%esp
    1ecc:	85 c0                	test   %eax,%eax
    1ece:	75 e0                	jne    1eb0 <atoi+0x30>
    1ed0:	89 f8                	mov    %edi,%eax
    1ed2:	f7 d8                	neg    %eax
    1ed4:	84 db                	test   %bl,%bl
    1ed6:	0f 45 f8             	cmovne %eax,%edi
    1ed9:	8d 65 f4             	lea    -0xc(%ebp),%esp
    1edc:	5b                   	pop    %ebx
    1edd:	5e                   	pop    %esi
    1ede:	89 f8                	mov    %edi,%eax
    1ee0:	5f                   	pop    %edi
    1ee1:	5d                   	pop    %ebp
    1ee2:	c3                   	ret    
    1ee3:	66 90                	xchg   %ax,%ax
    1ee5:	66 90                	xchg   %ax,%ax
    1ee7:	66 90                	xchg   %ax,%ax
    1ee9:	66 90                	xchg   %ax,%ax
    1eeb:	66 90                	xchg   %ax,%ax
    1eed:	66 90                	xchg   %ax,%ax
    1eef:	90                   	nop

00001ef0 <atol>:
    1ef0:	55                   	push   %ebp
    1ef1:	89 e5                	mov    %esp,%ebp
    1ef3:	57                   	push   %edi
    1ef4:	56                   	push   %esi
    1ef5:	53                   	push   %ebx
    1ef6:	83 ec 0c             	sub    $0xc,%esp
    1ef9:	8b 75 08             	mov    0x8(%ebp),%esi
    1efc:	eb 05                	jmp    1f03 <atol+0x13>
    1efe:	66 90                	xchg   %ax,%ax
    1f00:	83 c6 01             	add    $0x1,%esi
    1f03:	0f be 06             	movsbl (%esi),%eax
    1f06:	83 ec 0c             	sub    $0xc,%esp
    1f09:	50                   	push   %eax
    1f0a:	e8 fc ff ff ff       	call   1f0b <atol+0x1b>
			1f0b: R_386_PC32	isspace
    1f0f:	83 c4 10             	add    $0x10,%esp
    1f12:	89 c3                	mov    %eax,%ebx
    1f14:	85 c0                	test   %eax,%eax
    1f16:	75 e8                	jne    1f00 <atol+0x10>
    1f18:	0f be 06             	movsbl (%esi),%eax
    1f1b:	31 ff                	xor    %edi,%edi
    1f1d:	3c 2b                	cmp    $0x2b,%al
    1f1f:	74 09                	je     1f2a <atol+0x3a>
    1f21:	3c 2d                	cmp    $0x2d,%al
    1f23:	75 2b                	jne    1f50 <atol+0x60>
    1f25:	bf 01 00 00 00       	mov    $0x1,%edi
    1f2a:	0f be 46 01          	movsbl 0x1(%esi),%eax
    1f2e:	83 c6 01             	add    $0x1,%esi
    1f31:	eb 1d                	jmp    1f50 <atol+0x60>
    1f33:	8d b4 26 00 00 00 00 	lea    0x0(%esi,%eiz,1),%esi
    1f3a:	8d b6 00 00 00 00    	lea    0x0(%esi),%esi
    1f40:	0f be 06             	movsbl (%esi),%eax
    1f43:	8d 14 9b             	lea    (%ebx,%ebx,4),%edx
    1f46:	83 c6 01             	add    $0x1,%esi
    1f49:	8d 5c 50 d0          	lea    -0x30(%eax,%edx,2),%ebx
    1f4d:	0f be 06             	movsbl (%esi),%eax
    1f50:	83 ec 0c             	sub    $0xc,%esp
    1f53:	50                   	push   %eax
    1f54:	e8 fc ff ff ff       	call   1f55 <atol+0x65>
			1f55: R_386_PC32	isdigit
    1f59:	83 c4 10             	add    $0x10,%esp
    1f5c:	85 c0                	test   %eax,%eax
    1f5e:	75 e0                	jne    1f40 <atol+0x50>
    1f60:	89 d8                	mov    %ebx,%eax
    1f62:	89 f9                	mov    %edi,%ecx
    1f64:	f7 d8                	neg    %eax
    1f66:	84 c9                	test   %cl,%cl
    1f68:	0f 45 d8             	cmovne %eax,%ebx
    1f6b:	8d 65 f4             	lea    -0xc(%ebp),%esp
    1f6e:	89 d8                	mov    %ebx,%eax
    1f70:	5b                   	pop    %ebx
    1f71:	5e                   	pop    %esi
    1f72:	5f                   	pop    %edi
    1f73:	5d                   	pop    %ebp
    1f74:	c3                   	ret    
    1f75:	66 90                	xchg   %ax,%ax
    1f77:	66 90                	xchg   %ax,%ax
    1f79:	66 90                	xchg   %ax,%ax
    1f7b:	66 90                	xchg   %ax,%ax
    1f7d:	66 90                	xchg   %ax,%ax
    1f7f:	90                   	nop

00001f80 <atoll>:
    1f80:	55                   	push   %ebp
    1f81:	89 e5                	mov    %esp,%ebp
    1f83:	57                   	push   %edi
    1f84:	56                   	push   %esi
    1f85:	53                   	push   %ebx
    1f86:	83 ec 1c             	sub    $0x1c,%esp
    1f89:	8b 5d 08             	mov    0x8(%ebp),%ebx
    1f8c:	eb 05                	jmp    1f93 <atoll+0x13>
    1f8e:	66 90                	xchg   %ax,%ax
    1f90:	83 c3 01             	add    $0x1,%ebx
    1f93:	0f be 03             	movsbl (%ebx),%eax
    1f96:	83 ec 0c             	sub    $0xc,%esp
    1f99:	50                   	push   %eax
    1f9a:	e8 fc ff ff ff       	call   1f9b <atoll+0x1b>
			1f9b: R_386_PC32	isspace
    1f9f:	83 c4 10             	add    $0x10,%esp
    1fa2:	85 c0                	test   %eax,%eax
    1fa4:	75 ea                	jne    1f90 <atoll+0x10>
    1fa6:	0f be 03             	movsbl (%ebx),%eax
    1fa9:	c6 45 e7 00          	movb   $0x0,-0x19(%ebp)
    1fad:	3c 2b                	cmp    $0x2b,%al
    1faf:	74 08                	je     1fb9 <atoll+0x39>
    1fb1:	3c 2d                	cmp    $0x2d,%al
    1fb3:	75 0b                	jne    1fc0 <atoll+0x40>
    1fb5:	c6 45 e7 01          	movb   $0x1,-0x19(%ebp)
    1fb9:	0f be 43 01          	movsbl 0x1(%ebx),%eax
    1fbd:	83 c3 01             	add    $0x1,%ebx
    1fc0:	31 f6                	xor    %esi,%esi
    1fc2:	31 ff                	xor    %edi,%edi
    1fc4:	eb 2c                	jmp    1ff2 <atoll+0x72>
    1fc6:	8d b4 26 00 00 00 00 	lea    0x0(%esi,%eiz,1),%esi
    1fcd:	8d 76 00             	lea    0x0(%esi),%esi
    1fd0:	83 c3 01             	add    $0x1,%ebx
    1fd3:	6b cf 0a             	imul   $0xa,%edi,%ecx
    1fd6:	b8 0a 00 00 00       	mov    $0xa,%eax
    1fdb:	f7 e6                	mul    %esi
    1fdd:	0f be 73 ff          	movsbl -0x1(%ebx),%esi
    1fe1:	83 ee 30             	sub    $0x30,%esi
    1fe4:	89 f7                	mov    %esi,%edi
    1fe6:	01 ca                	add    %ecx,%edx
    1fe8:	c1 ff 1f             	sar    $0x1f,%edi
    1feb:	01 c6                	add    %eax,%esi
    1fed:	0f be 03             	movsbl (%ebx),%eax
    1ff0:	11 d7                	adc    %edx,%edi
    1ff2:	83 ec 0c             	sub    $0xc,%esp
    1ff5:	50                   	push   %eax
    1ff6:	e8 fc ff ff ff       	call   1ff7 <atoll+0x77>
			1ff7: R_386_PC32	isdigit
    1ffb:	83 c4 10             	add    $0x10,%esp
    1ffe:	85 c0                	test   %eax,%eax
    2000:	75 ce                	jne    1fd0 <atoll+0x50>
    2002:	80 7d e7 00          	cmpb   $0x0,-0x19(%ebp)
    2006:	74 07                	je     200f <atoll+0x8f>
    2008:	f7 de                	neg    %esi
    200a:	83 d7 00             	adc    $0x0,%edi
    200d:	f7 df                	neg    %edi
    200f:	8d 65 f4             	lea    -0xc(%ebp),%esp
    2012:	89 f0                	mov    %esi,%eax
    2014:	89 fa                	mov    %edi,%edx
    2016:	5b                   	pop    %ebx
    2017:	5e                   	pop    %esi
    2018:	5f                   	pop    %edi
    2019:	5d                   	pop    %ebp
    201a:	c3                   	ret    
    201b:	66 90                	xchg   %ax,%ax
    201d:	66 90                	xchg   %ax,%ax
    201f:	90                   	nop

00002020 <bsearch>:
    2020:	55                   	push   %ebp
    2021:	89 e5                	mov    %esp,%ebp
    2023:	57                   	push   %edi
    2024:	56                   	push   %esi
    2025:	53                   	push   %ebx
    2026:	83 ec 0c             	sub    $0xc,%esp
    2029:	8b 7d 10             	mov    0x10(%ebp),%edi
    202c:	85 ff                	test   %edi,%edi
    202e:	74 33                	je     2063 <bsearch+0x43>
    2030:	8b 4d 14             	mov    0x14(%ebp),%ecx
    2033:	89 fb                	mov    %edi,%ebx
    2035:	8b 75 0c             	mov    0xc(%ebp),%esi
    2038:	83 ec 08             	sub    $0x8,%esp
    203b:	d1 eb                	shr    %ebx
    203d:	0f af cb             	imul   %ebx,%ecx
    2040:	01 ce                	add    %ecx,%esi
    2042:	56                   	push   %esi
    2043:	ff 75 08             	push   0x8(%ebp)
    2046:	ff 55 18             	call   *0x18(%ebp)
    2049:	83 c4 10             	add    $0x10,%esp
    204c:	85 c0                	test   %eax,%eax
    204e:	74 15                	je     2065 <bsearch+0x45>
    2050:	7e 1e                	jle    2070 <bsearch+0x50>
    2052:	8d 57 ff             	lea    -0x1(%edi),%edx
    2055:	03 75 14             	add    0x14(%ebp),%esi
    2058:	d1 ea                	shr    %edx
    205a:	89 75 0c             	mov    %esi,0xc(%ebp)
    205d:	89 d7                	mov    %edx,%edi
    205f:	85 ff                	test   %edi,%edi
    2061:	75 cd                	jne    2030 <bsearch+0x10>
    2063:	31 f6                	xor    %esi,%esi
    2065:	8d 65 f4             	lea    -0xc(%ebp),%esp
    2068:	89 f0                	mov    %esi,%eax
    206a:	5b                   	pop    %ebx
    206b:	5e                   	pop    %esi
    206c:	5f                   	pop    %edi
    206d:	5d                   	pop    %ebp
    206e:	c3                   	ret    
    206f:	90                   	nop
    2070:	89 df                	mov    %ebx,%edi
    2072:	eb b8                	jmp    202c <bsearch+0xc>
    2074:	66 90                	xchg   %ax,%ax
    2076:	66 90                	xchg   %ax,%ax
    2078:	66 90                	xchg   %ax,%ax
    207a:	66 90                	xchg   %ax,%ax
    207c:	66 90                	xchg   %ax,%ax
    207e:	66 90                	xchg   %ax,%ax

00002080 <calloc>:
    2080:	55                   	push   %ebp
    2081:	89 e5                	mov    %esp,%ebp
    2083:	56                   	push   %esi
    2084:	8b 4d 08             	mov    0x8(%ebp),%ecx
    2087:	53                   	push   %ebx
    2088:	8b 5d 0c             	mov    0xc(%ebp),%ebx
    208b:	89 c8                	mov    %ecx,%eax
    208d:	09 d8                	or     %ebx,%eax
    208f:	3d ff ff 00 00       	cmp    $0xffff,%eax
    2094:	76 0a                	jbe    20a0 <calloc+0x20>
    2096:	85 c9                	test   %ecx,%ecx
    2098:	74 06                	je     20a0 <calloc+0x20>
    209a:	89 d8                	mov    %ebx,%eax
    209c:	f7 e1                	mul    %ecx
    209e:	70 2d                	jo     20cd <calloc+0x4d>
    20a0:	0f af d9             	imul   %ecx,%ebx
    20a3:	83 ec 0c             	sub    $0xc,%esp
    20a6:	53                   	push   %ebx
    20a7:	e8 fc ff ff ff       	call   20a8 <calloc+0x28>
			20a8: R_386_PC32	malloc
    20ac:	83 c4 10             	add    $0x10,%esp
    20af:	89 c6                	mov    %eax,%esi
    20b1:	85 c0                	test   %eax,%eax
    20b3:	74 0f                	je     20c4 <calloc+0x44>
    20b5:	83 ec 04             	sub    $0x4,%esp
    20b8:	53                   	push   %ebx
    20b9:	6a 00                	push   $0x0
    20bb:	50                   	push   %eax
    20bc:	e8 fc ff ff ff       	call   20bd <calloc+0x3d>
			20bd: R_386_PC32	memset
    20c1:	83 c4 10             	add    $0x10,%esp
    20c4:	8d 65 f8             	lea    -0x8(%ebp),%esp
    20c7:	89 f0                	mov    %esi,%eax
    20c9:	5b                   	pop    %ebx
    20ca:	5e                   	pop    %esi
    20cb:	5d                   	pop    %ebp
    20cc:	c3                   	ret    
    20cd:	31 f6                	xor    %esi,%esi
    20cf:	eb f3                	jmp    20c4 <calloc+0x44>
    20d1:	66 90                	xchg   %ax,%ax
    20d3:	66 90                	xchg   %ax,%ax
    20d5:	66 90                	xchg   %ax,%ax
    20d7:	66 90                	xchg   %ax,%ax
    20d9:	66 90                	xchg   %ax,%ax
    20db:	66 90                	xchg   %ax,%ax
    20dd:	66 90                	xchg   %ax,%ax
    20df:	90                   	nop

000020e0 <div>:
    20e0:	55                   	push   %ebp
    20e1:	89 e5                	mov    %esp,%ebp
    20e3:	53                   	push   %ebx
    20e4:	8b 4d 0c             	mov    0xc(%ebp),%ecx
    20e7:	8b 5d 08             	mov    0x8(%ebp),%ebx
    20ea:	89 c8                	mov    %ecx,%eax
    20ec:	f7 d1                	not    %ecx
    20ee:	99                   	cltd   
    20ef:	f7 7d 10             	idivl  0x10(%ebp)
    20f2:	85 d1                	test   %edx,%ecx
    20f4:	78 1a                	js     2110 <div+0x30>
    20f6:	89 03                	mov    %eax,(%ebx)
    20f8:	89 d8                	mov    %ebx,%eax
    20fa:	89 53 04             	mov    %edx,0x4(%ebx)
    20fd:	8b 5d fc             	mov    -0x4(%ebp),%ebx
    2100:	c9                   	leave  
    2101:	c2 04 00             	ret    $0x4
    2104:	8d b4 26 00 00 00 00 	lea    0x0(%esi,%eiz,1),%esi
    210b:	8d 74 26 00          	lea    0x0(%esi,%eiz,1),%esi
    210f:	90                   	nop
    2110:	83 c0 01             	add    $0x1,%eax
    2113:	2b 55 10             	sub    0x10(%ebp),%edx
    2116:	89 03                	mov    %eax,(%ebx)
    2118:	89 d8                	mov    %ebx,%eax
    211a:	89 53 04             	mov    %edx,0x4(%ebx)
    211d:	8b 5d fc             	mov    -0x4(%ebp),%ebx
    2120:	c9                   	leave  
    2121:	c2 04 00             	ret    $0x4
    2124:	66 90                	xchg   %ax,%ax
    2126:	66 90                	xchg   %ax,%ax
    2128:	66 90                	xchg   %ax,%ax
    212a:	66 90                	xchg   %ax,%ax
    212c:	66 90                	xchg   %ax,%ax
    212e:	66 90                	xchg   %ax,%ax

00002130 <heapsort>:
    2130:	55                   	push   %ebp
    2131:	31 c0                	xor    %eax,%eax
    2133:	89 e5                	mov    %esp,%ebp
    2135:	57                   	push   %edi
    2136:	56                   	push   %esi
    2137:	53                   	push   %ebx
    2138:	83 ec 2c             	sub    $0x2c,%esp
    213b:	83 7d 0c 01          	cmpl   $0x1,0xc(%ebp)
    213f:	8b 4d 10             	mov    0x10(%ebp),%ecx
    2142:	0f 86 77 02 00 00    	jbe    23bf <heapsort+0x28f>
    2148:	85 c9                	test   %ecx,%ecx
    214a:	0f 84 7c 02 00 00    	je     23cc <heapsort+0x29c>
    2150:	83 ec 0c             	sub    $0xc,%esp
    2153:	89 4d 10             	mov    %ecx,0x10(%ebp)
    2156:	51                   	push   %ecx
    2157:	e8 fc ff ff ff       	call   2158 <heapsort+0x28>
			2158: R_386_PC32	malloc
    215c:	83 c4 10             	add    $0x10,%esp
    215f:	89 45 d8             	mov    %eax,-0x28(%ebp)
    2162:	85 c0                	test   %eax,%eax
    2164:	0f 84 62 02 00 00    	je     23cc <heapsort+0x29c>
    216a:	8b 45 08             	mov    0x8(%ebp),%eax
    216d:	8b 4d 10             	mov    0x10(%ebp),%ecx
    2170:	29 c8                	sub    %ecx,%eax
    2172:	89 45 e4             	mov    %eax,-0x1c(%ebp)
    2175:	8b 45 0c             	mov    0xc(%ebp),%eax
    2178:	d1 e8                	shr    %eax
    217a:	89 45 dc             	mov    %eax,-0x24(%ebp)
    217d:	8d 76 00             	lea    0x0(%esi),%esi
    2180:	8b 75 dc             	mov    -0x24(%ebp),%esi
    2183:	8d 04 36             	lea    (%esi,%esi,1),%eax
    2186:	39 45 0c             	cmp    %eax,0xc(%ebp)
    2189:	0f 82 91 00 00 00    	jb     2220 <heapsort+0xf0>
    218f:	90                   	nop
    2190:	89 cb                	mov    %ecx,%ebx
    2192:	89 c7                	mov    %eax,%edi
    2194:	0f af d8             	imul   %eax,%ebx
    2197:	03 5d e4             	add    -0x1c(%ebp),%ebx
    219a:	39 45 0c             	cmp    %eax,0xc(%ebp)
    219d:	76 21                	jbe    21c0 <heapsort+0x90>
    219f:	83 ec 08             	sub    $0x8,%esp
    21a2:	8d 14 0b             	lea    (%ebx,%ecx,1),%edx
    21a5:	89 4d 10             	mov    %ecx,0x10(%ebp)
    21a8:	52                   	push   %edx
    21a9:	53                   	push   %ebx
    21aa:	89 55 e0             	mov    %edx,-0x20(%ebp)
    21ad:	ff 55 14             	call   *0x14(%ebp)
    21b0:	8b 4d 10             	mov    0x10(%ebp),%ecx
    21b3:	83 c4 10             	add    $0x10,%esp
    21b6:	85 c0                	test   %eax,%eax
    21b8:	79 06                	jns    21c0 <heapsort+0x90>
    21ba:	8b 5d e0             	mov    -0x20(%ebp),%ebx
    21bd:	83 c7 01             	add    $0x1,%edi
    21c0:	83 ec 08             	sub    $0x8,%esp
    21c3:	0f af f1             	imul   %ecx,%esi
    21c6:	03 75 e4             	add    -0x1c(%ebp),%esi
    21c9:	89 4d 10             	mov    %ecx,0x10(%ebp)
    21cc:	56                   	push   %esi
    21cd:	53                   	push   %ebx
    21ce:	ff 55 14             	call   *0x14(%ebp)
    21d1:	8b 4d 10             	mov    0x10(%ebp),%ecx
    21d4:	83 c4 10             	add    $0x10,%esp
    21d7:	85 c0                	test   %eax,%eax
    21d9:	7e 45                	jle    2220 <heapsort+0xf0>
    21db:	89 4d e0             	mov    %ecx,-0x20(%ebp)
    21de:	8d 14 0b             	lea    (%ebx,%ecx,1),%edx
    21e1:	8d b4 26 00 00 00 00 	lea    0x0(%esi,%eiz,1),%esi
    21e8:	8d b4 26 00 00 00 00 	lea    0x0(%esi,%eiz,1),%esi
    21ef:	90                   	nop
    21f0:	0f b6 06             	movzbl (%esi),%eax
    21f3:	0f b6 0b             	movzbl (%ebx),%ecx
    21f6:	83 c3 01             	add    $0x1,%ebx
    21f9:	83 c6 01             	add    $0x1,%esi
    21fc:	88 4e ff             	mov    %cl,-0x1(%esi)
    21ff:	88 43 ff             	mov    %al,-0x1(%ebx)
    2202:	39 d3                	cmp    %edx,%ebx
    2204:	75 ea                	jne    21f0 <heapsort+0xc0>
    2206:	8b 4d e0             	mov    -0x20(%ebp),%ecx
    2209:	8d 04 3f             	lea    (%edi,%edi,1),%eax
    220c:	39 45 0c             	cmp    %eax,0xc(%ebp)
    220f:	72 0f                	jb     2220 <heapsort+0xf0>
    2211:	89 fe                	mov    %edi,%esi
    2213:	e9 78 ff ff ff       	jmp    2190 <heapsort+0x60>
    2218:	8d b4 26 00 00 00 00 	lea    0x0(%esi,%eiz,1),%esi
    221f:	90                   	nop
    2220:	83 6d dc 01          	subl   $0x1,-0x24(%ebp)
    2224:	0f 85 56 ff ff ff    	jne    2180 <heapsort+0x50>
    222a:	8b 45 0c             	mov    0xc(%ebp),%eax
    222d:	83 c0 01             	add    $0x1,%eax
    2230:	0f af c1             	imul   %ecx,%eax
    2233:	03 45 e4             	add    -0x1c(%ebp),%eax
    2236:	89 45 d0             	mov    %eax,-0x30(%ebp)
    2239:	8b 45 d8             	mov    -0x28(%ebp),%eax
    223c:	01 c8                	add    %ecx,%eax
    223e:	89 45 cc             	mov    %eax,-0x34(%ebp)
    2241:	8d b4 26 00 00 00 00 	lea    0x0(%esi,%eiz,1),%esi
    2248:	8d b4 26 00 00 00 00 	lea    0x0(%esi,%eiz,1),%esi
    224f:	90                   	nop
    2250:	8b 45 d0             	mov    -0x30(%ebp),%eax
    2253:	8b 7d d8             	mov    -0x28(%ebp),%edi
    2256:	8b 5d cc             	mov    -0x34(%ebp),%ebx
    2259:	89 c2                	mov    %eax,%edx
    225b:	29 c8                	sub    %ecx,%eax
    225d:	89 45 d0             	mov    %eax,-0x30(%ebp)
    2260:	89 c6                	mov    %eax,%esi
    2262:	8d b4 26 00 00 00 00 	lea    0x0(%esi,%eiz,1),%esi
    2269:	8d b4 26 00 00 00 00 	lea    0x0(%esi,%eiz,1),%esi
    2270:	a4                   	movsb  %ds:(%esi),%es:(%edi)
    2271:	39 df                	cmp    %ebx,%edi
    2273:	75 fb                	jne    2270 <heapsort+0x140>
    2275:	8b 75 08             	mov    0x8(%ebp),%esi
    2278:	89 c7                	mov    %eax,%edi
    227a:	8d b6 00 00 00 00    	lea    0x0(%esi),%esi
    2280:	a4                   	movsb  %ds:(%esi),%es:(%edi)
    2281:	39 d7                	cmp    %edx,%edi
    2283:	75 fb                	jne    2280 <heapsort+0x150>
    2285:	83 6d 0c 01          	subl   $0x1,0xc(%ebp)
    2289:	83 7d 0c 01          	cmpl   $0x1,0xc(%ebp)
    228d:	0f 84 34 01 00 00    	je     23c7 <heapsort+0x297>
    2293:	c7 45 dc 01 00 00 00 	movl   $0x1,-0x24(%ebp)
    229a:	bf 02 00 00 00       	mov    $0x2,%edi
    229f:	89 cb                	mov    %ecx,%ebx
    22a1:	8d b4 26 00 00 00 00 	lea    0x0(%esi,%eiz,1),%esi
    22a8:	8d b4 26 00 00 00 00 	lea    0x0(%esi,%eiz,1),%esi
    22af:	90                   	nop
    22b0:	89 d8                	mov    %ebx,%eax
    22b2:	8b 75 e4             	mov    -0x1c(%ebp),%esi
    22b5:	0f af c7             	imul   %edi,%eax
    22b8:	89 45 e0             	mov    %eax,-0x20(%ebp)
    22bb:	01 c6                	add    %eax,%esi
    22bd:	39 7d 0c             	cmp    %edi,0xc(%ebp)
    22c0:	76 5e                	jbe    2320 <heapsort+0x1f0>
    22c2:	8d 14 1e             	lea    (%esi,%ebx,1),%edx
    22c5:	83 ec 08             	sub    $0x8,%esp
    22c8:	52                   	push   %edx
    22c9:	56                   	push   %esi
    22ca:	89 55 d4             	mov    %edx,-0x2c(%ebp)
    22cd:	ff 55 14             	call   *0x14(%ebp)
    22d0:	89 f1                	mov    %esi,%ecx
    22d2:	89 fa                	mov    %edi,%edx
    22d4:	83 c4 10             	add    $0x10,%esp
    22d7:	85 c0                	test   %eax,%eax
    22d9:	79 0c                	jns    22e7 <heapsort+0x1b7>
    22db:	8b 75 d4             	mov    -0x2c(%ebp),%esi
    22de:	8b 4d e0             	mov    -0x20(%ebp),%ecx
    22e1:	83 c2 01             	add    $0x1,%edx
    22e4:	03 4d 08             	add    0x8(%ebp),%ecx
    22e7:	8b 7d dc             	mov    -0x24(%ebp),%edi
    22ea:	0f af fb             	imul   %ebx,%edi
    22ed:	03 7d e4             	add    -0x1c(%ebp),%edi
    22f0:	8d 04 1f             	lea    (%edi,%ebx,1),%eax
    22f3:	8d b4 26 00 00 00 00 	lea    0x0(%esi,%eiz,1),%esi
    22fa:	8d b6 00 00 00 00    	lea    0x0(%esi),%esi
    2300:	a4                   	movsb  %ds:(%esi),%es:(%edi)
    2301:	39 c7                	cmp    %eax,%edi
    2303:	75 fb                	jne    2300 <heapsort+0x1d0>
    2305:	8d 3c 12             	lea    (%edx,%edx,1),%edi
    2308:	39 7d 0c             	cmp    %edi,0xc(%ebp)
    230b:	72 23                	jb     2330 <heapsort+0x200>
    230d:	89 55 dc             	mov    %edx,-0x24(%ebp)
    2310:	eb 9e                	jmp    22b0 <heapsort+0x180>
    2312:	8d b4 26 00 00 00 00 	lea    0x0(%esi,%eiz,1),%esi
    2319:	8d b4 26 00 00 00 00 	lea    0x0(%esi,%eiz,1),%esi
    2320:	89 f1                	mov    %esi,%ecx
    2322:	89 fa                	mov    %edi,%edx
    2324:	eb c1                	jmp    22e7 <heapsort+0x1b7>
    2326:	8d b4 26 00 00 00 00 	lea    0x0(%esi,%eiz,1),%esi
    232d:	8d 76 00             	lea    0x0(%esi),%esi
    2330:	89 d0                	mov    %edx,%eax
    2332:	89 5d 10             	mov    %ebx,0x10(%ebp)
    2335:	89 cb                	mov    %ecx,%ebx
    2337:	8b 4d 10             	mov    0x10(%ebp),%ecx
    233a:	d1 e8                	shr    %eax
    233c:	89 c6                	mov    %eax,%esi
    233e:	0f af f1             	imul   %ecx,%esi
    2341:	03 75 e4             	add    -0x1c(%ebp),%esi
    2344:	83 fa 01             	cmp    $0x1,%edx
    2347:	74 48                	je     2391 <heapsort+0x261>
    2349:	89 df                	mov    %ebx,%edi
    234b:	8d 74 26 00          	lea    0x0(%esi,%eiz,1),%esi
    234f:	90                   	nop
    2350:	83 ec 08             	sub    $0x8,%esp
    2353:	89 4d 10             	mov    %ecx,0x10(%ebp)
    2356:	89 c3                	mov    %eax,%ebx
    2358:	56                   	push   %esi
    2359:	ff 75 d8             	push   -0x28(%ebp)
    235c:	ff 55 14             	call   *0x14(%ebp)
    235f:	8b 4d 10             	mov    0x10(%ebp),%ecx
    2362:	83 c4 10             	add    $0x10,%esp
    2365:	85 c0                	test   %eax,%eax
    2367:	78 26                	js     238f <heapsort+0x25f>
    2369:	8d 04 0f             	lea    (%edi,%ecx,1),%eax
    236c:	8d 74 26 00          	lea    0x0(%esi,%eiz,1),%esi
    2370:	a4                   	movsb  %ds:(%esi),%es:(%edi)
    2371:	39 c7                	cmp    %eax,%edi
    2373:	75 fb                	jne    2370 <heapsort+0x240>
    2375:	89 d8                	mov    %ebx,%eax
    2377:	89 cf                	mov    %ecx,%edi
    2379:	89 ce                	mov    %ecx,%esi
    237b:	8b 55 e4             	mov    -0x1c(%ebp),%edx
    237e:	d1 e8                	shr    %eax
    2380:	0f af fb             	imul   %ebx,%edi
    2383:	0f af f0             	imul   %eax,%esi
    2386:	01 d7                	add    %edx,%edi
    2388:	01 d6                	add    %edx,%esi
    238a:	83 fb 01             	cmp    $0x1,%ebx
    238d:	75 c1                	jne    2350 <heapsort+0x220>
    238f:	89 fb                	mov    %edi,%ebx
    2391:	8b 75 d8             	mov    -0x28(%ebp),%esi
    2394:	8d 04 0b             	lea    (%ebx,%ecx,1),%eax
    2397:	89 df                	mov    %ebx,%edi
    2399:	8d b4 26 00 00 00 00 	lea    0x0(%esi,%eiz,1),%esi
    23a0:	a4                   	movsb  %ds:(%esi),%es:(%edi)
    23a1:	39 c7                	cmp    %eax,%edi
    23a3:	75 fb                	jne    23a0 <heapsort+0x270>
    23a5:	83 7d 0c 01          	cmpl   $0x1,0xc(%ebp)
    23a9:	0f 85 a1 fe ff ff    	jne    2250 <heapsort+0x120>
    23af:	83 ec 0c             	sub    $0xc,%esp
    23b2:	ff 75 d8             	push   -0x28(%ebp)
    23b5:	e8 fc ff ff ff       	call   23b6 <heapsort+0x286>
			23b6: R_386_PC32	free
    23ba:	83 c4 10             	add    $0x10,%esp
    23bd:	31 c0                	xor    %eax,%eax
    23bf:	8d 65 f4             	lea    -0xc(%ebp),%esp
    23c2:	5b                   	pop    %ebx
    23c3:	5e                   	pop    %esi
    23c4:	5f                   	pop    %edi
    23c5:	5d                   	pop    %ebp
    23c6:	c3                   	ret    
    23c7:	8b 5d 08             	mov    0x8(%ebp),%ebx
    23ca:	eb c5                	jmp    2391 <heapsort+0x261>
    23cc:	b8 ff ff ff ff       	mov    $0xffffffff,%eax
    23d1:	eb ec                	jmp    23bf <heapsort+0x28f>
    23d3:	66 90                	xchg   %ax,%ax
    23d5:	66 90                	xchg   %ax,%ax
    23d7:	66 90                	xchg   %ax,%ax
    23d9:	66 90                	xchg   %ax,%ax
    23db:	66 90                	xchg   %ax,%ax
    23dd:	66 90                	xchg   %ax,%ax
    23df:	90                   	nop

000023e0 <heapsort_r>:
    23e0:	55                   	push   %ebp
    23e1:	31 c0                	xor    %eax,%eax
    23e3:	89 e5                	mov    %esp,%ebp
    23e5:	57                   	push   %edi
    23e6:	56                   	push   %esi
    23e7:	53                   	push   %ebx
    23e8:	83 ec 2c             	sub    $0x2c,%esp
    23eb:	83 7d 0c 01          	cmpl   $0x1,0xc(%ebp)
    23ef:	8b 4d 10             	mov    0x10(%ebp),%ecx
    23f2:	0f 86 77 02 00 00    	jbe    266f <heapsort_r+0x28f>
    23f8:	85 c9                	test   %ecx,%ecx
    23fa:	0f 84 7c 02 00 00    	je     267c <heapsort_r+0x29c>
    2400:	83 ec 0c             	sub    $0xc,%esp
    2403:	89 4d 10             	mov    %ecx,0x10(%ebp)
    2406:	51                   	push   %ecx
    2407:	e8 fc ff ff ff       	call   2408 <heapsort_r+0x28>
			2408: R_386_PC32	malloc
    240c:	83 c4 10             	add    $0x10,%esp
    240f:	89 45 d8             	mov    %eax,-0x28(%ebp)
    2412:	85 c0                	test   %eax,%eax
    2414:	0f 84 62 02 00 00    	je     267c <heapsort_r+0x29c>
    241a:	8b 45 08             	mov    0x8(%ebp),%eax
    241d:	8b 4d 10             	mov    0x10(%ebp),%ecx
    2420:	29 c8                	sub    %ecx,%eax
    2422:	89 45 e4             	mov    %eax,-0x1c(%ebp)
    2425:	8b 45 0c             	mov    0xc(%ebp),%eax
    2428:	d1 e8                	shr    %eax
    242a:	89 45 dc             	mov    %eax,-0x24(%ebp)
    242d:	8d 76 00             	lea    0x0(%esi),%esi
    2430:	8b 75 dc             	mov    -0x24(%ebp),%esi
    2433:	8d 04 36             	lea    (%esi,%esi,1),%eax
    2436:	39 45 0c             	cmp    %eax,0xc(%ebp)
    2439:	0f 82 91 00 00 00    	jb     24d0 <heapsort_r+0xf0>
    243f:	90                   	nop
    2440:	89 cb                	mov    %ecx,%ebx
    2442:	89 c7                	mov    %eax,%edi
    2444:	0f af d8             	imul   %eax,%ebx
    2447:	03 5d e4             	add    -0x1c(%ebp),%ebx
    244a:	39 45 0c             	cmp    %eax,0xc(%ebp)
    244d:	76 24                	jbe    2473 <heapsort_r+0x93>
    244f:	83 ec 04             	sub    $0x4,%esp
    2452:	8d 14 0b             	lea    (%ebx,%ecx,1),%edx
    2455:	89 4d 10             	mov    %ecx,0x10(%ebp)
    2458:	52                   	push   %edx
    2459:	53                   	push   %ebx
    245a:	ff 75 14             	push   0x14(%ebp)
    245d:	89 55 e0             	mov    %edx,-0x20(%ebp)
    2460:	ff 55 18             	call   *0x18(%ebp)
    2463:	8b 4d 10             	mov    0x10(%ebp),%ecx
    2466:	83 c4 10             	add    $0x10,%esp
    2469:	85 c0                	test   %eax,%eax
    246b:	79 06                	jns    2473 <heapsort_r+0x93>
    246d:	8b 5d e0             	mov    -0x20(%ebp),%ebx
    2470:	83 c7 01             	add    $0x1,%edi
    2473:	83 ec 04             	sub    $0x4,%esp
    2476:	0f af f1             	imul   %ecx,%esi
    2479:	03 75 e4             	add    -0x1c(%ebp),%esi
    247c:	89 4d 10             	mov    %ecx,0x10(%ebp)
    247f:	56                   	push   %esi
    2480:	53                   	push   %ebx
    2481:	ff 75 14             	push   0x14(%ebp)
    2484:	ff 55 18             	call   *0x18(%ebp)
    2487:	8b 4d 10             	mov    0x10(%ebp),%ecx
    248a:	83 c4 10             	add    $0x10,%esp
    248d:	85 c0                	test   %eax,%eax
    248f:	7e 3f                	jle    24d0 <heapsort_r+0xf0>
    2491:	89 4d e0             	mov    %ecx,-0x20(%ebp)
    2494:	8d 14 0b             	lea    (%ebx,%ecx,1),%edx
    2497:	8d b4 26 00 00 00 00 	lea    0x0(%esi,%eiz,1),%esi
    249e:	66 90                	xchg   %ax,%ax
    24a0:	0f b6 06             	movzbl (%esi),%eax
    24a3:	0f b6 0b             	movzbl (%ebx),%ecx
    24a6:	83 c3 01             	add    $0x1,%ebx
    24a9:	83 c6 01             	add    $0x1,%esi
    24ac:	88 4e ff             	mov    %cl,-0x1(%esi)
    24af:	88 43 ff             	mov    %al,-0x1(%ebx)
    24b2:	39 d3                	cmp    %edx,%ebx
    24b4:	75 ea                	jne    24a0 <heapsort_r+0xc0>
    24b6:	8b 4d e0             	mov    -0x20(%ebp),%ecx
    24b9:	8d 04 3f             	lea    (%edi,%edi,1),%eax
    24bc:	39 45 0c             	cmp    %eax,0xc(%ebp)
    24bf:	72 0f                	jb     24d0 <heapsort_r+0xf0>
    24c1:	89 fe                	mov    %edi,%esi
    24c3:	e9 78 ff ff ff       	jmp    2440 <heapsort_r+0x60>
    24c8:	8d b4 26 00 00 00 00 	lea    0x0(%esi,%eiz,1),%esi
    24cf:	90                   	nop
    24d0:	83 6d dc 01          	subl   $0x1,-0x24(%ebp)
    24d4:	0f 85 56 ff ff ff    	jne    2430 <heapsort_r+0x50>
    24da:	8b 45 0c             	mov    0xc(%ebp),%eax
    24dd:	83 c0 01             	add    $0x1,%eax
    24e0:	0f af c1             	imul   %ecx,%eax
    24e3:	03 45 e4             	add    -0x1c(%ebp),%eax
    24e6:	89 45 d0             	mov    %eax,-0x30(%ebp)
    24e9:	8b 45 d8             	mov    -0x28(%ebp),%eax
    24ec:	01 c8                	add    %ecx,%eax
    24ee:	89 45 cc             	mov    %eax,-0x34(%ebp)
    24f1:	8d b4 26 00 00 00 00 	lea    0x0(%esi,%eiz,1),%esi
    24f8:	8d b4 26 00 00 00 00 	lea    0x0(%esi,%eiz,1),%esi
    24ff:	90                   	nop
    2500:	8b 45 d0             	mov    -0x30(%ebp),%eax
    2503:	8b 7d d8             	mov    -0x28(%ebp),%edi
    2506:	8b 5d cc             	mov    -0x34(%ebp),%ebx
    2509:	89 c2                	mov    %eax,%edx
    250b:	29 c8                	sub    %ecx,%eax
    250d:	89 45 d0             	mov    %eax,-0x30(%ebp)
    2510:	89 c6                	mov    %eax,%esi
    2512:	8d b4 26 00 00 00 00 	lea    0x0(%esi,%eiz,1),%esi
    2519:	8d b4 26 00 00 00 00 	lea    0x0(%esi,%eiz,1),%esi
    2520:	a4                   	movsb  %ds:(%esi),%es:(%edi)
    2521:	39 df                	cmp    %ebx,%edi
    2523:	75 fb                	jne    2520 <heapsort_r+0x140>
    2525:	8b 75 08             	mov    0x8(%ebp),%esi
    2528:	89 c7                	mov    %eax,%edi
    252a:	8d b6 00 00 00 00    	lea    0x0(%esi),%esi
    2530:	a4                   	movsb  %ds:(%esi),%es:(%edi)
    2531:	39 d7                	cmp    %edx,%edi
    2533:	75 fb                	jne    2530 <heapsort_r+0x150>
    2535:	83 6d 0c 01          	subl   $0x1,0xc(%ebp)
    2539:	83 7d 0c 01          	cmpl   $0x1,0xc(%ebp)
    253d:	0f 84 34 01 00 00    	je     2677 <heapsort_r+0x297>
    2543:	c7 45 dc 01 00 00 00 	movl   $0x1,-0x24(%ebp)
    254a:	bf 02 00 00 00       	mov    $0x2,%edi
    254f:	89 cb                	mov    %ecx,%ebx
    2551:	8d b4 26 00 00 00 00 	lea    0x0(%esi,%eiz,1),%esi
    2558:	8d b4 26 00 00 00 00 	lea    0x0(%esi,%eiz,1),%esi
    255f:	90                   	nop
    2560:	89 d8                	mov    %ebx,%eax
    2562:	8b 75 e4             	mov    -0x1c(%ebp),%esi
    2565:	0f af c7             	imul   %edi,%eax
    2568:	89 45 e0             	mov    %eax,-0x20(%ebp)
    256b:	01 c6                	add    %eax,%esi
    256d:	39 7d 0c             	cmp    %edi,0xc(%ebp)
    2570:	76 5e                	jbe    25d0 <heapsort_r+0x1f0>
    2572:	83 ec 04             	sub    $0x4,%esp
    2575:	8d 14 1e             	lea    (%esi,%ebx,1),%edx
    2578:	52                   	push   %edx
    2579:	56                   	push   %esi
    257a:	ff 75 14             	push   0x14(%ebp)
    257d:	89 55 d4             	mov    %edx,-0x2c(%ebp)
    2580:	ff 55 18             	call   *0x18(%ebp)
    2583:	89 f1                	mov    %esi,%ecx
    2585:	89 fa                	mov    %edi,%edx
    2587:	83 c4 10             	add    $0x10,%esp
    258a:	85 c0                	test   %eax,%eax
    258c:	79 0c                	jns    259a <heapsort_r+0x1ba>
    258e:	8b 75 d4             	mov    -0x2c(%ebp),%esi
    2591:	8b 4d e0             	mov    -0x20(%ebp),%ecx
    2594:	83 c2 01             	add    $0x1,%edx
    2597:	03 4d 08             	add    0x8(%ebp),%ecx
    259a:	8b 7d dc             	mov    -0x24(%ebp),%edi
    259d:	0f af fb             	imul   %ebx,%edi
    25a0:	03 7d e4             	add    -0x1c(%ebp),%edi
    25a3:	8d 04 1f             	lea    (%edi,%ebx,1),%eax
    25a6:	8d b4 26 00 00 00 00 	lea    0x0(%esi,%eiz,1),%esi
    25ad:	8d 76 00             	lea    0x0(%esi),%esi
    25b0:	a4                   	movsb  %ds:(%esi),%es:(%edi)
    25b1:	39 c7                	cmp    %eax,%edi
    25b3:	75 fb                	jne    25b0 <heapsort_r+0x1d0>
    25b5:	8d 3c 12             	lea    (%edx,%edx,1),%edi
    25b8:	39 7d 0c             	cmp    %edi,0xc(%ebp)
    25bb:	72 23                	jb     25e0 <heapsort_r+0x200>
    25bd:	89 55 dc             	mov    %edx,-0x24(%ebp)
    25c0:	eb 9e                	jmp    2560 <heapsort_r+0x180>
    25c2:	8d b4 26 00 00 00 00 	lea    0x0(%esi,%eiz,1),%esi
    25c9:	8d b4 26 00 00 00 00 	lea    0x0(%esi,%eiz,1),%esi
    25d0:	89 f1                	mov    %esi,%ecx
    25d2:	89 fa                	mov    %edi,%edx
    25d4:	eb c4                	jmp    259a <heapsort_r+0x1ba>
    25d6:	8d b4 26 00 00 00 00 	lea    0x0(%esi,%eiz,1),%esi
    25dd:	8d 76 00             	lea    0x0(%esi),%esi
    25e0:	89 d0                	mov    %edx,%eax
    25e2:	89 5d 10             	mov    %ebx,0x10(%ebp)
    25e5:	89 cb                	mov    %ecx,%ebx
    25e7:	8b 4d 10             	mov    0x10(%ebp),%ecx
    25ea:	d1 e8                	shr    %eax
    25ec:	89 c6                	mov    %eax,%esi
    25ee:	0f af f1             	imul   %ecx,%esi
    25f1:	03 75 e4             	add    -0x1c(%ebp),%esi
    25f4:	83 fa 01             	cmp    $0x1,%edx
    25f7:	74 48                	je     2641 <heapsort_r+0x261>
    25f9:	89 df                	mov    %ebx,%edi
    25fb:	8d 74 26 00          	lea    0x0(%esi,%eiz,1),%esi
    25ff:	90                   	nop
    2600:	83 ec 04             	sub    $0x4,%esp
    2603:	89 4d 10             	mov    %ecx,0x10(%ebp)
    2606:	89 c3                	mov    %eax,%ebx
    2608:	56                   	push   %esi
    2609:	ff 75 d8             	push   -0x28(%ebp)
    260c:	ff 75 14             	push   0x14(%ebp)
    260f:	ff 55 18             	call   *0x18(%ebp)
    2612:	8b 4d 10             	mov    0x10(%ebp),%ecx
    2615:	83 c4 10             	add    $0x10,%esp
    2618:	85 c0                	test   %eax,%eax
    261a:	78 23                	js     263f <heapsort_r+0x25f>
    261c:	8d 04 0f             	lea    (%edi,%ecx,1),%eax
    261f:	90                   	nop
    2620:	a4                   	movsb  %ds:(%esi),%es:(%edi)
    2621:	39 c7                	cmp    %eax,%edi
    2623:	75 fb                	jne    2620 <heapsort_r+0x240>
    2625:	89 d8                	mov    %ebx,%eax
    2627:	89 cf                	mov    %ecx,%edi
    2629:	89 ce                	mov    %ecx,%esi
    262b:	8b 55 e4             	mov    -0x1c(%ebp),%edx
    262e:	d1 e8                	shr    %eax
    2630:	0f af fb             	imul   %ebx,%edi
    2633:	0f af f0             	imul   %eax,%esi
    2636:	01 d7                	add    %edx,%edi
    2638:	01 d6                	add    %edx,%esi
    263a:	83 fb 01             	cmp    $0x1,%ebx
    263d:	75 c1                	jne    2600 <heapsort_r+0x220>
    263f:	89 fb                	mov    %edi,%ebx
    2641:	8b 75 d8             	mov    -0x28(%ebp),%esi
    2644:	8d 04 0b             	lea    (%ebx,%ecx,1),%eax
    2647:	89 df                	mov    %ebx,%edi
    2649:	8d b4 26 00 00 00 00 	lea    0x0(%esi,%eiz,1),%esi
    2650:	a4                   	movsb  %ds:(%esi),%es:(%edi)
    2651:	39 c7                	cmp    %eax,%edi
    2653:	75 fb                	jne    2650 <heapsort_r+0x270>
    2655:	83 7d 0c 01          	cmpl   $0x1,0xc(%ebp)
    2659:	0f 85 a1 fe ff ff    	jne    2500 <heapsort_r+0x120>
    265f:	83 ec 0c             	sub    $0xc,%esp
    2662:	ff 75 d8             	push   -0x28(%ebp)
    2665:	e8 fc ff ff ff       	call   2666 <heapsort_r+0x286>
			2666: R_386_PC32	free
    266a:	83 c4 10             	add    $0x10,%esp
    266d:	31 c0                	xor    %eax,%eax
    266f:	8d 65 f4             	lea    -0xc(%ebp),%esp
    2672:	5b                   	pop    %ebx
    2673:	5e                   	pop    %esi
    2674:	5f                   	pop    %edi
    2675:	5d                   	pop    %ebp
    2676:	c3                   	ret    
    2677:	8b 5d 08             	mov    0x8(%ebp),%ebx
    267a:	eb c5                	jmp    2641 <heapsort_r+0x261>
    267c:	b8 ff ff ff ff       	mov    $0xffffffff,%eax
    2681:	eb ec                	jmp    266f <heapsort_r+0x28f>
    2683:	66 90                	xchg   %ax,%ax
    2685:	66 90                	xchg   %ax,%ax
    2687:	66 90                	xchg   %ax,%ax
    2689:	66 90                	xchg   %ax,%ax
    268b:	66 90                	xchg   %ax,%ax
    268d:	66 90                	xchg   %ax,%ax
    268f:	90                   	nop

00002690 <imaxabs>:
    2690:	55                   	push   %ebp
    2691:	89 e5                	mov    %esp,%ebp
    2693:	53                   	push   %ebx
    2694:	8b 4d 08             	mov    0x8(%ebp),%ecx
    2697:	8b 5d 0c             	mov    0xc(%ebp),%ebx
    269a:	89 c8                	mov    %ecx,%eax
    269c:	89 da                	mov    %ebx,%edx
    269e:	f7 d8                	neg    %eax
    26a0:	83 d2 00             	adc    $0x0,%edx
    26a3:	f7 da                	neg    %edx
    26a5:	0f 48 d3             	cmovs  %ebx,%edx
    26a8:	0f 48 c1             	cmovs  %ecx,%eax
    26ab:	8b 5d fc             	mov    -0x4(%ebp),%ebx
    26ae:	c9                   	leave  
    26af:	c3                   	ret    

000026b0 <imaxdiv>:
    26b0:	55                   	push   %ebp
    26b1:	89 e5                	mov    %esp,%ebp
    26b3:	57                   	push   %edi
    26b4:	56                   	push   %esi
    26b5:	53                   	push   %ebx
    26b6:	83 ec 28             	sub    $0x28,%esp
    26b9:	8b 45 14             	mov    0x14(%ebp),%eax
    26bc:	8b 4d 18             	mov    0x18(%ebp),%ecx
    26bf:	8b 75 0c             	mov    0xc(%ebp),%esi
    26c2:	8b 7d 10             	mov    0x10(%ebp),%edi
    26c5:	89 c2                	mov    %eax,%edx
    26c7:	89 45 d8             	mov    %eax,-0x28(%ebp)
    26ca:	8d 45 e0             	lea    -0x20(%ebp),%eax
    26cd:	50                   	push   %eax
    26ce:	51                   	push   %ecx
    26cf:	52                   	push   %edx
    26d0:	57                   	push   %edi
    26d1:	56                   	push   %esi
    26d2:	89 fe                	mov    %edi,%esi
    26d4:	89 4d dc             	mov    %ecx,-0x24(%ebp)
    26d7:	f7 d6                	not    %esi
    26d9:	e8 fc ff ff ff       	call   26da <imaxdiv+0x2a>
			26da: R_386_PC32	__divmoddi4
    26de:	83 c4 20             	add    $0x20,%esp
    26e1:	89 d3                	mov    %edx,%ebx
    26e3:	8b 55 e4             	mov    -0x1c(%ebp),%edx
    26e6:	89 c1                	mov    %eax,%ecx
    26e8:	8b 45 e0             	mov    -0x20(%ebp),%eax
    26eb:	85 d6                	test   %edx,%esi
    26ed:	78 21                	js     2710 <imaxdiv+0x60>
    26ef:	8b 7d 08             	mov    0x8(%ebp),%edi
    26f2:	89 47 08             	mov    %eax,0x8(%edi)
    26f5:	89 f8                	mov    %edi,%eax
    26f7:	89 0f                	mov    %ecx,(%edi)
    26f9:	89 5f 04             	mov    %ebx,0x4(%edi)
    26fc:	89 57 0c             	mov    %edx,0xc(%edi)
    26ff:	8d 65 f4             	lea    -0xc(%ebp),%esp
    2702:	5b                   	pop    %ebx
    2703:	5e                   	pop    %esi
    2704:	5f                   	pop    %edi
    2705:	5d                   	pop    %ebp
    2706:	c2 04 00             	ret    $0x4
    2709:	8d b4 26 00 00 00 00 	lea    0x0(%esi,%eiz,1),%esi
    2710:	83 c1 01             	add    $0x1,%ecx
    2713:	83 d3 00             	adc    $0x0,%ebx
    2716:	2b 45 d8             	sub    -0x28(%ebp),%eax
    2719:	1b 55 dc             	sbb    -0x24(%ebp),%edx
    271c:	eb d1                	jmp    26ef <imaxdiv+0x3f>
    271e:	66 90                	xchg   %ax,%ax

00002720 <labs>:
    2720:	55                   	push   %ebp
    2721:	89 e5                	mov    %esp,%ebp
    2723:	8b 55 08             	mov    0x8(%ebp),%edx
    2726:	5d                   	pop    %ebp
    2727:	89 d0                	mov    %edx,%eax
    2729:	f7 d8                	neg    %eax
    272b:	0f 48 c2             	cmovs  %edx,%eax
    272e:	c3                   	ret    
    272f:	90                   	nop

00002730 <ldiv>:
    2730:	55                   	push   %ebp
    2731:	89 e5                	mov    %esp,%ebp
    2733:	53                   	push   %ebx
    2734:	8b 4d 0c             	mov    0xc(%ebp),%ecx
    2737:	8b 5d 08             	mov    0x8(%ebp),%ebx
    273a:	89 c8                	mov    %ecx,%eax
    273c:	f7 d1                	not    %ecx
    273e:	99                   	cltd   
    273f:	f7 7d 10             	idivl  0x10(%ebp)
    2742:	85 d1                	test   %edx,%ecx
    2744:	78 1a                	js     2760 <ldiv+0x30>
    2746:	89 03                	mov    %eax,(%ebx)
    2748:	89 d8                	mov    %ebx,%eax
    274a:	89 53 04             	mov    %edx,0x4(%ebx)
    274d:	8b 5d fc             	mov    -0x4(%ebp),%ebx
    2750:	c9                   	leave  
    2751:	c2 04 00             	ret    $0x4
    2754:	8d b4 26 00 00 00 00 	lea    0x0(%esi,%eiz,1),%esi
    275b:	8d 74 26 00          	lea    0x0(%esi,%eiz,1),%esi
    275f:	90                   	nop
    2760:	83 c0 01             	add    $0x1,%eax
    2763:	2b 55 10             	sub    0x10(%ebp),%edx
    2766:	89 03                	mov    %eax,(%ebx)
    2768:	89 d8                	mov    %ebx,%eax
    276a:	89 53 04             	mov    %edx,0x4(%ebx)
    276d:	8b 5d fc             	mov    -0x4(%ebp),%ebx
    2770:	c9                   	leave  
    2771:	c2 04 00             	ret    $0x4
    2774:	66 90                	xchg   %ax,%ax
    2776:	66 90                	xchg   %ax,%ax
    2778:	66 90                	xchg   %ax,%ax
    277a:	66 90                	xchg   %ax,%ax
    277c:	66 90                	xchg   %ax,%ax
    277e:	66 90                	xchg   %ax,%ax

00002780 <llabs>:
    2780:	55                   	push   %ebp
    2781:	89 e5                	mov    %esp,%ebp
    2783:	53                   	push   %ebx
    2784:	8b 4d 08             	mov    0x8(%ebp),%ecx
    2787:	8b 5d 0c             	mov    0xc(%ebp),%ebx
    278a:	89 c8                	mov    %ecx,%eax
    278c:	89 da                	mov    %ebx,%edx
    278e:	f7 d8                	neg    %eax
    2790:	83 d2 00             	adc    $0x0,%edx
    2793:	f7 da                	neg    %edx
    2795:	0f 48 d3             	cmovs  %ebx,%edx
    2798:	0f 48 c1             	cmovs  %ecx,%eax
    279b:	8b 5d fc             	mov    -0x4(%ebp),%ebx
    279e:	c9                   	leave  
    279f:	c3                   	ret    

000027a0 <lldiv>:
    27a0:	55                   	push   %ebp
    27a1:	89 e5                	mov    %esp,%ebp
    27a3:	57                   	push   %edi
    27a4:	56                   	push   %esi
    27a5:	53                   	push   %ebx
    27a6:	83 ec 28             	sub    $0x28,%esp
    27a9:	8b 45 14             	mov    0x14(%ebp),%eax
    27ac:	8b 4d 18             	mov    0x18(%ebp),%ecx
    27af:	8b 75 0c             	mov    0xc(%ebp),%esi
    27b2:	8b 7d 10             	mov    0x10(%ebp),%edi
    27b5:	89 c2                	mov    %eax,%edx
    27b7:	89 45 d8             	mov    %eax,-0x28(%ebp)
    27ba:	8d 45 e0             	lea    -0x20(%ebp),%eax
    27bd:	50                   	push   %eax
    27be:	51                   	push   %ecx
    27bf:	52                   	push   %edx
    27c0:	57                   	push   %edi
    27c1:	56                   	push   %esi
    27c2:	89 fe                	mov    %edi,%esi
    27c4:	89 4d dc             	mov    %ecx,-0x24(%ebp)
    27c7:	f7 d6                	not    %esi
    27c9:	e8 fc ff ff ff       	call   27ca <lldiv+0x2a>
			27ca: R_386_PC32	__divmoddi4
    27ce:	83 c4 20             	add    $0x20,%esp
    27d1:	89 d3                	mov    %edx,%ebx
    27d3:	8b 55 e4             	mov    -0x1c(%ebp),%edx
    27d6:	89 c1                	mov    %eax,%ecx
    27d8:	8b 45 e0             	mov    -0x20(%ebp),%eax
    27db:	85 d6                	test   %edx,%esi
    27dd:	78 21                	js     2800 <lldiv+0x60>
    27df:	8b 7d 08             	mov    0x8(%ebp),%edi
    27e2:	89 47 08             	mov    %eax,0x8(%edi)
    27e5:	89 f8                	mov    %edi,%eax
    27e7:	89 0f                	mov    %ecx,(%edi)
    27e9:	89 5f 04             	mov    %ebx,0x4(%edi)
    27ec:	89 57 0c             	mov    %edx,0xc(%edi)
    27ef:	8d 65 f4             	lea    -0xc(%ebp),%esp
    27f2:	5b                   	pop    %ebx
    27f3:	5e                   	pop    %esi
    27f4:	5f                   	pop    %edi
    27f5:	5d                   	pop    %ebp
    27f6:	c2 04 00             	ret    $0x4
    27f9:	8d b4 26 00 00 00 00 	lea    0x0(%esi,%eiz,1),%esi
    2800:	83 c1 01             	add    $0x1,%ecx
    2803:	83 d3 00             	adc    $0x0,%ebx
    2806:	2b 45 d8             	sub    -0x28(%ebp),%eax
    2809:	1b 55 dc             	sbb    -0x24(%ebp),%edx
    280c:	eb d1                	jmp    27df <lldiv+0x3f>
    280e:	66 90                	xchg   %ax,%ax

00002810 <_qsort>:
    2810:	55                   	push   %ebp
    2811:	89 e5                	mov    %esp,%ebp
    2813:	57                   	push   %edi
    2814:	56                   	push   %esi
    2815:	53                   	push   %ebx
    2816:	83 ec 4c             	sub    $0x4c,%esp
    2819:	89 45 e0             	mov    %eax,-0x20(%ebp)
    281c:	8b 45 0c             	mov    0xc(%ebp),%eax
    281f:	89 4d d4             	mov    %ecx,-0x2c(%ebp)
    2822:	c1 e9 02             	shr    $0x2,%ecx
    2825:	8d 78 ff             	lea    -0x1(%eax),%edi
    2828:	89 55 b8             	mov    %edx,-0x48(%ebp)
    282b:	89 7d b0             	mov    %edi,-0x50(%ebp)
    282e:	89 4d c4             	mov    %ecx,-0x3c(%ebp)
    2831:	85 c0                	test   %eax,%eax
    2833:	0f 8e c2 03 00 00    	jle    2bfb <_qsort+0x3eb>
    2839:	8b 45 e0             	mov    -0x20(%ebp),%eax
    283c:	0b 45 d4             	or     -0x2c(%ebp),%eax
    283f:	c7 45 d8 02 00 00 00 	movl   $0x2,-0x28(%ebp)
    2846:	a8 03                	test   $0x3,%al
    2848:	0f 84 4a 06 00 00    	je     2e98 <_qsort+0x688>
    284e:	83 7d b8 06          	cmpl   $0x6,-0x48(%ebp)
    2852:	0f 86 56 06 00 00    	jbe    2eae <_qsort+0x69e>
    2858:	8b 7d b8             	mov    -0x48(%ebp),%edi
    285b:	8b 55 d4             	mov    -0x2c(%ebp),%edx
    285e:	8b 4d e0             	mov    -0x20(%ebp),%ecx
    2861:	89 f8                	mov    %edi,%eax
    2863:	d1 e8                	shr    %eax
    2865:	89 ce                	mov    %ecx,%esi
    2867:	0f af c2             	imul   %edx,%eax
    286a:	8d 1c 01             	lea    (%ecx,%eax,1),%ebx
    286d:	8d 47 ff             	lea    -0x1(%edi),%eax
    2870:	0f af c2             	imul   %edx,%eax
    2873:	89 45 dc             	mov    %eax,-0x24(%ebp)
    2876:	01 c6                	add    %eax,%esi
    2878:	83 ff 07             	cmp    $0x7,%edi
    287b:	0f 84 27 01 00 00    	je     29a8 <_qsort+0x198>
    2881:	83 ff 28             	cmp    $0x28,%edi
    2884:	0f 86 d6 05 00 00    	jbe    2e60 <_qsort+0x650>
    288a:	c1 ef 03             	shr    $0x3,%edi
    288d:	83 ec 08             	sub    $0x8,%esp
    2890:	89 f8                	mov    %edi,%eax
    2892:	0f af c2             	imul   %edx,%eax
    2895:	89 c7                	mov    %eax,%edi
    2897:	8d 04 41             	lea    (%ecx,%eax,2),%eax
    289a:	8d 14 39             	lea    (%ecx,%edi,1),%edx
    289d:	89 45 d0             	mov    %eax,-0x30(%ebp)
    28a0:	52                   	push   %edx
    28a1:	51                   	push   %ecx
    28a2:	89 55 e4             	mov    %edx,-0x1c(%ebp)
    28a5:	ff 55 08             	call   *0x8(%ebp)
    28a8:	83 c4 10             	add    $0x10,%esp
    28ab:	85 c0                	test   %eax,%eax
    28ad:	0f 88 82 07 00 00    	js     3035 <_qsort+0x825>
    28b3:	83 ec 08             	sub    $0x8,%esp
    28b6:	ff 75 d0             	push   -0x30(%ebp)
    28b9:	ff 75 e4             	push   -0x1c(%ebp)
    28bc:	ff 55 08             	call   *0x8(%ebp)
    28bf:	83 c4 10             	add    $0x10,%esp
    28c2:	85 c0                	test   %eax,%eax
    28c4:	7f 1b                	jg     28e1 <_qsort+0xd1>
    28c6:	83 ec 08             	sub    $0x8,%esp
    28c9:	ff 75 d0             	push   -0x30(%ebp)
    28cc:	ff 75 e0             	push   -0x20(%ebp)
    28cf:	ff 55 08             	call   *0x8(%ebp)
    28d2:	83 c4 10             	add    $0x10,%esp
    28d5:	85 c0                	test   %eax,%eax
    28d7:	8b 45 d0             	mov    -0x30(%ebp),%eax
    28da:	0f 48 45 e0          	cmovs  -0x20(%ebp),%eax
    28de:	89 45 e4             	mov    %eax,-0x1c(%ebp)
    28e1:	8d 04 3b             	lea    (%ebx,%edi,1),%eax
    28e4:	83 ec 08             	sub    $0x8,%esp
    28e7:	89 f9                	mov    %edi,%ecx
    28e9:	89 45 d0             	mov    %eax,-0x30(%ebp)
    28ec:	89 d8                	mov    %ebx,%eax
    28ee:	f7 d9                	neg    %ecx
    28f0:	29 f8                	sub    %edi,%eax
    28f2:	53                   	push   %ebx
    28f3:	50                   	push   %eax
    28f4:	89 c7                	mov    %eax,%edi
    28f6:	89 4d cc             	mov    %ecx,-0x34(%ebp)
    28f9:	89 45 c8             	mov    %eax,-0x38(%ebp)
    28fc:	ff 55 08             	call   *0x8(%ebp)
    28ff:	83 c4 10             	add    $0x10,%esp
    2902:	85 c0                	test   %eax,%eax
    2904:	0f 88 91 07 00 00    	js     309b <_qsort+0x88b>
    290a:	8b 7d d0             	mov    -0x30(%ebp),%edi
    290d:	83 ec 08             	sub    $0x8,%esp
    2910:	57                   	push   %edi
    2911:	53                   	push   %ebx
    2912:	ff 55 08             	call   *0x8(%ebp)
    2915:	83 c4 10             	add    $0x10,%esp
    2918:	85 c0                	test   %eax,%eax
    291a:	7f 15                	jg     2931 <_qsort+0x121>
    291c:	83 ec 08             	sub    $0x8,%esp
    291f:	89 fb                	mov    %edi,%ebx
    2921:	57                   	push   %edi
    2922:	8b 7d c8             	mov    -0x38(%ebp),%edi
    2925:	57                   	push   %edi
    2926:	ff 55 08             	call   *0x8(%ebp)
    2929:	83 c4 10             	add    $0x10,%esp
    292c:	85 c0                	test   %eax,%eax
    292e:	0f 48 df             	cmovs  %edi,%ebx
    2931:	8b 45 cc             	mov    -0x34(%ebp),%eax
    2934:	83 ec 08             	sub    $0x8,%esp
    2937:	8d 3c 06             	lea    (%esi,%eax,1),%edi
    293a:	01 f8                	add    %edi,%eax
    293c:	57                   	push   %edi
    293d:	50                   	push   %eax
    293e:	89 45 d0             	mov    %eax,-0x30(%ebp)
    2941:	ff 55 08             	call   *0x8(%ebp)
    2944:	83 c4 10             	add    $0x10,%esp
    2947:	85 c0                	test   %eax,%eax
    2949:	0f 88 1d 07 00 00    	js     306c <_qsort+0x85c>
    294f:	83 ec 08             	sub    $0x8,%esp
    2952:	56                   	push   %esi
    2953:	57                   	push   %edi
    2954:	ff 55 08             	call   *0x8(%ebp)
    2957:	83 c4 10             	add    $0x10,%esp
    295a:	85 c0                	test   %eax,%eax
    295c:	7f 13                	jg     2971 <_qsort+0x161>
    295e:	8b 7d d0             	mov    -0x30(%ebp),%edi
    2961:	83 ec 08             	sub    $0x8,%esp
    2964:	56                   	push   %esi
    2965:	57                   	push   %edi
    2966:	ff 55 08             	call   *0x8(%ebp)
    2969:	83 c4 10             	add    $0x10,%esp
    296c:	85 c0                	test   %eax,%eax
    296e:	0f 49 fe             	cmovns %esi,%edi
    2971:	83 ec 08             	sub    $0x8,%esp
    2974:	53                   	push   %ebx
    2975:	ff 75 e4             	push   -0x1c(%ebp)
    2978:	ff 55 08             	call   *0x8(%ebp)
    297b:	83 c4 10             	add    $0x10,%esp
    297e:	85 c0                	test   %eax,%eax
    2980:	0f 88 e7 04 00 00    	js     2e6d <_qsort+0x65d>
    2986:	83 ec 08             	sub    $0x8,%esp
    2989:	57                   	push   %edi
    298a:	53                   	push   %ebx
    298b:	ff 55 08             	call   *0x8(%ebp)
    298e:	83 c4 10             	add    $0x10,%esp
    2991:	85 c0                	test   %eax,%eax
    2993:	7f 13                	jg     29a8 <_qsort+0x198>
    2995:	8b 5d e4             	mov    -0x1c(%ebp),%ebx
    2998:	83 ec 08             	sub    $0x8,%esp
    299b:	57                   	push   %edi
    299c:	53                   	push   %ebx
    299d:	ff 55 08             	call   *0x8(%ebp)
    29a0:	83 c4 10             	add    $0x10,%esp
    29a3:	85 c0                	test   %eax,%eax
    29a5:	0f 49 df             	cmovns %edi,%ebx
    29a8:	8b 45 d8             	mov    -0x28(%ebp),%eax
    29ab:	85 c0                	test   %eax,%eax
    29ad:	0f 85 27 03 00 00    	jne    2cda <_qsort+0x4ca>
    29b3:	8b 7d e0             	mov    -0x20(%ebp),%edi
    29b6:	8b 13                	mov    (%ebx),%edx
    29b8:	8b 07                	mov    (%edi),%eax
    29ba:	89 17                	mov    %edx,(%edi)
    29bc:	89 03                	mov    %eax,(%ebx)
    29be:	8b 45 d4             	mov    -0x2c(%ebp),%eax
    29c1:	01 f8                	add    %edi,%eax
    29c3:	89 45 ac             	mov    %eax,-0x54(%ebp)
    29c6:	8b 7d ac             	mov    -0x54(%ebp),%edi
    29c9:	8b 45 dc             	mov    -0x24(%ebp),%eax
    29cc:	03 45 d4             	add    -0x2c(%ebp),%eax
    29cf:	03 45 e0             	add    -0x20(%ebp),%eax
    29d2:	89 7d a8             	mov    %edi,-0x58(%ebp)
    29d5:	89 45 b4             	mov    %eax,-0x4c(%ebp)
    29d8:	39 f7                	cmp    %esi,%edi
    29da:	0f 87 3b 03 00 00    	ja     2d1b <_qsort+0x50b>
    29e0:	8b 4d d4             	mov    -0x2c(%ebp),%ecx
    29e3:	8b 45 b4             	mov    -0x4c(%ebp),%eax
    29e6:	89 75 d0             	mov    %esi,-0x30(%ebp)
    29e9:	29 c8                	sub    %ecx,%eax
    29eb:	89 45 bc             	mov    %eax,-0x44(%ebp)
    29ee:	8b 45 ac             	mov    -0x54(%ebp),%eax
    29f1:	89 c7                	mov    %eax,%edi
    29f3:	89 45 dc             	mov    %eax,-0x24(%ebp)
    29f6:	89 45 c8             	mov    %eax,-0x38(%ebp)
    29f9:	01 cf                	add    %ecx,%edi
    29fb:	89 7d cc             	mov    %edi,-0x34(%ebp)
    29fe:	31 ff                	xor    %edi,%edi
    2a00:	8b 5d dc             	mov    -0x24(%ebp),%ebx
    2a03:	83 ec 08             	sub    $0x8,%esp
    2a06:	ff 75 e0             	push   -0x20(%ebp)
    2a09:	53                   	push   %ebx
    2a0a:	ff 55 08             	call   *0x8(%ebp)
    2a0d:	83 c4 10             	add    $0x10,%esp
    2a10:	85 c0                	test   %eax,%eax
    2a12:	0f 8e 38 02 00 00    	jle    2c50 <_qsort+0x440>
    2a18:	39 f3                	cmp    %esi,%ebx
    2a1a:	0f 87 07 07 00 00    	ja     3127 <_qsort+0x917>
    2a20:	8b 45 d4             	mov    -0x2c(%ebp),%eax
    2a23:	89 5d c0             	mov    %ebx,-0x40(%ebp)
    2a26:	8b 5d d0             	mov    -0x30(%ebp),%ebx
    2a29:	f7 d8                	neg    %eax
    2a2b:	89 45 e4             	mov    %eax,-0x1c(%ebp)
    2a2e:	eb 1c                	jmp    2a4c <_qsort+0x23c>
    2a30:	8b 06                	mov    (%esi),%eax
    2a32:	8b 13                	mov    (%ebx),%edx
    2a34:	89 16                	mov    %edx,(%esi)
    2a36:	89 03                	mov    %eax,(%ebx)
    2a38:	03 5d e4             	add    -0x1c(%ebp),%ebx
    2a3b:	bf 01 00 00 00       	mov    $0x1,%edi
    2a40:	03 75 e4             	add    -0x1c(%ebp),%esi
    2a43:	3b 75 dc             	cmp    -0x24(%ebp),%esi
    2a46:	0f 82 a1 06 00 00    	jb     30ed <_qsort+0x8dd>
    2a4c:	83 ec 08             	sub    $0x8,%esp
    2a4f:	ff 75 e0             	push   -0x20(%ebp)
    2a52:	56                   	push   %esi
    2a53:	ff 55 08             	call   *0x8(%ebp)
    2a56:	83 c4 10             	add    $0x10,%esp
    2a59:	85 c0                	test   %eax,%eax
    2a5b:	78 73                	js     2ad0 <_qsort+0x2c0>
    2a5d:	75 e1                	jne    2a40 <_qsort+0x230>
    2a5f:	8b 45 d8             	mov    -0x28(%ebp),%eax
    2a62:	85 c0                	test   %eax,%eax
    2a64:	74 ca                	je     2a30 <_qsort+0x220>
    2a66:	83 7d d8 01          	cmpl   $0x1,-0x28(%ebp)
    2a6a:	89 da                	mov    %ebx,%edx
    2a6c:	89 f0                	mov    %esi,%eax
    2a6e:	74 30                	je     2aa0 <_qsort+0x290>
    2a70:	8b 7d d4             	mov    -0x2c(%ebp),%edi
    2a73:	89 5d d0             	mov    %ebx,-0x30(%ebp)
    2a76:	01 f7                	add    %esi,%edi
    2a78:	8d b4 26 00 00 00 00 	lea    0x0(%esi,%eiz,1),%esi
    2a7f:	90                   	nop
    2a80:	0f b6 08             	movzbl (%eax),%ecx
    2a83:	0f b6 1a             	movzbl (%edx),%ebx
    2a86:	83 c0 01             	add    $0x1,%eax
    2a89:	83 c2 01             	add    $0x1,%edx
    2a8c:	88 58 ff             	mov    %bl,-0x1(%eax)
    2a8f:	88 4a ff             	mov    %cl,-0x1(%edx)
    2a92:	39 f8                	cmp    %edi,%eax
    2a94:	75 ea                	jne    2a80 <_qsort+0x270>
    2a96:	8b 5d d0             	mov    -0x30(%ebp),%ebx
    2a99:	eb 9d                	jmp    2a38 <_qsort+0x228>
    2a9b:	8d 74 26 00          	lea    0x0(%esi,%eiz,1),%esi
    2a9f:	90                   	nop
    2aa0:	89 5d d0             	mov    %ebx,-0x30(%ebp)
    2aa3:	8b 4d c4             	mov    -0x3c(%ebp),%ecx
    2aa6:	8d b4 26 00 00 00 00 	lea    0x0(%esi,%eiz,1),%esi
    2aad:	8d 76 00             	lea    0x0(%esi),%esi
    2ab0:	8b 38                	mov    (%eax),%edi
    2ab2:	8b 1a                	mov    (%edx),%ebx
    2ab4:	83 c2 04             	add    $0x4,%edx
    2ab7:	83 c0 04             	add    $0x4,%eax
    2aba:	89 58 fc             	mov    %ebx,-0x4(%eax)
    2abd:	89 7a fc             	mov    %edi,-0x4(%edx)
    2ac0:	83 e9 01             	sub    $0x1,%ecx
    2ac3:	75 eb                	jne    2ab0 <_qsort+0x2a0>
    2ac5:	8b 5d d0             	mov    -0x30(%ebp),%ebx
    2ac8:	e9 6b ff ff ff       	jmp    2a38 <_qsort+0x228>
    2acd:	8d 76 00             	lea    0x0(%esi),%esi
    2ad0:	8b 45 d8             	mov    -0x28(%ebp),%eax
    2ad3:	89 5d d0             	mov    %ebx,-0x30(%ebp)
    2ad6:	8b 5d c0             	mov    -0x40(%ebp),%ebx
    2ad9:	85 c0                	test   %eax,%eax
    2adb:	0f 85 3f 01 00 00    	jne    2c20 <_qsort+0x410>
    2ae1:	8b 7d dc             	mov    -0x24(%ebp),%edi
    2ae4:	8b 16                	mov    (%esi),%edx
    2ae6:	8b 07                	mov    (%edi),%eax
    2ae8:	89 17                	mov    %edx,(%edi)
    2aea:	89 06                	mov    %eax,(%esi)
    2aec:	8b 5d cc             	mov    -0x34(%ebp),%ebx
    2aef:	03 75 e4             	add    -0x1c(%ebp),%esi
    2af2:	bf 01 00 00 00       	mov    $0x1,%edi
    2af7:	8b 4d d4             	mov    -0x2c(%ebp),%ecx
    2afa:	01 4d dc             	add    %ecx,-0x24(%ebp)
    2afd:	01 4d cc             	add    %ecx,-0x34(%ebp)
    2b00:	39 de                	cmp    %ebx,%esi
    2b02:	0f 83 f8 fe ff ff    	jae    2a00 <_qsort+0x1f0>
    2b08:	8b 55 d0             	mov    -0x30(%ebp),%edx
    2b0b:	89 d8                	mov    %ebx,%eax
    2b0d:	2b 45 c8             	sub    -0x38(%ebp),%eax
    2b10:	89 45 dc             	mov    %eax,-0x24(%ebp)
    2b13:	89 55 cc             	mov    %edx,-0x34(%ebp)
    2b16:	89 d1                	mov    %edx,%ecx
    2b18:	8b 45 bc             	mov    -0x44(%ebp),%eax
    2b1b:	29 f1                	sub    %esi,%ecx
    2b1d:	89 4d d0             	mov    %ecx,-0x30(%ebp)
    2b20:	29 d0                	sub    %edx,%eax
    2b22:	39 c8                	cmp    %ecx,%eax
    2b24:	89 c2                	mov    %eax,%edx
    2b26:	8b 45 dc             	mov    -0x24(%ebp),%eax
    2b29:	0f 47 d1             	cmova  %ecx,%edx
    2b2c:	89 55 e4             	mov    %edx,-0x1c(%ebp)
    2b2f:	8b 55 c8             	mov    -0x38(%ebp),%edx
    2b32:	2b 55 e0             	sub    -0x20(%ebp),%edx
    2b35:	39 c2                	cmp    %eax,%edx
    2b37:	0f 47 d0             	cmova  %eax,%edx
    2b3a:	85 d2                	test   %edx,%edx
    2b3c:	74 42                	je     2b80 <_qsort+0x370>
    2b3e:	89 d8                	mov    %ebx,%eax
    2b40:	29 d0                	sub    %edx,%eax
    2b42:	83 7d d8 01          	cmpl   $0x1,-0x28(%ebp)
    2b46:	0f 87 13 04 00 00    	ja     2f5f <_qsort+0x74f>
    2b4c:	89 7d c8             	mov    %edi,-0x38(%ebp)
    2b4f:	8b 4d e0             	mov    -0x20(%ebp),%ecx
    2b52:	c1 ea 02             	shr    $0x2,%edx
    2b55:	89 5d c0             	mov    %ebx,-0x40(%ebp)
    2b58:	8b 39                	mov    (%ecx),%edi
    2b5a:	8b 18                	mov    (%eax),%ebx
    2b5c:	83 c0 04             	add    $0x4,%eax
    2b5f:	83 c1 04             	add    $0x4,%ecx
    2b62:	89 59 fc             	mov    %ebx,-0x4(%ecx)
    2b65:	89 78 fc             	mov    %edi,-0x4(%eax)
    2b68:	83 ea 01             	sub    $0x1,%edx
    2b6b:	75 eb                	jne    2b58 <_qsort+0x348>
    2b6d:	8b 7d c8             	mov    -0x38(%ebp),%edi
    2b70:	8b 5d c0             	mov    -0x40(%ebp),%ebx
    2b73:	8d b4 26 00 00 00 00 	lea    0x0(%esi,%eiz,1),%esi
    2b7a:	8d b6 00 00 00 00    	lea    0x0(%esi),%esi
    2b80:	8b 45 e4             	mov    -0x1c(%ebp),%eax
    2b83:	85 c0                	test   %eax,%eax
    2b85:	74 32                	je     2bb9 <_qsort+0x3a9>
    2b87:	8b 4d d8             	mov    -0x28(%ebp),%ecx
    2b8a:	8b 45 b4             	mov    -0x4c(%ebp),%eax
    2b8d:	2b 45 e4             	sub    -0x1c(%ebp),%eax
    2b90:	85 c9                	test   %ecx,%ecx
    2b92:	0f 85 3b 04 00 00    	jne    2fd3 <_qsort+0x7c3>
    2b98:	8b 4d e4             	mov    -0x1c(%ebp),%ecx
    2b9b:	89 75 e4             	mov    %esi,-0x1c(%ebp)
    2b9e:	c1 e9 02             	shr    $0x2,%ecx
    2ba1:	8b 13                	mov    (%ebx),%edx
    2ba3:	8b 30                	mov    (%eax),%esi
    2ba5:	83 c0 04             	add    $0x4,%eax
    2ba8:	83 c3 04             	add    $0x4,%ebx
    2bab:	89 73 fc             	mov    %esi,-0x4(%ebx)
    2bae:	89 50 fc             	mov    %edx,-0x4(%eax)
    2bb1:	83 e9 01             	sub    $0x1,%ecx
    2bb4:	75 eb                	jne    2ba1 <_qsort+0x391>
    2bb6:	8b 75 e4             	mov    -0x1c(%ebp),%esi
    2bb9:	85 ff                	test   %edi,%edi
    2bbb:	0f 84 6b 01 00 00    	je     2d2c <_qsort+0x51c>
    2bc1:	8b 7d dc             	mov    -0x24(%ebp),%edi
    2bc4:	39 7d d4             	cmp    %edi,-0x2c(%ebp)
    2bc7:	0f 82 27 02 00 00    	jb     2df4 <_qsort+0x5e4>
    2bcd:	8b 7d d0             	mov    -0x30(%ebp),%edi
    2bd0:	8b 4d d4             	mov    -0x2c(%ebp),%ecx
    2bd3:	39 cf                	cmp    %ecx,%edi
    2bd5:	76 38                	jbe    2c0f <_qsort+0x3ff>
    2bd7:	89 f0                	mov    %esi,%eax
    2bd9:	2b 45 cc             	sub    -0x34(%ebp),%eax
    2bdc:	03 45 b4             	add    -0x4c(%ebp),%eax
    2bdf:	31 d2                	xor    %edx,%edx
    2be1:	89 45 e0             	mov    %eax,-0x20(%ebp)
    2be4:	89 f8                	mov    %edi,%eax
    2be6:	f7 f1                	div    %ecx
    2be8:	83 6d b0 01          	subl   $0x1,-0x50(%ebp)
    2bec:	89 45 b8             	mov    %eax,-0x48(%ebp)
    2bef:	8b 45 b0             	mov    -0x50(%ebp),%eax
    2bf2:	83 f8 ff             	cmp    $0xffffffff,%eax
    2bf5:	0f 85 3e fc ff ff    	jne    2839 <_qsort+0x29>
    2bfb:	ff 75 08             	push   0x8(%ebp)
    2bfe:	ff 75 d4             	push   -0x2c(%ebp)
    2c01:	ff 75 b8             	push   -0x48(%ebp)
    2c04:	ff 75 e0             	push   -0x20(%ebp)
    2c07:	e8 fc ff ff ff       	call   2c08 <_qsort+0x3f8>
			2c08: R_386_PC32	heapsort
    2c0c:	83 c4 10             	add    $0x10,%esp
    2c0f:	8d 65 f4             	lea    -0xc(%ebp),%esp
    2c12:	5b                   	pop    %ebx
    2c13:	5e                   	pop    %esi
    2c14:	5f                   	pop    %edi
    2c15:	5d                   	pop    %ebp
    2c16:	c3                   	ret    
    2c17:	8d b4 26 00 00 00 00 	lea    0x0(%esi,%eiz,1),%esi
    2c1e:	66 90                	xchg   %ax,%ax
    2c20:	83 7d d8 01          	cmpl   $0x1,-0x28(%ebp)
    2c24:	8b 7d cc             	mov    -0x34(%ebp),%edi
    2c27:	89 f0                	mov    %esi,%eax
    2c29:	74 55                	je     2c80 <_qsort+0x470>
    2c2b:	8d 74 26 00          	lea    0x0(%esi,%eiz,1),%esi
    2c2f:	90                   	nop
    2c30:	0f b6 13             	movzbl (%ebx),%edx
    2c33:	0f b6 08             	movzbl (%eax),%ecx
    2c36:	83 c3 01             	add    $0x1,%ebx
    2c39:	83 c0 01             	add    $0x1,%eax
    2c3c:	88 4b ff             	mov    %cl,-0x1(%ebx)
    2c3f:	88 50 ff             	mov    %dl,-0x1(%eax)
    2c42:	39 fb                	cmp    %edi,%ebx
    2c44:	75 ea                	jne    2c30 <_qsort+0x420>
    2c46:	e9 a1 fe ff ff       	jmp    2aec <_qsort+0x2dc>
    2c4b:	8d 74 26 00          	lea    0x0(%esi,%eiz,1),%esi
    2c4f:	90                   	nop
    2c50:	75 23                	jne    2c75 <_qsort+0x465>
    2c52:	8b 45 d8             	mov    -0x28(%ebp),%eax
    2c55:	85 c0                	test   %eax,%eax
    2c57:	75 51                	jne    2caa <_qsort+0x49a>
    2c59:	8b 7d c8             	mov    -0x38(%ebp),%edi
    2c5c:	8b 4d dc             	mov    -0x24(%ebp),%ecx
    2c5f:	8b 07                	mov    (%edi),%eax
    2c61:	8b 11                	mov    (%ecx),%edx
    2c63:	89 17                	mov    %edx,(%edi)
    2c65:	89 01                	mov    %eax,(%ecx)
    2c67:	8b 45 d4             	mov    -0x2c(%ebp),%eax
    2c6a:	8d 0c 07             	lea    (%edi,%eax,1),%ecx
    2c6d:	89 4d c8             	mov    %ecx,-0x38(%ebp)
    2c70:	bf 01 00 00 00       	mov    $0x1,%edi
    2c75:	8b 5d cc             	mov    -0x34(%ebp),%ebx
    2c78:	e9 7a fe ff ff       	jmp    2af7 <_qsort+0x2e7>
    2c7d:	8d 76 00             	lea    0x0(%esi),%esi
    2c80:	8b 55 c4             	mov    -0x3c(%ebp),%edx
    2c83:	8d b4 26 00 00 00 00 	lea    0x0(%esi,%eiz,1),%esi
    2c8a:	8d b6 00 00 00 00    	lea    0x0(%esi),%esi
    2c90:	8b 0b                	mov    (%ebx),%ecx
    2c92:	8b 38                	mov    (%eax),%edi
    2c94:	83 c0 04             	add    $0x4,%eax
    2c97:	83 c3 04             	add    $0x4,%ebx
    2c9a:	89 7b fc             	mov    %edi,-0x4(%ebx)
    2c9d:	89 48 fc             	mov    %ecx,-0x4(%eax)
    2ca0:	83 ea 01             	sub    $0x1,%edx
    2ca3:	75 eb                	jne    2c90 <_qsort+0x480>
    2ca5:	e9 42 fe ff ff       	jmp    2aec <_qsort+0x2dc>
    2caa:	8b 45 c8             	mov    -0x38(%ebp),%eax
    2cad:	8b 4d d4             	mov    -0x2c(%ebp),%ecx
    2cb0:	01 c1                	add    %eax,%ecx
    2cb2:	83 7d d8 01          	cmpl   $0x1,-0x28(%ebp)
    2cb6:	89 cf                	mov    %ecx,%edi
    2cb8:	0f 84 de 02 00 00    	je     2f9c <_qsort+0x78c>
    2cbe:	66 90                	xchg   %ax,%ax
    2cc0:	0f b6 10             	movzbl (%eax),%edx
    2cc3:	0f b6 0b             	movzbl (%ebx),%ecx
    2cc6:	83 c0 01             	add    $0x1,%eax
    2cc9:	83 c3 01             	add    $0x1,%ebx
    2ccc:	88 48 ff             	mov    %cl,-0x1(%eax)
    2ccf:	88 53 ff             	mov    %dl,-0x1(%ebx)
    2cd2:	39 c7                	cmp    %eax,%edi
    2cd4:	75 ea                	jne    2cc0 <_qsort+0x4b0>
    2cd6:	89 f9                	mov    %edi,%ecx
    2cd8:	eb 93                	jmp    2c6d <_qsort+0x45d>
    2cda:	8b 45 e0             	mov    -0x20(%ebp),%eax
    2cdd:	8b 7d d4             	mov    -0x2c(%ebp),%edi
    2ce0:	01 c7                	add    %eax,%edi
    2ce2:	83 7d d8 01          	cmpl   $0x1,-0x28(%ebp)
    2ce6:	89 7d ac             	mov    %edi,-0x54(%ebp)
    2ce9:	8b 7d ac             	mov    -0x54(%ebp),%edi
    2cec:	0f 84 1a 03 00 00    	je     300c <_qsort+0x7fc>
    2cf2:	8d b4 26 00 00 00 00 	lea    0x0(%esi,%eiz,1),%esi
    2cf9:	8d b4 26 00 00 00 00 	lea    0x0(%esi,%eiz,1),%esi
    2d00:	0f b6 10             	movzbl (%eax),%edx
    2d03:	0f b6 0b             	movzbl (%ebx),%ecx
    2d06:	83 c0 01             	add    $0x1,%eax
    2d09:	83 c3 01             	add    $0x1,%ebx
    2d0c:	88 48 ff             	mov    %cl,-0x1(%eax)
    2d0f:	88 53 ff             	mov    %dl,-0x1(%ebx)
    2d12:	39 f8                	cmp    %edi,%eax
    2d14:	75 ea                	jne    2d00 <_qsort+0x4f0>
    2d16:	e9 ab fc ff ff       	jmp    29c6 <_qsort+0x1b6>
    2d1b:	89 75 cc             	mov    %esi,-0x34(%ebp)
    2d1e:	c7 45 dc 00 00 00 00 	movl   $0x0,-0x24(%ebp)
    2d25:	c7 45 d0 00 00 00 00 	movl   $0x0,-0x30(%ebp)
    2d2c:	8b 45 b8             	mov    -0x48(%ebp),%eax
    2d2f:	8b 7d b4             	mov    -0x4c(%ebp),%edi
    2d32:	c1 e8 02             	shr    $0x2,%eax
    2d35:	83 c0 01             	add    $0x1,%eax
    2d38:	89 45 c0             	mov    %eax,-0x40(%ebp)
    2d3b:	39 7d ac             	cmp    %edi,-0x54(%ebp)
    2d3e:	0f 83 cb fe ff ff    	jae    2c0f <_qsort+0x3ff>
    2d44:	8b 45 d4             	mov    -0x2c(%ebp),%eax
    2d47:	8b 5d a8             	mov    -0x58(%ebp),%ebx
    2d4a:	c7 45 e4 00 00 00 00 	movl   $0x0,-0x1c(%ebp)
    2d51:	89 75 ac             	mov    %esi,-0x54(%ebp)
    2d54:	f7 d8                	neg    %eax
    2d56:	89 45 c8             	mov    %eax,-0x38(%ebp)
    2d59:	8b 45 d4             	mov    -0x2c(%ebp),%eax
    2d5c:	01 d8                	add    %ebx,%eax
    2d5e:	89 45 b8             	mov    %eax,-0x48(%ebp)
    2d61:	89 c7                	mov    %eax,%edi
    2d63:	eb 29                	jmp    2d8e <_qsort+0x57e>
    2d65:	8d b4 26 00 00 00 00 	lea    0x0(%esi,%eiz,1),%esi
    2d6c:	8d 74 26 00          	lea    0x0(%esi,%eiz,1),%esi
    2d70:	8b 4d d4             	mov    -0x2c(%ebp),%ecx
    2d73:	8b 16                	mov    (%esi),%edx
    2d75:	8b 04 0e             	mov    (%esi,%ecx,1),%eax
    2d78:	89 14 0e             	mov    %edx,(%esi,%ecx,1)
    2d7b:	89 06                	mov    %eax,(%esi)
    2d7d:	83 45 e4 01          	addl   $0x1,-0x1c(%ebp)
    2d81:	2b 7d d4             	sub    -0x2c(%ebp),%edi
    2d84:	8b 45 e4             	mov    -0x1c(%ebp),%eax
    2d87:	39 45 c0             	cmp    %eax,-0x40(%ebp)
    2d8a:	72 59                	jb     2de5 <_qsort+0x5d5>
    2d8c:	89 f3                	mov    %esi,%ebx
    2d8e:	3b 5d e0             	cmp    -0x20(%ebp),%ebx
    2d91:	0f 86 a6 00 00 00    	jbe    2e3d <_qsort+0x62d>
    2d97:	8b 45 c8             	mov    -0x38(%ebp),%eax
    2d9a:	83 ec 08             	sub    $0x8,%esp
    2d9d:	53                   	push   %ebx
    2d9e:	8d 34 03             	lea    (%ebx,%eax,1),%esi
    2da1:	56                   	push   %esi
    2da2:	ff 55 08             	call   *0x8(%ebp)
    2da5:	83 c4 10             	add    $0x10,%esp
    2da8:	85 c0                	test   %eax,%eax
    2daa:	0f 8e 8d 00 00 00    	jle    2e3d <_qsort+0x62d>
    2db0:	8b 55 d8             	mov    -0x28(%ebp),%edx
    2db3:	85 d2                	test   %edx,%edx
    2db5:	74 b9                	je     2d70 <_qsort+0x560>
    2db7:	83 7d d8 01          	cmpl   $0x1,-0x28(%ebp)
    2dbb:	89 f0                	mov    %esi,%eax
    2dbd:	74 59                	je     2e18 <_qsort+0x608>
    2dbf:	90                   	nop
    2dc0:	0f b6 13             	movzbl (%ebx),%edx
    2dc3:	0f b6 08             	movzbl (%eax),%ecx
    2dc6:	83 c3 01             	add    $0x1,%ebx
    2dc9:	83 c0 01             	add    $0x1,%eax
    2dcc:	88 4b ff             	mov    %cl,-0x1(%ebx)
    2dcf:	88 50 ff             	mov    %dl,-0x1(%eax)
    2dd2:	39 fb                	cmp    %edi,%ebx
    2dd4:	75 ea                	jne    2dc0 <_qsort+0x5b0>
    2dd6:	83 45 e4 01          	addl   $0x1,-0x1c(%ebp)
    2dda:	2b 7d d4             	sub    -0x2c(%ebp),%edi
    2ddd:	8b 45 e4             	mov    -0x1c(%ebp),%eax
    2de0:	39 45 c0             	cmp    %eax,-0x40(%ebp)
    2de3:	73 a7                	jae    2d8c <_qsort+0x57c>
    2de5:	8b 75 ac             	mov    -0x54(%ebp),%esi
    2de8:	8b 7d dc             	mov    -0x24(%ebp),%edi
    2deb:	39 7d d4             	cmp    %edi,-0x2c(%ebp)
    2dee:	0f 83 d9 fd ff ff    	jae    2bcd <_qsort+0x3bd>
    2df4:	8b 4d d4             	mov    -0x2c(%ebp),%ecx
    2df7:	89 f8                	mov    %edi,%eax
    2df9:	31 d2                	xor    %edx,%edx
    2dfb:	83 ec 08             	sub    $0x8,%esp
    2dfe:	ff 75 b0             	push   -0x50(%ebp)
    2e01:	f7 f1                	div    %ecx
    2e03:	ff 75 08             	push   0x8(%ebp)
    2e06:	89 c2                	mov    %eax,%edx
    2e08:	8b 45 e0             	mov    -0x20(%ebp),%eax
    2e0b:	e8 00 fa ff ff       	call   2810 <_qsort>
    2e10:	83 c4 10             	add    $0x10,%esp
    2e13:	e9 b5 fd ff ff       	jmp    2bcd <_qsort+0x3bd>
    2e18:	89 75 bc             	mov    %esi,-0x44(%ebp)
    2e1b:	8b 55 c4             	mov    -0x3c(%ebp),%edx
    2e1e:	66 90                	xchg   %ax,%ax
    2e20:	8b 0b                	mov    (%ebx),%ecx
    2e22:	8b 30                	mov    (%eax),%esi
    2e24:	83 c0 04             	add    $0x4,%eax
    2e27:	83 c3 04             	add    $0x4,%ebx
    2e2a:	89 73 fc             	mov    %esi,-0x4(%ebx)
    2e2d:	89 48 fc             	mov    %ecx,-0x4(%eax)
    2e30:	83 ea 01             	sub    $0x1,%edx
    2e33:	75 eb                	jne    2e20 <_qsort+0x610>
    2e35:	8b 75 bc             	mov    -0x44(%ebp),%esi
    2e38:	e9 40 ff ff ff       	jmp    2d7d <_qsort+0x56d>
    2e3d:	8b 5d b8             	mov    -0x48(%ebp),%ebx
    2e40:	3b 5d b4             	cmp    -0x4c(%ebp),%ebx
    2e43:	0f 82 10 ff ff ff    	jb     2d59 <_qsort+0x549>
    2e49:	8d 65 f4             	lea    -0xc(%ebp),%esp
    2e4c:	5b                   	pop    %ebx
    2e4d:	5e                   	pop    %esi
    2e4e:	5f                   	pop    %edi
    2e4f:	5d                   	pop    %ebp
    2e50:	c3                   	ret    
    2e51:	8d b4 26 00 00 00 00 	lea    0x0(%esi,%eiz,1),%esi
    2e58:	8d b4 26 00 00 00 00 	lea    0x0(%esi,%eiz,1),%esi
    2e5f:	90                   	nop
    2e60:	8b 45 e0             	mov    -0x20(%ebp),%eax
    2e63:	89 f7                	mov    %esi,%edi
    2e65:	89 45 e4             	mov    %eax,-0x1c(%ebp)
    2e68:	e9 04 fb ff ff       	jmp    2971 <_qsort+0x161>
    2e6d:	83 ec 08             	sub    $0x8,%esp
    2e70:	57                   	push   %edi
    2e71:	53                   	push   %ebx
    2e72:	ff 55 08             	call   *0x8(%ebp)
    2e75:	83 c4 10             	add    $0x10,%esp
    2e78:	85 c0                	test   %eax,%eax
    2e7a:	0f 88 28 fb ff ff    	js     29a8 <_qsort+0x198>
    2e80:	8b 5d e4             	mov    -0x1c(%ebp),%ebx
    2e83:	83 ec 08             	sub    $0x8,%esp
    2e86:	57                   	push   %edi
    2e87:	53                   	push   %ebx
    2e88:	ff 55 08             	call   *0x8(%ebp)
    2e8b:	83 c4 10             	add    $0x10,%esp
    2e8e:	85 c0                	test   %eax,%eax
    2e90:	0f 48 df             	cmovs  %edi,%ebx
    2e93:	e9 10 fb ff ff       	jmp    29a8 <_qsort+0x198>
    2e98:	31 c0                	xor    %eax,%eax
    2e9a:	83 7d d4 04          	cmpl   $0x4,-0x2c(%ebp)
    2e9e:	0f 95 c0             	setne  %al
    2ea1:	83 7d b8 06          	cmpl   $0x6,-0x48(%ebp)
    2ea5:	89 45 d8             	mov    %eax,-0x28(%ebp)
    2ea8:	0f 87 aa f9 ff ff    	ja     2858 <_qsort+0x48>
    2eae:	8b 4d d4             	mov    -0x2c(%ebp),%ecx
    2eb1:	8b 45 b8             	mov    -0x48(%ebp),%eax
    2eb4:	8b 7d e0             	mov    -0x20(%ebp),%edi
    2eb7:	0f af c1             	imul   %ecx,%eax
    2eba:	89 fe                	mov    %edi,%esi
    2ebc:	01 ce                	add    %ecx,%esi
    2ebe:	01 f8                	add    %edi,%eax
    2ec0:	89 cf                	mov    %ecx,%edi
    2ec2:	89 75 d0             	mov    %esi,-0x30(%ebp)
    2ec5:	89 45 cc             	mov    %eax,-0x34(%ebp)
    2ec8:	f7 df                	neg    %edi
    2eca:	39 c6                	cmp    %eax,%esi
    2ecc:	0f 83 3d fd ff ff    	jae    2c0f <_qsort+0x3ff>
    2ed2:	89 7d dc             	mov    %edi,-0x24(%ebp)
    2ed5:	8b 7d d4             	mov    -0x2c(%ebp),%edi
    2ed8:	8b 45 d0             	mov    -0x30(%ebp),%eax
    2edb:	39 45 e0             	cmp    %eax,-0x20(%ebp)
    2ede:	73 6c                	jae    2f4c <_qsort+0x73c>
    2ee0:	89 c6                	mov    %eax,%esi
    2ee2:	eb 1e                	jmp    2f02 <_qsort+0x6f2>
    2ee4:	8d b4 26 00 00 00 00 	lea    0x0(%esi,%eiz,1),%esi
    2eeb:	8d 74 26 00          	lea    0x0(%esi,%eiz,1),%esi
    2eef:	90                   	nop
    2ef0:	8b 4d dc             	mov    -0x24(%ebp),%ecx
    2ef3:	8b 03                	mov    (%ebx),%eax
    2ef5:	8b 14 0b             	mov    (%ebx,%ecx,1),%edx
    2ef8:	89 13                	mov    %edx,(%ebx)
    2efa:	89 04 0b             	mov    %eax,(%ebx,%ecx,1)
    2efd:	3b 75 e0             	cmp    -0x20(%ebp),%esi
    2f00:	76 4a                	jbe    2f4c <_qsort+0x73c>
    2f02:	83 ec 08             	sub    $0x8,%esp
    2f05:	89 f3                	mov    %esi,%ebx
    2f07:	29 fe                	sub    %edi,%esi
    2f09:	53                   	push   %ebx
    2f0a:	56                   	push   %esi
    2f0b:	ff 55 08             	call   *0x8(%ebp)
    2f0e:	83 c4 10             	add    $0x10,%esp
    2f11:	85 c0                	test   %eax,%eax
    2f13:	7e 37                	jle    2f4c <_qsort+0x73c>
    2f15:	8b 45 d8             	mov    -0x28(%ebp),%eax
    2f18:	85 c0                	test   %eax,%eax
    2f1a:	74 d4                	je     2ef0 <_qsort+0x6e0>
    2f1c:	83 7d d8 01          	cmpl   $0x1,-0x28(%ebp)
    2f20:	89 f0                	mov    %esi,%eax
    2f22:	8d 0c 1f             	lea    (%edi,%ebx,1),%ecx
    2f25:	0f 84 9f 01 00 00    	je     30ca <_qsort+0x8ba>
    2f2b:	89 4d e4             	mov    %ecx,-0x1c(%ebp)
    2f2e:	66 90                	xchg   %ax,%ax
    2f30:	0f b6 13             	movzbl (%ebx),%edx
    2f33:	0f b6 08             	movzbl (%eax),%ecx
    2f36:	83 c0 01             	add    $0x1,%eax
    2f39:	83 c3 01             	add    $0x1,%ebx
    2f3c:	88 4b ff             	mov    %cl,-0x1(%ebx)
    2f3f:	88 50 ff             	mov    %dl,-0x1(%eax)
    2f42:	3b 5d e4             	cmp    -0x1c(%ebp),%ebx
    2f45:	75 e9                	jne    2f30 <_qsort+0x720>
    2f47:	3b 75 e0             	cmp    -0x20(%ebp),%esi
    2f4a:	77 b6                	ja     2f02 <_qsort+0x6f2>
    2f4c:	01 7d d0             	add    %edi,-0x30(%ebp)
    2f4f:	8b 45 d0             	mov    -0x30(%ebp),%eax
    2f52:	3b 45 cc             	cmp    -0x34(%ebp),%eax
    2f55:	72 81                	jb     2ed8 <_qsort+0x6c8>
    2f57:	8d 65 f4             	lea    -0xc(%ebp),%esp
    2f5a:	5b                   	pop    %ebx
    2f5b:	5e                   	pop    %esi
    2f5c:	5f                   	pop    %edi
    2f5d:	5d                   	pop    %ebp
    2f5e:	c3                   	ret    
    2f5f:	89 d1                	mov    %edx,%ecx
    2f61:	8b 55 e0             	mov    -0x20(%ebp),%edx
    2f64:	89 5d c0             	mov    %ebx,-0x40(%ebp)
    2f67:	01 d1                	add    %edx,%ecx
    2f69:	89 4d c8             	mov    %ecx,-0x38(%ebp)
    2f6c:	8d 74 26 00          	lea    0x0(%esi,%eiz,1),%esi
    2f70:	0f b6 0a             	movzbl (%edx),%ecx
    2f73:	0f b6 18             	movzbl (%eax),%ebx
    2f76:	83 c0 01             	add    $0x1,%eax
    2f79:	83 c2 01             	add    $0x1,%edx
    2f7c:	88 5a ff             	mov    %bl,-0x1(%edx)
    2f7f:	88 48 ff             	mov    %cl,-0x1(%eax)
    2f82:	39 55 c8             	cmp    %edx,-0x38(%ebp)
    2f85:	75 e9                	jne    2f70 <_qsort+0x760>
    2f87:	8b 4d e4             	mov    -0x1c(%ebp),%ecx
    2f8a:	8b 5d c0             	mov    -0x40(%ebp),%ebx
    2f8d:	85 c9                	test   %ecx,%ecx
    2f8f:	0f 84 24 fc ff ff    	je     2bb9 <_qsort+0x3a9>
    2f95:	8b 45 b4             	mov    -0x4c(%ebp),%eax
    2f98:	29 c8                	sub    %ecx,%eax
    2f9a:	eb 41                	jmp    2fdd <_qsort+0x7cd>
    2f9c:	8b 4d c4             	mov    -0x3c(%ebp),%ecx
    2f9f:	89 c2                	mov    %eax,%edx
    2fa1:	8d b4 26 00 00 00 00 	lea    0x0(%esi,%eiz,1),%esi
    2fa8:	8d b4 26 00 00 00 00 	lea    0x0(%esi,%eiz,1),%esi
    2faf:	90                   	nop
    2fb0:	8b 02                	mov    (%edx),%eax
    2fb2:	8b 3b                	mov    (%ebx),%edi
    2fb4:	83 c3 04             	add    $0x4,%ebx
    2fb7:	83 c2 04             	add    $0x4,%edx
    2fba:	89 7a fc             	mov    %edi,-0x4(%edx)
    2fbd:	89 43 fc             	mov    %eax,-0x4(%ebx)
    2fc0:	83 e9 01             	sub    $0x1,%ecx
    2fc3:	75 eb                	jne    2fb0 <_qsort+0x7a0>
    2fc5:	8b 45 c8             	mov    -0x38(%ebp),%eax
    2fc8:	8b 7d d4             	mov    -0x2c(%ebp),%edi
    2fcb:	8d 0c 38             	lea    (%eax,%edi,1),%ecx
    2fce:	e9 9a fc ff ff       	jmp    2c6d <_qsort+0x45d>
    2fd3:	83 7d d8 01          	cmpl   $0x1,-0x28(%ebp)
    2fd7:	0f 84 bb fb ff ff    	je     2b98 <_qsort+0x388>
    2fdd:	8b 4d e4             	mov    -0x1c(%ebp),%ecx
    2fe0:	01 d9                	add    %ebx,%ecx
    2fe2:	89 4d e4             	mov    %ecx,-0x1c(%ebp)
    2fe5:	8d b4 26 00 00 00 00 	lea    0x0(%esi,%eiz,1),%esi
    2fec:	8d 74 26 00          	lea    0x0(%esi,%eiz,1),%esi
    2ff0:	0f b6 13             	movzbl (%ebx),%edx
    2ff3:	0f b6 08             	movzbl (%eax),%ecx
    2ff6:	83 c0 01             	add    $0x1,%eax
    2ff9:	83 c3 01             	add    $0x1,%ebx
    2ffc:	88 4b ff             	mov    %cl,-0x1(%ebx)
    2fff:	88 50 ff             	mov    %dl,-0x1(%eax)
    3002:	39 5d e4             	cmp    %ebx,-0x1c(%ebp)
    3005:	75 e9                	jne    2ff0 <_qsort+0x7e0>
    3007:	e9 ad fb ff ff       	jmp    2bb9 <_qsort+0x3a9>
    300c:	8b 55 c4             	mov    -0x3c(%ebp),%edx
    300f:	90                   	nop
    3010:	8b 08                	mov    (%eax),%ecx
    3012:	8b 3b                	mov    (%ebx),%edi
    3014:	83 c3 04             	add    $0x4,%ebx
    3017:	83 c0 04             	add    $0x4,%eax
    301a:	89 78 fc             	mov    %edi,-0x4(%eax)
    301d:	89 4b fc             	mov    %ecx,-0x4(%ebx)
    3020:	83 ea 01             	sub    $0x1,%edx
    3023:	75 eb                	jne    3010 <_qsort+0x800>
    3025:	8b 45 e0             	mov    -0x20(%ebp),%eax
    3028:	8b 7d d4             	mov    -0x2c(%ebp),%edi
    302b:	01 f8                	add    %edi,%eax
    302d:	89 45 ac             	mov    %eax,-0x54(%ebp)
    3030:	e9 91 f9 ff ff       	jmp    29c6 <_qsort+0x1b6>
    3035:	83 ec 08             	sub    $0x8,%esp
    3038:	ff 75 d0             	push   -0x30(%ebp)
    303b:	ff 75 e4             	push   -0x1c(%ebp)
    303e:	ff 55 08             	call   *0x8(%ebp)
    3041:	83 c4 10             	add    $0x10,%esp
    3044:	85 c0                	test   %eax,%eax
    3046:	0f 88 95 f8 ff ff    	js     28e1 <_qsort+0xd1>
    304c:	83 ec 08             	sub    $0x8,%esp
    304f:	ff 75 d0             	push   -0x30(%ebp)
    3052:	ff 75 e0             	push   -0x20(%ebp)
    3055:	ff 55 08             	call   *0x8(%ebp)
    3058:	83 c4 10             	add    $0x10,%esp
    305b:	85 c0                	test   %eax,%eax
    305d:	8b 45 d0             	mov    -0x30(%ebp),%eax
    3060:	0f 49 45 e0          	cmovns -0x20(%ebp),%eax
    3064:	89 45 e4             	mov    %eax,-0x1c(%ebp)
    3067:	e9 75 f8 ff ff       	jmp    28e1 <_qsort+0xd1>
    306c:	83 ec 08             	sub    $0x8,%esp
    306f:	56                   	push   %esi
    3070:	57                   	push   %edi
    3071:	ff 55 08             	call   *0x8(%ebp)
    3074:	83 c4 10             	add    $0x10,%esp
    3077:	85 c0                	test   %eax,%eax
    3079:	0f 88 f2 f8 ff ff    	js     2971 <_qsort+0x161>
    307f:	8b 7d d0             	mov    -0x30(%ebp),%edi
    3082:	83 ec 08             	sub    $0x8,%esp
    3085:	56                   	push   %esi
    3086:	57                   	push   %edi
    3087:	ff 55 08             	call   *0x8(%ebp)
    308a:	83 c4 10             	add    $0x10,%esp
    308d:	85 c0                	test   %eax,%eax
    308f:	89 f8                	mov    %edi,%eax
    3091:	0f 48 c6             	cmovs  %esi,%eax
    3094:	89 c7                	mov    %eax,%edi
    3096:	e9 d6 f8 ff ff       	jmp    2971 <_qsort+0x161>
    309b:	83 ec 08             	sub    $0x8,%esp
    309e:	ff 75 d0             	push   -0x30(%ebp)
    30a1:	53                   	push   %ebx
    30a2:	ff 55 08             	call   *0x8(%ebp)
    30a5:	83 c4 10             	add    $0x10,%esp
    30a8:	85 c0                	test   %eax,%eax
    30aa:	0f 88 81 f8 ff ff    	js     2931 <_qsort+0x121>
    30b0:	8b 5d d0             	mov    -0x30(%ebp),%ebx
    30b3:	83 ec 08             	sub    $0x8,%esp
    30b6:	53                   	push   %ebx
    30b7:	57                   	push   %edi
    30b8:	ff 55 08             	call   *0x8(%ebp)
    30bb:	83 c4 10             	add    $0x10,%esp
    30be:	85 c0                	test   %eax,%eax
    30c0:	0f 48 fb             	cmovs  %ebx,%edi
    30c3:	89 fb                	mov    %edi,%ebx
    30c5:	e9 67 f8 ff ff       	jmp    2931 <_qsort+0x121>
    30ca:	89 75 e4             	mov    %esi,-0x1c(%ebp)
    30cd:	8b 55 c4             	mov    -0x3c(%ebp),%edx
    30d0:	8b 0b                	mov    (%ebx),%ecx
    30d2:	8b 30                	mov    (%eax),%esi
    30d4:	83 c0 04             	add    $0x4,%eax
    30d7:	83 c3 04             	add    $0x4,%ebx
    30da:	89 73 fc             	mov    %esi,-0x4(%ebx)
    30dd:	89 48 fc             	mov    %ecx,-0x4(%eax)
    30e0:	83 ea 01             	sub    $0x1,%edx
    30e3:	75 eb                	jne    30d0 <_qsort+0x8c0>
    30e5:	8b 75 e4             	mov    -0x1c(%ebp),%esi
    30e8:	e9 10 fe ff ff       	jmp    2efd <_qsort+0x6ed>
    30ed:	89 d8                	mov    %ebx,%eax
    30ef:	8b 4d dc             	mov    -0x24(%ebp),%ecx
    30f2:	2b 4d c8             	sub    -0x38(%ebp),%ecx
    30f5:	89 c2                	mov    %eax,%edx
    30f7:	89 45 cc             	mov    %eax,-0x34(%ebp)
    30fa:	29 f0                	sub    %esi,%eax
    30fc:	8b 5d c0             	mov    -0x40(%ebp),%ebx
    30ff:	89 4d dc             	mov    %ecx,-0x24(%ebp)
    3102:	89 c1                	mov    %eax,%ecx
    3104:	89 45 d0             	mov    %eax,-0x30(%ebp)
    3107:	8b 45 bc             	mov    -0x44(%ebp),%eax
    310a:	29 d0                	sub    %edx,%eax
    310c:	8b 55 c8             	mov    -0x38(%ebp),%edx
    310f:	39 c8                	cmp    %ecx,%eax
    3111:	0f 47 c1             	cmova  %ecx,%eax
    3114:	8b 4d dc             	mov    -0x24(%ebp),%ecx
    3117:	2b 55 e0             	sub    -0x20(%ebp),%edx
    311a:	39 ca                	cmp    %ecx,%edx
    311c:	89 45 e4             	mov    %eax,-0x1c(%ebp)
    311f:	0f 47 d1             	cmova  %ecx,%edx
    3122:	e9 13 fa ff ff       	jmp    2b3a <_qsort+0x32a>
    3127:	8b 4d d0             	mov    -0x30(%ebp),%ecx
    312a:	89 d8                	mov    %ebx,%eax
    312c:	2b 45 c8             	sub    -0x38(%ebp),%eax
    312f:	89 45 dc             	mov    %eax,-0x24(%ebp)
    3132:	89 4d cc             	mov    %ecx,-0x34(%ebp)
    3135:	89 ca                	mov    %ecx,%edx
    3137:	e9 dc f9 ff ff       	jmp    2b18 <_qsort+0x308>
    313c:	8d 74 26 00          	lea    0x0(%esi,%eiz,1),%esi

00003140 <qsort>:
    3140:	55                   	push   %ebp
    3141:	89 e5                	mov    %esp,%ebp
    3143:	57                   	push   %edi
    3144:	56                   	push   %esi
    3145:	53                   	push   %ebx
    3146:	83 ec 28             	sub    $0x28,%esp
    3149:	8b 5d 0c             	mov    0xc(%ebp),%ebx
    314c:	8b 55 14             	mov    0x14(%ebp),%edx
    314f:	8b 75 08             	mov    0x8(%ebp),%esi
    3152:	8b 7d 10             	mov    0x10(%ebp),%edi
    3155:	53                   	push   %ebx
    3156:	89 55 e4             	mov    %edx,-0x1c(%ebp)
    3159:	e8 fc ff ff ff       	call   315a <qsort+0x1a>
			315a: R_386_PC32	fls
    315e:	8b 55 e4             	mov    -0x1c(%ebp),%edx
    3161:	83 c4 10             	add    $0x10,%esp
    3164:	89 f9                	mov    %edi,%ecx
    3166:	8d 44 00 fe          	lea    -0x2(%eax,%eax,1),%eax
    316a:	89 45 0c             	mov    %eax,0xc(%ebp)
    316d:	89 f0                	mov    %esi,%eax
    316f:	89 55 08             	mov    %edx,0x8(%ebp)
    3172:	8d 65 f4             	lea    -0xc(%ebp),%esp
    3175:	89 da                	mov    %ebx,%edx
    3177:	5b                   	pop    %ebx
    3178:	5e                   	pop    %esi
    3179:	5f                   	pop    %edi
    317a:	5d                   	pop    %ebp
    317b:	e9 90 f6 ff ff       	jmp    2810 <_qsort>

00003180 <_qsort>:
    3180:	55                   	push   %ebp
    3181:	89 e5                	mov    %esp,%ebp
    3183:	57                   	push   %edi
    3184:	56                   	push   %esi
    3185:	53                   	push   %ebx
    3186:	83 ec 4c             	sub    $0x4c,%esp
    3189:	89 45 e0             	mov    %eax,-0x20(%ebp)
    318c:	8b 45 10             	mov    0x10(%ebp),%eax
    318f:	89 4d d4             	mov    %ecx,-0x2c(%ebp)
    3192:	c1 e9 02             	shr    $0x2,%ecx
    3195:	8d 78 ff             	lea    -0x1(%eax),%edi
    3198:	89 55 b8             	mov    %edx,-0x48(%ebp)
    319b:	89 7d b0             	mov    %edi,-0x50(%ebp)
    319e:	89 4d c4             	mov    %ecx,-0x3c(%ebp)
    31a1:	85 c0                	test   %eax,%eax
    31a3:	0f 8e 02 04 00 00    	jle    35ab <_qsort+0x42b>
    31a9:	8b 45 e0             	mov    -0x20(%ebp),%eax
    31ac:	0b 45 d4             	or     -0x2c(%ebp),%eax
    31af:	c7 45 d8 02 00 00 00 	movl   $0x2,-0x28(%ebp)
    31b6:	a8 03                	test   $0x3,%al
    31b8:	0f 84 b0 06 00 00    	je     386e <_qsort+0x6ee>
    31be:	83 7d b8 06          	cmpl   $0x6,-0x48(%ebp)
    31c2:	0f 86 bc 06 00 00    	jbe    3884 <_qsort+0x704>
