
vvlibc.o:     file format elf32-i386
vvlibc.o
architecture: i386, flags 0x00000011:
HAS_RELOC, HAS_SYMS
start address 0x00000000

Sections:
Idx Name          Size      VMA       LMA       File off  Algn
  0 .init         00000005  00000000  00000000  00000034  2**0
                  CONTENTS, ALLOC, LOAD, RELOC, READONLY, CODE
  1 .text         00006204  00000000  00000000  00000040  2**4
                  CONTENTS, ALLOC, LOAD, RELOC, READONLY, CODE
  2 .text.startup 0000001d  00000000  00000000  00006250  2**4
                  CONTENTS, ALLOC, LOAD, RELOC, READONLY, CODE
  3 .fini         00000005  00000000  00000000  0000626d  2**0
                  CONTENTS, ALLOC, LOAD, RELOC, READONLY, CODE
  4 .rodata       000034c0  00000000  00000000  00006280  2**5
                  CONTENTS, ALLOC, LOAD, RELOC, READONLY, DATA
  5 .rodata.str1.4 0000009a  00000000  00000000  00009740  2**2
                  CONTENTS, ALLOC, LOAD, READONLY, DATA
  6 .rodata.str1.1 0000006f  00000000  00000000  000097da  2**0
                  CONTENTS, ALLOC, LOAD, READONLY, DATA
  7 .rodata.cst8  00000048  00000000  00000000  00009850  2**3
                  CONTENTS, ALLOC, LOAD, READONLY, DATA
  8 .rodata.cst4  00000028  00000000  00000000  00009898  2**2
                  CONTENTS, ALLOC, LOAD, READONLY, DATA
  9 .eh_frame     00000004  00000000  00000000  000098c0  2**2
                  CONTENTS, ALLOC, LOAD, DATA
 10 .data         00000004  00000000  00000000  000098c4  2**2
                  CONTENTS, ALLOC, LOAD, DATA
 11 .dtors        00000008  00000000  00000000  000098c8  2**2
                  CONTENTS, ALLOC, LOAD, DATA
 12 .ctors        0000000c  00000000  00000000  000098d0  2**2
                  CONTENTS, ALLOC, LOAD, RELOC, DATA
 13 .bss          00000066  00000000  00000000  000098e0  2**5
                  ALLOC
 14 .comment      00000876  00000000  00000000  000098e0  2**0
                  CONTENTS, READONLY
 15 .debug_aranges 00000e58  00000000  00000000  0000a158  2**3
                  CONTENTS, RELOC, READONLY, DEBUGGING, OCTETS
 16 .debug_info   00009d67  00000000  00000000  0000afb0  2**0
                  CONTENTS, RELOC, READONLY, DEBUGGING, OCTETS
 17 .debug_abbrev 000051a0  00000000  00000000  00014d17  2**0
                  CONTENTS, READONLY, DEBUGGING, OCTETS
 18 .debug_line   000075af  00000000  00000000  00019eb7  2**0
                  CONTENTS, RELOC, READONLY, DEBUGGING, OCTETS
 19 .debug_frame  00001f7c  00000000  00000000  00021468  2**2
                  CONTENTS, RELOC, READONLY, DEBUGGING, OCTETS
 20 .debug_str    00006cc7  00000000  00000000  000233e4  2**0
                  CONTENTS, READONLY, DEBUGGING, OCTETS
 21 .debug_line_str 00005877  00000000  00000000  0002a0ab  2**0
                  CONTENTS, READONLY, DEBUGGING, OCTETS
 22 .debug_loclists 000078f5  00000000  00000000  0002f922  2**0
                  CONTENTS, RELOC, READONLY, DEBUGGING, OCTETS
 23 .debug_rnglists 00000447  00000000  00000000  00037217  2**0
                  CONTENTS, RELOC, READONLY, DEBUGGING, OCTETS
SYMBOL TABLE:
00000000 l    d  .init	00000000 .init
00000000 l    d  .text	00000000 .text
00000000 l    d  .text.startup	00000000 .text.startup
00000000 l    d  .fini	00000000 .fini
00000000 l    d  .rodata	00000000 .rodata
00000000 l    d  .rodata.str1.4	00000000 .rodata.str1.4
00000000 l    d  .rodata.str1.1	00000000 .rodata.str1.1
00000000 l    d  .rodata.cst8	00000000 .rodata.cst8
00000000 l    d  .rodata.cst4	00000000 .rodata.cst4
00000000 l    d  .eh_frame	00000000 .eh_frame
00000000 l    d  .data	00000000 .data
00000000 l    d  .dtors	00000000 .dtors
00000000 l    d  .ctors	00000000 .ctors
00000000 l    d  .bss	00000000 .bss
00000000 l    d  .comment	00000000 .comment
00000000 l    d  .debug_aranges	00000000 .debug_aranges
00000000 l    d  .debug_info	00000000 .debug_info
00000000 l    d  .debug_abbrev	00000000 .debug_abbrev
00000000 l    d  .debug_line	00000000 .debug_line
00000000 l    d  .debug_frame	00000000 .debug_frame
00000000 l    d  .debug_str	00000000 .debug_str
00000000 l    d  .debug_line_str	00000000 .debug_line_str
00000000 l    d  .debug_loclists	00000000 .debug_loclists
00000000 l    d  .debug_rnglists	00000000 .debug_rnglists
00000000 l    df *ABS*	00000000 crtbegin.c
00000030 l     F .text	00000051 __do_init
00000090 l     F .text	00000061 __do_fini
00000040 l     O .bss	00000001 __initialized.2
00000020 l     O .bss	00000020 __object.1
00000000 l     O .eh_frame	00000004 
00000000 l     O .ctors	00000004 __CTOR_LIST__
00000004 l     O .bss	00000001 __finalized.0
00000000 l     O .dtors	00000004 __DTOR_LIST__
00000000 l    df *ABS*	00000000 abort.c
00000000 l    df *ABS*	00000000 at_exit.c
00000000 l    df *ABS*	00000000 at_quick_exit.c
00000000 l    df *ABS*	00000000 crtend.c
00000000 l    df *ABS*	00000000 cxa_atexit.c
00000000 l    df *ABS*	00000000 exit.c
00000000 l    df *ABS*	00000000 _Exit.c
00000000 l    df *ABS*	00000000 quick_exit.c
00000000 l    df *ABS*	00000000 stack_protection.c
00000000 l     F .text.startup	0000001d __construct_stk_chk_guard
00000000 l    df *ABS*	00000000 isalnum.c
00000000 l    df *ABS*	00000000 isalpha.c
00000000 l    df *ABS*	00000000 isascii.c
00000000 l    df *ABS*	00000000 isblank.c
00000000 l    df *ABS*	00000000 iscntrl.c
00000000 l    df *ABS*	00000000 isdigit.c
00000000 l    df *ABS*	00000000 isgraph.c
00000000 l    df *ABS*	00000000 islower.c
00000000 l    df *ABS*	00000000 isprint.c
00000000 l    df *ABS*	00000000 ispunct.c
00000000 l    df *ABS*	00000000 isspace.c
00000000 l    df *ABS*	00000000 isupper.c
00000000 l    df *ABS*	00000000 isxdigit.c
00000000 l    df *ABS*	00000000 toascii.c
00000000 l    df *ABS*	00000000 tolower.c
00000000 l    df *ABS*	00000000 toupper.c
00000000 l    df *ABS*	00000000 langinfo.c
0000000c l     O .rodata	00000003 c_numeric
00000040 l     O .rodata	0000013c c_time
00000010 l     O .rodata	00000013 c_messages
00000000 l     O .rodata	0000000c __func__.0
00000000 l    df *ABS*	00000000 assert.c
00000000 l    df *ABS*	00000000 printf.c
000004d0 l     F .text	00000016 _out_buffer
000004f0 l     F .text	00000001 _out_null
00000500 l     F .text	000000cf _out_rev
000005d0 l     F .text	00000296 _ntoa_format
00000870 l     F .text	000000c4 _ntoa_long
00000940 l     F .text	000000ee _ntoa_long_long
00000a30 l     F .text	000003bb _etoa
00000df0 l     F .text	000004c1 _ftoa
00000320 l     O .rodata	00000050 pow10.0
000012c0 l     F .text	0000001c _out_char
000012e0 l     F .text	00000022 _out_fct
00001310 l     F .text	00000929 _vsnprintf
00000000 l    df *ABS*	00000000 vv_stubs.c
00000000 l    df *ABS*	00000000 asprintf.c
00000000 l    df *ABS*	00000000 putchar.c
00000000 l    df *ABS*	00000000 putchar_native.c
00000000 l    df *ABS*	00000000 puts.c
00000000 l    df *ABS*	00000000 vasprintf.c
00000000 l    df *ABS*	00000000 abs.c
00000000 l    df *ABS*	00000000 atoi.c
00000000 l    df *ABS*	00000000 atol.c
00000000 l    df *ABS*	00000000 atoll.c
00000000 l    df *ABS*	00000000 bsearch.c
00000000 l    df *ABS*	00000000 calloc.c
00000000 l    df *ABS*	00000000 div.c
00000000 l    df *ABS*	00000000 heapsort.c
00000000 l    df *ABS*	00000000 heapsort_r.c
00000000 l    df *ABS*	00000000 imaxabs.c
00000000 l    df *ABS*	00000000 imaxdiv.c
00000000 l    df *ABS*	00000000 labs.c
00000000 l    df *ABS*	00000000 ldiv.c
00000000 l    df *ABS*	00000000 llabs.c
00000000 l    df *ABS*	00000000 lldiv.c
00000000 l    df *ABS*	00000000 qsort.c
00002810 l     F .text	0000092c _qsort
00000000 l    df *ABS*	00000000 qsort_r.c
00003180 l     F .text	000009bc _qsort
00000000 l    df *ABS*	00000000 rand.c
00000000 l     O .data	00000004 next
00000000 l    df *ABS*	00000000 realloc.c
00000000 l    df *ABS*	00000000 strtol.c
00000000 l    df *ABS*	00000000 strtoll.c
00000000 l    df *ABS*	00000000 strtoul.c
00000000 l    df *ABS*	00000000 strtoull.c
00000000 l    df *ABS*	00000000 memchr.c
00000000 l    df *ABS*	00000000 memcmp.c
00000000 l    df *ABS*	00000000 memcpy.c
00000000 l    df *ABS*	00000000 memmem.c
00000000 l    df *ABS*	00000000 memmove.c
00000000 l    df *ABS*	00000000 memrchr.c
00000000 l    df *ABS*	00000000 memset.c
00000000 l    df *ABS*	00000000 strcat.c
00000000 l    df *ABS*	00000000 strchr.c
00000000 l    df *ABS*	00000000 strchrnul.c
00000000 l    df *ABS*	00000000 strcmp.c
00000000 l    df *ABS*	00000000 strcoll.c
00000000 l    df *ABS*	00000000 strcpy.c
00000000 l    df *ABS*	00000000 strcspn.c
00000000 l    df *ABS*	00000000 strdup.c
00000000 l    df *ABS*	00000000 strerror.c
00000a60 l     O .rodata	00000055 errid
00000380 l     O .rodata	000006cf errmsg
00000000 l    df *ABS*	00000000 strerror_r.c
00000ab8 l     O .rodata	0000000b __func__.0
00000000 l    df *ABS*	00000000 strlen.c
00000000 l    df *ABS*	00000000 strncat.c
00000000 l    df *ABS*	00000000 strncmp.c
00000000 l    df *ABS*	00000000 strncpy.c
00000000 l    df *ABS*	00000000 strndup.c
00000000 l    df *ABS*	00000000 strnlen.c
00000000 l    df *ABS*	00000000 strnstr.c
00000000 l    df *ABS*	00000000 strpbrk.c
00000000 l    df *ABS*	00000000 strrchr.c
00000000 l    df *ABS*	00000000 strspn.c
00000000 l    df *ABS*	00000000 strstr.c
00000000 l    df *ABS*	00000000 strtok.c
00000048 l     O .bss	00000004 last.0
00000000 l    df *ABS*	00000000 strxfrm.c
00000000 l    df *ABS*	00000000 fls.c
00000000 l    df *ABS*	00000000 flsl.c
00000000 l    df *ABS*	00000000 flsll.c
00000000 l    df *ABS*	00000000 asctime.c
0000004c l     O .bss	0000001a buf.0
00000000 l    df *ABS*	00000000 asctime_r.c
00000ac4 l     O .rodata	0000000a __func__.0
00000000 l    df *ABS*	00000000 iswalnum.c
00000000 l    df *ABS*	00000000 iswalpha.c
00000ae0 l     O .rodata	00000ba0 table
00000000 l    df *ABS*	00000000 iswblank.c
00000000 l    df *ABS*	00000000 iswcntrl.c
00000000 l    df *ABS*	00000000 iswctype.c
00000000 l    df *ABS*	00000000 iswdigit.c
00000000 l    df *ABS*	00000000 iswgraph.c
00000000 l    df *ABS*	00000000 iswlower.c
00000000 l    df *ABS*	00000000 iswprint.c
00000000 l    df *ABS*	00000000 iswpunct.c
000016c0 l     O .rodata	00000c60 table
00000000 l    df *ABS*	00000000 iswspace.c
00002320 l     O .rodata	00000058 spaces.0
00000000 l    df *ABS*	00000000 iswupper.c
00000000 l    df *ABS*	00000000 iswxdigit.c
00000000 l    df *ABS*	00000000 towccase.c
000025c0 l     O .rodata	00000104 casemaps
00002380 l     O .rodata	0000022c pairs
00000000 l    df *ABS*	00000000 towctrans.c
00000000 l    df *ABS*	00000000 towlower.c
00000000 l    df *ABS*	00000000 towupper.c
00000000 l    df *ABS*	00000000 wcswidth.c
00000000 l    df *ABS*	00000000 wctrans.c
00000000 l    df *ABS*	00000000 wctype.c
000026e0 l     O .rodata	00000049 names.0
00000000 l    df *ABS*	00000000 wcwidth.c
00002d40 l     O .rodata	00000780 table
00002740 l     O .rodata	00000600 wtable
000061d7 g     F .text	00000000 longjmp
00001d80 g     F .text	0000001a putchar
00000004 g     O .dtors	00000004 .hidden __DTOR_LIST_END__
00004ff0 g     F .text	0000002b strcpy
00005830 g     F .text	00000015 asctime
00001d30 g     F .text	00000010 _putchar
000061a0 g     F .text	00000000 setjmp
00000000         *UND*	00000000 __divdi3
000050f0 g     F .text	00000077 strerror
000053d0 g     F .text	00000003 strndup
00001cc0 g     F .text	00000020 vprintf_
00004d70  w    F .text	00000005 memmove
00005690 g     F .text	000000a0 __strtok_r
00000044  w    O .bss	00000004 __stack_chk_guard
00001ef0 g     F .text	00000085 atol
000059a0 g     F .text	00000049 iswcntrl
00005bb0 g     F .text	00000049 iswpunct
00000200 g     F .text	00000019 isblank
00002720 g     F .text	0000000f labs
00005940 g     F .text	00000049 iswalpha
00005990 g     F .text	00000005 iswblank
00004ce0 g     F .text	0000008f memmem
00002020 g     F .text	00000054 bsearch
00003140 g     F .text	00000040 qsort
00005c90 g     F .text	00000026 iswxdigit
00004d80 g     F .text	00000038 __memrchr
00004ae0 g     F .text	000001fe memcpy
00000000         *UND*	00000000 kfree
00001da0 g     F .text	0000006d puts
00000280 g     F .text	00000014 islower
00000390 g     F .text	00000026 tolower
00005b30 g     F .text	00000020 iswlower
00001d40 g     F .text	00000005 malloc
00000130  w    F .text	0000000e quick_exit
00001c70 g     F .text	00000021 sprintf_
00005c00 g     F .text	00000034 iswspace
00004040 g     F .text	00000390 strtoll
000043d0 g     F .text	000002d2 strtoul
00000000 g     O .bss	00000004 .hidden __dso_handle
000057e0 g     F .text	00000047 flsll
000002c0 g     F .text	00000039 ispunct
00000000         *UND*	00000000 __udivmoddi4
00000300 g     F .text	0000001c isspace
00000000         *UND*	00000000 __umoddi3
00000120  w    F .text	00000002 _Exit
00000000         *UND*	00000000 __udivdi3
00000000  w    F .text	0000000d abort
00000150  w    F .text	00000015 __stack_chk_fail
00000340 g     F .text	00000031 isxdigit
00001ce0 g     F .text	00000020 vsnprintf_
00003d80 g     F .text	000002bc strtol
000053e0 g     F .text	00000049 strnlen
00005b50 g     F .text	00000052 iswprint
00005520 g     F .text	00000025 strrchr
00002080 g     F .text	00000051 calloc
000057a0 g     F .text	0000001b fls
00002690 g     F .text	00000020 imaxabs
00001d00 g     F .text	0000002d fctprintf
00005af0 g     F .text	00000039 iswgraph
00004e50 g     F .text	00000039 strcat
00003b90  w    F .text	00000061 rand_r
00000000  w      *UND*	00000000 __deregister_frame_info
000003f0 g     F .text	000000bc nl_langinfo
00004ec0 g     F .text	000000b8 __strchrnul
00004970 g     F .text	000000a8 memchr
00003cf0 g     F .text	0000008f reallocf
00005620 g     F .text	00000066 strstr
00003c00  w    F .text	00000061 rand
000057c0 g     F .text	0000001b flsl
000059f0 g     F .text	000000dd iswctype
00004fe0 g     F .text	00000005 strcoll
00000320 g     F .text	00000014 isupper
000052f0 g     F .text	0000006d strncmp
00000000         *UND*	00000000 term_put_char
00005360 g     F .text	00000068 strncpy
000060f0 g     F .text	000000b0 wcwidth
000001e0 g     F .text	00000011 isascii
00003c80 g     F .text	0000006f realloc
00005fb0 g     F .text	00000030 towupper
00000100  w    F .text	00000003 __cxa_atexit
00005f40 g     F .text	00000039 towctrans
00005730 g     F .text	00000018 strtok
00000020  w    F .text	00000003 at_quick_exit
00004a20  w    F .text	000000b4 memcmp
000001c0 g     F .text	00000017 isalpha
000052a0 g     F .text	00000044 strncat
00005c40 g     F .text	00000024 wcschr
000050e0 g     F .text	00000003 strdup
000046b0 g     F .text	000002b9 strtoull
00005cc0 g     F .text	00000273 __towcase
00005850 g     F .text	00000098 asctime_r
00004dc0  w    F .text	00000083 memset
00003c70  w    F .text	0000000d srand
00005750 g     F .text	00000048 strxfrm
00006090 g     F .text	0000005c wctype
00000260 g     F .text	00000014 isgraph
000004b0  w    F .text	0000001c __assert_fail
00000170 g     F .text	00000049 isalnum
000002a0 g     F .text	00000014 isprint
00000000 g     O .eh_frame	00000004 .hidden __EH_FRAME_LIST_END__
00004f80 g     F .text	0000005e strcmp
00001d60 g     F .text	00000017 asprintf
00005170 g     F .text	000000a3 strerror_r
00000010  w    F .text	00000003 atexit
00000380 g     F .text	0000000b toascii
00005020 g     F .text	000000b8 strcspn
00005ad0 g     F .text	00000014 iswdigit
00001ca0 g     F .text	0000001f snprintf_
000023e0 g     F .text	000002a3 heapsort_r
00002730 g     F .text	00000044 ldiv
00005430 g     F .text	000000bc strnstr
00005c70 g     F .text	00000020 iswupper
00000004 g     O .ctors	00000004 .hidden __CTOR_LIST_END__
000027a0 g     F .text	0000006e lldiv
00001c40 g     F .text	00000021 printf_
00000240 g     F .text	00000014 isdigit
00003b40 g     F .text	0000004c qsort_r
00002130 g     F .text	000002a3 heapsort
00000000         *UND*	00000000 __divmoddi4
00000000         *UND*	00000000 kmalloc
00000110  w    F .text	0000000e exit
00005f80 g     F .text	00000030 towlower
00002780 g     F .text	00000020 llabs
000058f0 g     F .text	00000049 iswalnum
00001e80 g     F .text	00000063 atoi
00000220 g     F .text	00000019 iscntrl
00000000         *UND*	00000000 __moddi3
00005550 g     F .text	000000d0 strspn
00005220 g     F .text	00000077 strlen
000003c0 g     F .text	00000026 toupper
00001f80 g     F .text	0000009b atoll
000020e0 g     F .text	00000044 div
00001e70 g     F .text	0000000f abs
00004e90 g     F .text	00000022 strchr
00005fe0 g     F .text	0000005c wcswidth
000026b0 g     F .text	0000006e imaxdiv
00001e10 g     F .text	00000057 vasprintf
00000000  w      *UND*	00000000 __register_frame_info
00000140  w    F .text	00000006 __stack_chk_guard_init
000054f0 g     F .text	00000025 strpbrk
00001d50 g     F .text	00000005 free
00006040 g     F .text	00000043 wctrans



Disassembly of section .init:

00000000 <.init>:
   0:	e8 2c 00 00 00       	call   31 <__do_init+0x1>
			1: R_386_PC32	.text

Disassembly of section .text:

00000000 <abort>:
       0:	55                   	push   %ebp
       1:	89 e5                	mov    %esp,%ebp
       3:	83 ec 14             	sub    $0x14,%esp
       6:	6a 2d                	push   $0x2d
       8:	e8 fc ff ff ff       	call   9 <abort+0x9>
			9: R_386_PC32	_Exit
       d:	66 90                	xchg   %ax,%ax
       f:	90                   	nop

00000010 <atexit>:
      10:	31 c0                	xor    %eax,%eax
      12:	c3                   	ret    
      13:	66 90                	xchg   %ax,%ax
      15:	66 90                	xchg   %ax,%ax
      17:	66 90                	xchg   %ax,%ax
      19:	66 90                	xchg   %ax,%ax
      1b:	66 90                	xchg   %ax,%ax
      1d:	66 90                	xchg   %ax,%ax
      1f:	90                   	nop

00000020 <at_quick_exit>:
      20:	31 c0                	xor    %eax,%eax
      22:	c3                   	ret    
      23:	66 90                	xchg   %ax,%ax
      25:	66 90                	xchg   %ax,%ax
      27:	66 90                	xchg   %ax,%ax
      29:	66 90                	xchg   %ax,%ax
      2b:	66 90                	xchg   %ax,%ax
      2d:	66 90                	xchg   %ax,%ax
      2f:	90                   	nop

00000030 <__do_init>:
      30:	80 3d 40 00 00 00 00 	cmpb   $0x0,0x40
			32: R_386_32	.bss
      37:	75 47                	jne    80 <__do_init+0x50>
      39:	55                   	push   %ebp
      3a:	b8 00 00 00 00       	mov    $0x0,%eax
			3b: R_386_32	__register_frame_info
      3f:	89 e5                	mov    %esp,%ebp
      41:	83 ec 08             	sub    $0x8,%esp
      44:	c6 05 40 00 00 00 01 	movb   $0x1,0x40
			46: R_386_32	.bss
      4b:	85 c0                	test   %eax,%eax
      4d:	74 16                	je     65 <__do_init+0x35>
      4f:	83 ec 08             	sub    $0x8,%esp
      52:	68 20 00 00 00       	push   $0x20
			53: R_386_32	.bss
      57:	ff 35 00 00 00 00    	push   0x0
			59: R_386_32	.eh_frame
      5d:	e8 fc ff ff ff       	call   5e <__do_init+0x2e>
			5e: R_386_PC32	__register_frame_info
      62:	83 c4 10             	add    $0x10,%esp
      65:	b8 ff ff ff ff       	mov    $0xffffffff,%eax
			66: R_386_32	__CTOR_LIST_END__
      6a:	2d 00 00 00 00       	sub    $0x0,%eax
			6b: R_386_32	.ctors
      6f:	8b 04 85 00 00 00 00 	mov    0x0(,%eax,4),%eax
			72: R_386_32	.ctors
      76:	c9                   	leave  
      77:	ff e0                	jmp    *%eax
      79:	8d b4 26 00 00 00 00 	lea    0x0(%esi,%eiz,1),%esi
      80:	c3                   	ret    
      81:	8d b4 26 00 00 00 00 	lea    0x0(%esi,%eiz,1),%esi
      88:	8d b4 26 00 00 00 00 	lea    0x0(%esi,%eiz,1),%esi
      8f:	90                   	nop

00000090 <__do_fini>:
      90:	80 3d 04 00 00 00 00 	cmpb   $0x0,0x4
			92: R_386_32	.bss
      97:	75 57                	jne    f0 <__do_fini+0x60>
      99:	55                   	push   %ebp
      9a:	b8 00 00 00 00       	mov    $0x0,%eax
			9b: R_386_32	__deregister_frame_info
      9f:	c6 05 04 00 00 00 01 	movb   $0x1,0x4
			a1: R_386_32	.bss
      a6:	89 e5                	mov    %esp,%ebp
      a8:	56                   	push   %esi
      a9:	53                   	push   %ebx
      aa:	85 c0                	test   %eax,%eax
      ac:	74 11                	je     bf <__do_fini+0x2f>
      ae:	83 ec 0c             	sub    $0xc,%esp
      b1:	ff 35 00 00 00 00    	push   0x0
			b3: R_386_32	.eh_frame
      b7:	e8 fc ff ff ff       	call   b8 <__do_fini+0x28>
			b8: R_386_PC32	__deregister_frame_info
      bc:	83 c4 10             	add    $0x10,%esp
      bf:	be ff ff ff ff       	mov    $0xffffffff,%esi
			c0: R_386_32	__DTOR_LIST_END__
      c4:	bb 01 00 00 00       	mov    $0x1,%ebx
      c9:	81 ee 00 00 00 00    	sub    $0x0,%esi
			cb: R_386_32	.dtors
      cf:	90                   	nop
      d0:	ff 14 9d 00 00 00 00 	call   *0x0(,%ebx,4)
			d3: R_386_32	.dtors
      d7:	83 c3 01             	add    $0x1,%ebx
      da:	39 de                	cmp    %ebx,%esi
      dc:	77 f2                	ja     d0 <__do_fini+0x40>
      de:	8d 65 f8             	lea    -0x8(%ebp),%esp
      e1:	5b                   	pop    %ebx
      e2:	5e                   	pop    %esi
      e3:	5d                   	pop    %ebp
      e4:	c3                   	ret    
      e5:	8d b4 26 00 00 00 00 	lea    0x0(%esi,%eiz,1),%esi
      ec:	8d 74 26 00          	lea    0x0(%esi,%eiz,1),%esi
      f0:	c3                   	ret    
      f1:	66 90                	xchg   %ax,%ax
      f3:	66 90                	xchg   %ax,%ax
      f5:	66 90                	xchg   %ax,%ax
      f7:	66 90                	xchg   %ax,%ax
      f9:	66 90                	xchg   %ax,%ax
      fb:	66 90                	xchg   %ax,%ax
      fd:	66 90                	xchg   %ax,%ax
      ff:	90                   	nop

00000100 <__cxa_atexit>:
     100:	31 c0                	xor    %eax,%eax
     102:	c3                   	ret    
     103:	66 90                	xchg   %ax,%ax
     105:	66 90                	xchg   %ax,%ax
     107:	66 90                	xchg   %ax,%ax
     109:	66 90                	xchg   %ax,%ax
     10b:	66 90                	xchg   %ax,%ax
     10d:	66 90                	xchg   %ax,%ax
     10f:	90                   	nop

00000110 <exit>:
     110:	55                   	push   %ebp
     111:	89 e5                	mov    %esp,%ebp
     113:	83 ec 14             	sub    $0x14,%esp
     116:	ff 75 08             	push   0x8(%ebp)
     119:	e8 fc ff ff ff       	call   11a <exit+0xa>
			11a: R_386_PC32	_Exit
     11e:	66 90                	xchg   %ax,%ax

00000120 <_Exit>:
     120:	eb fe                	jmp    120 <_Exit>
     122:	66 90                	xchg   %ax,%ax
     124:	66 90                	xchg   %ax,%ax
     126:	66 90                	xchg   %ax,%ax
     128:	66 90                	xchg   %ax,%ax
     12a:	66 90                	xchg   %ax,%ax
     12c:	66 90                	xchg   %ax,%ax
     12e:	66 90                	xchg   %ax,%ax

00000130 <quick_exit>:
     130:	55                   	push   %ebp
     131:	89 e5                	mov    %esp,%ebp
     133:	83 ec 14             	sub    $0x14,%esp
     136:	ff 75 08             	push   0x8(%ebp)
     139:	e8 fc ff ff ff       	call   13a <quick_exit+0xa>
			13a: R_386_PC32	_Exit
     13e:	66 90                	xchg   %ax,%ax

00000140 <__stack_chk_guard_init>:
     140:	b8 8d cc f3 a5       	mov    $0xa5f3cc8d,%eax
     145:	c3                   	ret    
     146:	8d b4 26 00 00 00 00 	lea    0x0(%esi,%eiz,1),%esi
     14d:	8d 76 00             	lea    0x0(%esi),%esi

00000150 <__stack_chk_fail>:
     150:	55                   	push   %ebp
     151:	89 e5                	mov    %esp,%ebp
     153:	83 ec 14             	sub    $0x14,%esp
     156:	68 00 00 00 00       	push   $0x0
			157: R_386_32	.rodata.str1.4
     15b:	e8 fc ff ff ff       	call   15c <__stack_chk_fail+0xc>
			15c: R_386_PC32	printf_
     160:	e8 fc ff ff ff       	call   161 <__stack_chk_fail+0x11>
			161: R_386_PC32	abort
     165:	66 90                	xchg   %ax,%ax
     167:	66 90                	xchg   %ax,%ax
     169:	66 90                	xchg   %ax,%ax
     16b:	66 90                	xchg   %ax,%ax
     16d:	66 90                	xchg   %ax,%ax
     16f:	90                   	nop

00000170 <isalnum>:
     170:	55                   	push   %ebp
     171:	89 e5                	mov    %esp,%ebp
     173:	53                   	push   %ebx
     174:	83 ec 10             	sub    $0x10,%esp
     177:	8b 5d 08             	mov    0x8(%ebp),%ebx
     17a:	53                   	push   %ebx
     17b:	e8 fc ff ff ff       	call   17c <isalnum+0xc>
			17c: R_386_PC32	isalpha
     180:	83 c4 10             	add    $0x10,%esp
     183:	89 c2                	mov    %eax,%edx
     185:	b8 01 00 00 00       	mov    $0x1,%eax
     18a:	85 d2                	test   %edx,%edx
     18c:	74 12                	je     1a0 <isalnum+0x30>
     18e:	8b 5d fc             	mov    -0x4(%ebp),%ebx
     191:	c9                   	leave  
     192:	c3                   	ret    
     193:	8d b4 26 00 00 00 00 	lea    0x0(%esi,%eiz,1),%esi
     19a:	8d b6 00 00 00 00    	lea    0x0(%esi),%esi
     1a0:	83 ec 0c             	sub    $0xc,%esp
     1a3:	53                   	push   %ebx
     1a4:	e8 fc ff ff ff       	call   1a5 <isalnum+0x35>
			1a5: R_386_PC32	isdigit
     1a9:	83 c4 10             	add    $0x10,%esp
     1ac:	8b 5d fc             	mov    -0x4(%ebp),%ebx
     1af:	c9                   	leave  
     1b0:	85 c0                	test   %eax,%eax
     1b2:	0f 95 c0             	setne  %al
     1b5:	0f b6 c0             	movzbl %al,%eax
     1b8:	c3                   	ret    
     1b9:	66 90                	xchg   %ax,%ax
     1bb:	66 90                	xchg   %ax,%ax
     1bd:	66 90                	xchg   %ax,%ax
     1bf:	90                   	nop

000001c0 <isalpha>:
     1c0:	55                   	push   %ebp
     1c1:	89 e5                	mov    %esp,%ebp
     1c3:	8b 45 08             	mov    0x8(%ebp),%eax
     1c6:	5d                   	pop    %ebp
     1c7:	83 c8 20             	or     $0x20,%eax
     1ca:	83 e8 61             	sub    $0x61,%eax
     1cd:	83 f8 19             	cmp    $0x19,%eax
     1d0:	0f 96 c0             	setbe  %al
     1d3:	0f b6 c0             	movzbl %al,%eax
     1d6:	c3                   	ret    
     1d7:	66 90                	xchg   %ax,%ax
     1d9:	66 90                	xchg   %ax,%ax
     1db:	66 90                	xchg   %ax,%ax
     1dd:	66 90                	xchg   %ax,%ax
     1df:	90                   	nop

000001e0 <isascii>:
     1e0:	55                   	push   %ebp
     1e1:	31 c0                	xor    %eax,%eax
     1e3:	89 e5                	mov    %esp,%ebp
     1e5:	f7 45 08 80 ff ff ff 	testl  $0xffffff80,0x8(%ebp)
     1ec:	5d                   	pop    %ebp
     1ed:	0f 94 c0             	sete   %al
     1f0:	c3                   	ret    
     1f1:	66 90                	xchg   %ax,%ax
     1f3:	66 90                	xchg   %ax,%ax
     1f5:	66 90                	xchg   %ax,%ax
     1f7:	66 90                	xchg   %ax,%ax
     1f9:	66 90                	xchg   %ax,%ax
     1fb:	66 90                	xchg   %ax,%ax
     1fd:	66 90                	xchg   %ax,%ax
     1ff:	90                   	nop

00000200 <isblank>:
     200:	55                   	push   %ebp
     201:	89 e5                	mov    %esp,%ebp
     203:	8b 55 08             	mov    0x8(%ebp),%edx
     206:	5d                   	pop    %ebp
     207:	83 fa 20             	cmp    $0x20,%edx
     20a:	0f 94 c0             	sete   %al
     20d:	83 fa 09             	cmp    $0x9,%edx
     210:	0f 94 c2             	sete   %dl
     213:	09 d0                	or     %edx,%eax
     215:	0f b6 c0             	movzbl %al,%eax
     218:	c3                   	ret    
     219:	66 90                	xchg   %ax,%ax
     21b:	66 90                	xchg   %ax,%ax
     21d:	66 90                	xchg   %ax,%ax
     21f:	90                   	nop

00000220 <iscntrl>:
     220:	55                   	push   %ebp
     221:	89 e5                	mov    %esp,%ebp
     223:	8b 55 08             	mov    0x8(%ebp),%edx
     226:	5d                   	pop    %ebp
     227:	83 fa 1f             	cmp    $0x1f,%edx
     22a:	0f 96 c0             	setbe  %al
     22d:	83 fa 7f             	cmp    $0x7f,%edx
     230:	0f 94 c2             	sete   %dl
     233:	09 d0                	or     %edx,%eax
     235:	0f b6 c0             	movzbl %al,%eax
     238:	c3                   	ret    
     239:	66 90                	xchg   %ax,%ax
     23b:	66 90                	xchg   %ax,%ax
     23d:	66 90                	xchg   %ax,%ax
     23f:	90                   	nop

00000240 <isdigit>:
     240:	55                   	push   %ebp
     241:	89 e5                	mov    %esp,%ebp
     243:	8b 45 08             	mov    0x8(%ebp),%eax
     246:	5d                   	pop    %ebp
     247:	83 e8 30             	sub    $0x30,%eax
     24a:	83 f8 09             	cmp    $0x9,%eax
     24d:	0f 96 c0             	setbe  %al
     250:	0f b6 c0             	movzbl %al,%eax
     253:	c3                   	ret    
     254:	66 90                	xchg   %ax,%ax
     256:	66 90                	xchg   %ax,%ax
     258:	66 90                	xchg   %ax,%ax
     25a:	66 90                	xchg   %ax,%ax
     25c:	66 90                	xchg   %ax,%ax
     25e:	66 90                	xchg   %ax,%ax

00000260 <isgraph>:
     260:	55                   	push   %ebp
     261:	89 e5                	mov    %esp,%ebp
     263:	8b 45 08             	mov    0x8(%ebp),%eax
     266:	5d                   	pop    %ebp
     267:	83 e8 21             	sub    $0x21,%eax
     26a:	83 f8 5d             	cmp    $0x5d,%eax
     26d:	0f 96 c0             	setbe  %al
     270:	0f b6 c0             	movzbl %al,%eax
     273:	c3                   	ret    
     274:	66 90                	xchg   %ax,%ax
     276:	66 90                	xchg   %ax,%ax
     278:	66 90                	xchg   %ax,%ax
     27a:	66 90                	xchg   %ax,%ax
     27c:	66 90                	xchg   %ax,%ax
     27e:	66 90                	xchg   %ax,%ax

00000280 <islower>:
     280:	55                   	push   %ebp
     281:	89 e5                	mov    %esp,%ebp
     283:	8b 45 08             	mov    0x8(%ebp),%eax
     286:	5d                   	pop    %ebp
     287:	83 e8 61             	sub    $0x61,%eax
     28a:	83 f8 19             	cmp    $0x19,%eax
     28d:	0f 96 c0             	setbe  %al
     290:	0f b6 c0             	movzbl %al,%eax
     293:	c3                   	ret    
     294:	66 90                	xchg   %ax,%ax
     296:	66 90                	xchg   %ax,%ax
     298:	66 90                	xchg   %ax,%ax
     29a:	66 90                	xchg   %ax,%ax
     29c:	66 90                	xchg   %ax,%ax
     29e:	66 90                	xchg   %ax,%ax

000002a0 <isprint>:
     2a0:	55                   	push   %ebp
     2a1:	89 e5                	mov    %esp,%ebp
     2a3:	8b 45 08             	mov    0x8(%ebp),%eax
     2a6:	5d                   	pop    %ebp
     2a7:	83 e8 20             	sub    $0x20,%eax
     2aa:	83 f8 5e             	cmp    $0x5e,%eax
     2ad:	0f 96 c0             	setbe  %al
     2b0:	0f b6 c0             	movzbl %al,%eax
     2b3:	c3                   	ret    
     2b4:	66 90                	xchg   %ax,%ax
     2b6:	66 90                	xchg   %ax,%ax
     2b8:	66 90                	xchg   %ax,%ax
     2ba:	66 90                	xchg   %ax,%ax
     2bc:	66 90                	xchg   %ax,%ax
     2be:	66 90                	xchg   %ax,%ax

000002c0 <ispunct>:
     2c0:	55                   	push   %ebp
     2c1:	89 e5                	mov    %esp,%ebp
     2c3:	53                   	push   %ebx
     2c4:	83 ec 10             	sub    $0x10,%esp
     2c7:	8b 5d 08             	mov    0x8(%ebp),%ebx
     2ca:	53                   	push   %ebx
     2cb:	e8 fc ff ff ff       	call   2cc <ispunct+0xc>
			2cc: R_386_PC32	isgraph
     2d0:	83 c4 10             	add    $0x10,%esp
     2d3:	85 c0                	test   %eax,%eax
     2d5:	75 09                	jne    2e0 <ispunct+0x20>
     2d7:	8b 5d fc             	mov    -0x4(%ebp),%ebx
     2da:	c9                   	leave  
     2db:	c3                   	ret    
     2dc:	8d 74 26 00          	lea    0x0(%esi,%eiz,1),%esi
     2e0:	83 ec 0c             	sub    $0xc,%esp
     2e3:	53                   	push   %ebx
     2e4:	e8 fc ff ff ff       	call   2e5 <ispunct+0x25>
			2e5: R_386_PC32	isalnum
     2e9:	83 c4 10             	add    $0x10,%esp
     2ec:	8b 5d fc             	mov    -0x4(%ebp),%ebx
     2ef:	c9                   	leave  
     2f0:	85 c0                	test   %eax,%eax
     2f2:	0f 94 c0             	sete   %al
     2f5:	0f b6 c0             	movzbl %al,%eax
     2f8:	c3                   	ret    
     2f9:	66 90                	xchg   %ax,%ax
     2fb:	66 90                	xchg   %ax,%ax
     2fd:	66 90                	xchg   %ax,%ax
     2ff:	90                   	nop

00000300 <isspace>:
     300:	55                   	push   %ebp
     301:	89 e5                	mov    %esp,%ebp
     303:	8b 55 08             	mov    0x8(%ebp),%edx
     306:	5d                   	pop    %ebp
     307:	8d 42 f7             	lea    -0x9(%edx),%eax
     30a:	83 f8 04             	cmp    $0x4,%eax
     30d:	0f 96 c0             	setbe  %al
     310:	83 fa 20             	cmp    $0x20,%edx
     313:	0f 94 c2             	sete   %dl
     316:	09 d0                	or     %edx,%eax
     318:	0f b6 c0             	movzbl %al,%eax
     31b:	c3                   	ret    
     31c:	66 90                	xchg   %ax,%ax
     31e:	66 90                	xchg   %ax,%ax

00000320 <isupper>:
     320:	55                   	push   %ebp
     321:	89 e5                	mov    %esp,%ebp
     323:	8b 45 08             	mov    0x8(%ebp),%eax
     326:	5d                   	pop    %ebp
     327:	83 e8 41             	sub    $0x41,%eax
     32a:	83 f8 19             	cmp    $0x19,%eax
     32d:	0f 96 c0             	setbe  %al
     330:	0f b6 c0             	movzbl %al,%eax
     333:	c3                   	ret    
     334:	66 90                	xchg   %ax,%ax
     336:	66 90                	xchg   %ax,%ax
     338:	66 90                	xchg   %ax,%ax
     33a:	66 90                	xchg   %ax,%ax
     33c:	66 90                	xchg   %ax,%ax
     33e:	66 90                	xchg   %ax,%ax

00000340 <isxdigit>:
     340:	55                   	push   %ebp
     341:	89 e5                	mov    %esp,%ebp
     343:	53                   	push   %ebx
     344:	83 ec 10             	sub    $0x10,%esp
     347:	8b 5d 08             	mov    0x8(%ebp),%ebx
     34a:	53                   	push   %ebx
     34b:	e8 fc ff ff ff       	call   34c <isxdigit+0xc>
			34c: R_386_PC32	isdigit
     350:	83 c4 10             	add    $0x10,%esp
     353:	89 c2                	mov    %eax,%edx
     355:	b8 01 00 00 00       	mov    $0x1,%eax
     35a:	85 d2                	test   %edx,%edx
     35c:	75 0e                	jne    36c <isxdigit+0x2c>
     35e:	83 cb 20             	or     $0x20,%ebx
     361:	31 c0                	xor    %eax,%eax
     363:	83 eb 61             	sub    $0x61,%ebx
     366:	83 fb 05             	cmp    $0x5,%ebx
     369:	0f 96 c0             	setbe  %al
     36c:	8b 5d fc             	mov    -0x4(%ebp),%ebx
     36f:	c9                   	leave  
     370:	c3                   	ret    
     371:	66 90                	xchg   %ax,%ax
     373:	66 90                	xchg   %ax,%ax
     375:	66 90                	xchg   %ax,%ax
     377:	66 90                	xchg   %ax,%ax
     379:	66 90                	xchg   %ax,%ax
     37b:	66 90                	xchg   %ax,%ax
     37d:	66 90                	xchg   %ax,%ax
     37f:	90                   	nop

00000380 <toascii>:
     380:	55                   	push   %ebp
     381:	89 e5                	mov    %esp,%ebp
     383:	8b 45 08             	mov    0x8(%ebp),%eax
     386:	5d                   	pop    %ebp
     387:	83 e0 7f             	and    $0x7f,%eax
     38a:	c3                   	ret    
     38b:	66 90                	xchg   %ax,%ax
     38d:	66 90                	xchg   %ax,%ax
     38f:	90                   	nop

00000390 <tolower>:
     390:	55                   	push   %ebp
     391:	89 e5                	mov    %esp,%ebp
     393:	53                   	push   %ebx
     394:	83 ec 10             	sub    $0x10,%esp
     397:	8b 5d 08             	mov    0x8(%ebp),%ebx
     39a:	53                   	push   %ebx
     39b:	e8 fc ff ff ff       	call   39c <tolower+0xc>
			39c: R_386_PC32	isupper
     3a0:	83 c4 10             	add    $0x10,%esp
     3a3:	89 c2                	mov    %eax,%edx
     3a5:	89 d8                	mov    %ebx,%eax
     3a7:	83 c8 20             	or     $0x20,%eax
     3aa:	85 d2                	test   %edx,%edx
     3ac:	0f 45 d8             	cmovne %eax,%ebx
     3af:	89 d8                	mov    %ebx,%eax
     3b1:	8b 5d fc             	mov    -0x4(%ebp),%ebx
     3b4:	c9                   	leave  
     3b5:	c3                   	ret    
     3b6:	66 90                	xchg   %ax,%ax
     3b8:	66 90                	xchg   %ax,%ax
     3ba:	66 90                	xchg   %ax,%ax
     3bc:	66 90                	xchg   %ax,%ax
     3be:	66 90                	xchg   %ax,%ax

000003c0 <toupper>:
     3c0:	55                   	push   %ebp
     3c1:	89 e5                	mov    %esp,%ebp
     3c3:	53                   	push   %ebx
     3c4:	83 ec 10             	sub    $0x10,%esp
     3c7:	8b 5d 08             	mov    0x8(%ebp),%ebx
     3ca:	53                   	push   %ebx
     3cb:	e8 fc ff ff ff       	call   3cc <toupper+0xc>
			3cc: R_386_PC32	islower
     3d0:	83 c4 10             	add    $0x10,%esp
     3d3:	89 c2                	mov    %eax,%edx
     3d5:	89 d8                	mov    %ebx,%eax
     3d7:	83 e0 5f             	and    $0x5f,%eax
     3da:	85 d2                	test   %edx,%edx
     3dc:	0f 45 d8             	cmovne %eax,%ebx
     3df:	89 d8                	mov    %ebx,%eax
     3e1:	8b 5d fc             	mov    -0x4(%ebp),%ebx
     3e4:	c9                   	leave  
     3e5:	c3                   	ret    
     3e6:	66 90                	xchg   %ax,%ax
     3e8:	66 90                	xchg   %ax,%ax
     3ea:	66 90                	xchg   %ax,%ax
     3ec:	66 90                	xchg   %ax,%ax
     3ee:	66 90                	xchg   %ax,%ax

000003f0 <nl_langinfo>:
     3f0:	55                   	push   %ebp
     3f1:	89 e5                	mov    %esp,%ebp
     3f3:	53                   	push   %ebx
     3f4:	83 ec 04             	sub    $0x4,%esp
     3f7:	8b 5d 08             	mov    0x8(%ebp),%ebx
     3fa:	89 d9                	mov    %ebx,%ecx
     3fc:	c1 f9 10             	sar    $0x10,%ecx
     3ff:	83 fb 0e             	cmp    $0xe,%ebx
     402:	0f 84 8e 00 00 00    	je     496 <nl_langinfo+0xa6>
     408:	0f b7 d3             	movzwl %bx,%edx
     40b:	81 fa ff ff 00 00    	cmp    $0xffff,%edx
     411:	75 05                	jne    418 <nl_langinfo+0x28>
     413:	83 f9 05             	cmp    $0x5,%ecx
     416:	7e 68                	jle    480 <nl_langinfo+0x90>
     418:	b8 00 00 00 00       	mov    $0x0,%eax
			419: R_386_32	.rodata.str1.1
     41d:	83 f9 02             	cmp    $0x2,%ecx
     420:	74 43                	je     465 <nl_langinfo+0x75>
     422:	83 f9 05             	cmp    $0x5,%ecx
     425:	74 4a                	je     471 <nl_langinfo+0x81>
     427:	83 f9 01             	cmp    $0x1,%ecx
     42a:	74 05                	je     431 <nl_langinfo+0x41>
     42c:	8b 5d fc             	mov    -0x4(%ebp),%ebx
     42f:	c9                   	leave  
     430:	c3                   	ret    
     431:	81 e3 fe ff 00 00    	and    $0xfffe,%ebx
     437:	75 f3                	jne    42c <nl_langinfo+0x3c>
     439:	b8 0c 00 00 00       	mov    $0xc,%eax
			43a: R_386_32	.rodata
     43e:	85 d2                	test   %edx,%edx
     440:	75 11                	jne    453 <nl_langinfo+0x63>
     442:	eb e8                	jmp    42c <nl_langinfo+0x3c>
     444:	8d b4 26 00 00 00 00 	lea    0x0(%esi,%eiz,1),%esi
     44b:	8d 74 26 00          	lea    0x0(%esi,%eiz,1),%esi
     44f:	90                   	nop
     450:	83 c0 01             	add    $0x1,%eax
     453:	80 38 00             	cmpb   $0x0,(%eax)
     456:	75 f8                	jne    450 <nl_langinfo+0x60>
     458:	83 c0 01             	add    $0x1,%eax
     45b:	83 ea 01             	sub    $0x1,%edx
     45e:	75 f3                	jne    453 <nl_langinfo+0x63>
     460:	8b 5d fc             	mov    -0x4(%ebp),%ebx
     463:	c9                   	leave  
     464:	c3                   	ret    
     465:	83 fa 31             	cmp    $0x31,%edx
     468:	7f c2                	jg     42c <nl_langinfo+0x3c>
     46a:	b8 40 00 00 00       	mov    $0x40,%eax
			46b: R_386_32	.rodata
     46f:	eb cd                	jmp    43e <nl_langinfo+0x4e>
     471:	81 e3 fc ff 00 00    	and    $0xfffc,%ebx
     477:	75 b3                	jne    42c <nl_langinfo+0x3c>
     479:	b8 10 00 00 00       	mov    $0x10,%eax
			47a: R_386_32	.rodata
     47e:	eb be                	jmp    43e <nl_langinfo+0x4e>
     480:	68 00 00 00 00       	push   $0x0
			481: R_386_32	.rodata
     485:	6a 4f                	push   $0x4f
     487:	68 01 00 00 00       	push   $0x1
			488: R_386_32	.rodata.str1.1
     48c:	68 17 00 00 00       	push   $0x17
			48d: R_386_32	.rodata.str1.1
     491:	e8 fc ff ff ff       	call   492 <nl_langinfo+0xa2>
			492: R_386_PC32	__assert_fail
     496:	68 00 00 00 00       	push   $0x0
			497: R_386_32	.rodata
     49b:	6a 48                	push   $0x48
     49d:	68 01 00 00 00       	push   $0x1
			49e: R_386_32	.rodata.str1.1
     4a2:	68 17 00 00 00       	push   $0x17
			4a3: R_386_32	.rodata.str1.1
     4a7:	e8 fc ff ff ff       	call   4a8 <nl_langinfo+0xb8>
			4a8: R_386_PC32	__assert_fail
     4ac:	66 90                	xchg   %ax,%ax
     4ae:	66 90                	xchg   %ax,%ax

000004b0 <__assert_fail>:
     4b0:	55                   	push   %ebp
     4b1:	89 e5                	mov    %esp,%ebp
     4b3:	83 ec 14             	sub    $0x14,%esp
     4b6:	ff 75 10             	push   0x10(%ebp)
     4b9:	ff 75 14             	push   0x14(%ebp)
     4bc:	ff 75 0c             	push   0xc(%ebp)
     4bf:	ff 75 08             	push   0x8(%ebp)
     4c2:	68 2c 00 00 00       	push   $0x2c
			4c3: R_386_32	.rodata.str1.4
     4c7:	e8 fc ff ff ff       	call   4c8 <__assert_fail+0x18>
			4c8: R_386_PC32	printf_
     4cc:	66 90                	xchg   %ax,%ax
     4ce:	66 90                	xchg   %ax,%ax

000004d0 <_out_buffer>:
     4d0:	55                   	push   %ebp
     4d1:	89 e5                	mov    %esp,%ebp
     4d3:	8b 55 08             	mov    0x8(%ebp),%edx
     4d6:	8b 45 10             	mov    0x10(%ebp),%eax
     4d9:	3b 45 14             	cmp    0x14(%ebp),%eax
     4dc:	73 06                	jae    4e4 <_out_buffer+0x14>
     4de:	8b 4d 0c             	mov    0xc(%ebp),%ecx
     4e1:	88 14 01             	mov    %dl,(%ecx,%eax,1)
     4e4:	5d                   	pop    %ebp
     4e5:	c3                   	ret    
     4e6:	8d b4 26 00 00 00 00 	lea    0x0(%esi,%eiz,1),%esi
     4ed:	8d 76 00             	lea    0x0(%esi),%esi

000004f0 <_out_null>:
     4f0:	c3                   	ret    
     4f1:	8d b4 26 00 00 00 00 	lea    0x0(%esi,%eiz,1),%esi
     4f8:	8d b4 26 00 00 00 00 	lea    0x0(%esi,%eiz,1),%esi
     4ff:	90                   	nop

00000500 <_out_rev>:
     500:	55                   	push   %ebp
     501:	89 e5                	mov    %esp,%ebp
     503:	57                   	push   %edi
     504:	56                   	push   %esi
     505:	89 d6                	mov    %edx,%esi
     507:	53                   	push   %ebx
     508:	89 cb                	mov    %ecx,%ebx
     50a:	83 ec 1c             	sub    $0x1c,%esp
     50d:	89 45 e4             	mov    %eax,-0x1c(%ebp)
     510:	89 4d dc             	mov    %ecx,-0x24(%ebp)
     513:	f6 45 18 03          	testb  $0x3,0x18(%ebp)
     517:	75 2f                	jne    548 <_out_rev+0x48>
     519:	8b 45 14             	mov    0x14(%ebp),%eax
     51c:	2b 45 10             	sub    0x10(%ebp),%eax
     51f:	89 cf                	mov    %ecx,%edi
     521:	8d 1c 08             	lea    (%eax,%ecx,1),%ebx
     524:	8b 45 14             	mov    0x14(%ebp),%eax
     527:	39 45 10             	cmp    %eax,0x10(%ebp)
     52a:	0f 83 98 00 00 00    	jae    5c8 <_out_rev+0xc8>
     530:	89 fa                	mov    %edi,%edx
     532:	ff 75 08             	push   0x8(%ebp)
     535:	83 c7 01             	add    $0x1,%edi
     538:	8b 45 e4             	mov    -0x1c(%ebp),%eax
     53b:	52                   	push   %edx
     53c:	56                   	push   %esi
     53d:	6a 20                	push   $0x20
     53f:	ff d0                	call   *%eax
     541:	83 c4 10             	add    $0x10,%esp
     544:	39 fb                	cmp    %edi,%ebx
     546:	75 e8                	jne    530 <_out_rev+0x30>
     548:	8b 7d 10             	mov    0x10(%ebp),%edi
     54b:	8d 04 1f             	lea    (%edi,%ebx,1),%eax
     54e:	85 ff                	test   %edi,%edi
     550:	74 34                	je     586 <_out_rev+0x86>
     552:	89 c3                	mov    %eax,%ebx
     554:	8d b4 26 00 00 00 00 	lea    0x0(%esi,%eiz,1),%esi
     55b:	8d 74 26 00          	lea    0x0(%esi,%eiz,1),%esi
     55f:	90                   	nop
     560:	8b 45 0c             	mov    0xc(%ebp),%eax
     563:	89 da                	mov    %ebx,%edx
     565:	ff 75 08             	push   0x8(%ebp)
     568:	29 fa                	sub    %edi,%edx
     56a:	83 ef 01             	sub    $0x1,%edi
     56d:	89 5d e0             	mov    %ebx,-0x20(%ebp)
     570:	52                   	push   %edx
     571:	56                   	push   %esi
     572:	0f be 14 38          	movsbl (%eax,%edi,1),%edx
     576:	8b 45 e4             	mov    -0x1c(%ebp),%eax
     579:	52                   	push   %edx
     57a:	ff d0                	call   *%eax
     57c:	83 c4 10             	add    $0x10,%esp
     57f:	85 ff                	test   %edi,%edi
     581:	75 dd                	jne    560 <_out_rev+0x60>
     583:	8b 5d e0             	mov    -0x20(%ebp),%ebx
     586:	f6 45 18 02          	testb  $0x2,0x18(%ebp)
     58a:	74 32                	je     5be <_out_rev+0xbe>
     58c:	89 df                	mov    %ebx,%edi
     58e:	2b 7d dc             	sub    -0x24(%ebp),%edi
     591:	39 7d 14             	cmp    %edi,0x14(%ebp)
     594:	76 28                	jbe    5be <_out_rev+0xbe>
     596:	89 f0                	mov    %esi,%eax
     598:	89 de                	mov    %ebx,%esi
     59a:	89 fb                	mov    %edi,%ebx
     59c:	89 c7                	mov    %eax,%edi
     59e:	66 90                	xchg   %ax,%ax
     5a0:	89 f1                	mov    %esi,%ecx
     5a2:	ff 75 08             	push   0x8(%ebp)
     5a5:	8b 45 e4             	mov    -0x1c(%ebp),%eax
     5a8:	83 c6 01             	add    $0x1,%esi
     5ab:	51                   	push   %ecx
     5ac:	83 c3 01             	add    $0x1,%ebx
     5af:	57                   	push   %edi
     5b0:	6a 20                	push   $0x20
     5b2:	ff d0                	call   *%eax
     5b4:	83 c4 10             	add    $0x10,%esp
     5b7:	39 5d 14             	cmp    %ebx,0x14(%ebp)
     5ba:	77 e4                	ja     5a0 <_out_rev+0xa0>
     5bc:	89 f3                	mov    %esi,%ebx
     5be:	8d 65 f4             	lea    -0xc(%ebp),%esp
     5c1:	89 d8                	mov    %ebx,%eax
     5c3:	5b                   	pop    %ebx
     5c4:	5e                   	pop    %esi
     5c5:	5f                   	pop    %edi
     5c6:	5d                   	pop    %ebp
     5c7:	c3                   	ret    
     5c8:	89 cb                	mov    %ecx,%ebx
     5ca:	e9 79 ff ff ff       	jmp    548 <_out_rev+0x48>
     5cf:	90                   	nop

000005d0 <_ntoa_format>:
     5d0:	55                   	push   %ebp
     5d1:	89 e5                	mov    %esp,%ebp
     5d3:	57                   	push   %edi
     5d4:	89 c7                	mov    %eax,%edi
     5d6:	56                   	push   %esi
     5d7:	53                   	push   %ebx
     5d8:	83 ec 2c             	sub    $0x2c,%esp
     5db:	8b 75 14             	mov    0x14(%ebp),%esi
     5de:	8b 5d 18             	mov    0x18(%ebp),%ebx
     5e1:	89 55 e0             	mov    %edx,-0x20(%ebp)
     5e4:	8b 45 08             	mov    0x8(%ebp),%eax
     5e7:	8b 55 0c             	mov    0xc(%ebp),%edx
     5ea:	89 4d dc             	mov    %ecx,-0x24(%ebp)
     5ed:	89 75 cc             	mov    %esi,-0x34(%ebp)
     5f0:	8b 75 24             	mov    0x24(%ebp),%esi
     5f3:	89 5d d0             	mov    %ebx,-0x30(%ebp)
     5f6:	8b 5d 1c             	mov    0x1c(%ebp),%ebx
     5f9:	89 45 d8             	mov    %eax,-0x28(%ebp)
     5fc:	8b 4d 20             	mov    0x20(%ebp),%ecx
     5ff:	89 5d e4             	mov    %ebx,-0x1c(%ebp)
     602:	8b 45 10             	mov    0x10(%ebp),%eax
     605:	f7 c6 02 00 00 00    	test   $0x2,%esi
     60b:	0f 85 93 00 00 00    	jne    6a4 <_ntoa_format+0xd4>
     611:	89 f3                	mov    %esi,%ebx
     613:	83 e3 01             	and    $0x1,%ebx
     616:	83 f8 1f             	cmp    $0x1f,%eax
     619:	0f 96 45 d7          	setbe  -0x29(%ebp)
     61d:	3b 45 e4             	cmp    -0x1c(%ebp),%eax
     620:	0f 92 45 d6          	setb   -0x2a(%ebp)
     624:	89 5d c8             	mov    %ebx,-0x38(%ebp)
     627:	0f b6 5d d6          	movzbl -0x2a(%ebp),%ebx
     62b:	22 5d d7             	and    -0x29(%ebp),%bl
     62e:	88 5d d6             	mov    %bl,-0x2a(%ebp)
     631:	85 c9                	test   %ecx,%ecx
     633:	0f 85 27 01 00 00    	jne    760 <_ntoa_format+0x190>
     639:	80 7d d6 00          	cmpb   $0x0,-0x2a(%ebp)
     63d:	74 25                	je     664 <_ntoa_format+0x94>
     63f:	8b 5d e4             	mov    -0x1c(%ebp),%ebx
     642:	8d b4 26 00 00 00 00 	lea    0x0(%esi,%eiz,1),%esi
     649:	8d b4 26 00 00 00 00 	lea    0x0(%esi,%eiz,1),%esi
     650:	83 c0 01             	add    $0x1,%eax
     653:	c6 44 02 ff 30       	movb   $0x30,-0x1(%edx,%eax,1)
     658:	39 c3                	cmp    %eax,%ebx
     65a:	76 05                	jbe    661 <_ntoa_format+0x91>
     65c:	83 f8 1f             	cmp    $0x1f,%eax
     65f:	76 ef                	jbe    650 <_ntoa_format+0x80>
     661:	89 5d e4             	mov    %ebx,-0x1c(%ebp)
     664:	8b 5d c8             	mov    -0x38(%ebp),%ebx
     667:	85 db                	test   %ebx,%ebx
     669:	74 39                	je     6a4 <_ntoa_format+0xd4>
     66b:	83 f8 1f             	cmp    $0x1f,%eax
     66e:	0f 96 45 d7          	setbe  -0x29(%ebp)
     672:	39 c1                	cmp    %eax,%ecx
     674:	76 2e                	jbe    6a4 <_ntoa_format+0xd4>
     676:	80 7d d7 00          	cmpb   $0x0,-0x29(%ebp)
     67a:	74 28                	je     6a4 <_ntoa_format+0xd4>
     67c:	8b 5d e4             	mov    -0x1c(%ebp),%ebx
     67f:	eb 14                	jmp    695 <_ntoa_format+0xc5>
     681:	8d b4 26 00 00 00 00 	lea    0x0(%esi,%eiz,1),%esi
     688:	8d b4 26 00 00 00 00 	lea    0x0(%esi,%eiz,1),%esi
     68f:	90                   	nop
     690:	83 f8 1f             	cmp    $0x1f,%eax
     693:	77 0c                	ja     6a1 <_ntoa_format+0xd1>
     695:	83 c0 01             	add    $0x1,%eax
     698:	c6 44 02 ff 30       	movb   $0x30,-0x1(%edx,%eax,1)
     69d:	39 c8                	cmp    %ecx,%eax
     69f:	72 ef                	jb     690 <_ntoa_format+0xc0>
     6a1:	89 5d e4             	mov    %ebx,-0x1c(%ebp)
     6a4:	f7 c6 10 00 00 00    	test   $0x10,%esi
     6aa:	0f 84 8d 00 00 00    	je     73d <_ntoa_format+0x16d>
     6b0:	f7 c6 00 04 00 00    	test   $0x400,%esi
     6b6:	74 58                	je     710 <_ntoa_format+0x140>
     6b8:	83 7d d0 10          	cmpl   $0x10,-0x30(%ebp)
     6bc:	0f 84 2c 01 00 00    	je     7ee <_ntoa_format+0x21e>
     6c2:	83 7d d0 02          	cmpl   $0x2,-0x30(%ebp)
     6c6:	75 0e                	jne    6d6 <_ntoa_format+0x106>
     6c8:	83 f8 1f             	cmp    $0x1f,%eax
     6cb:	77 09                	ja     6d6 <_ntoa_format+0x106>
     6cd:	8d 1c 02             	lea    (%edx,%eax,1),%ebx
     6d0:	83 c0 01             	add    $0x1,%eax
     6d3:	c6 03 62             	movb   $0x62,(%ebx)
     6d6:	83 f8 20             	cmp    $0x20,%eax
     6d9:	75 59                	jne    734 <_ntoa_format+0x164>
     6db:	89 45 10             	mov    %eax,0x10(%ebp)
     6de:	8b 45 d8             	mov    -0x28(%ebp),%eax
     6e1:	89 75 18             	mov    %esi,0x18(%ebp)
     6e4:	89 4d 14             	mov    %ecx,0x14(%ebp)
     6e7:	8b 4d dc             	mov    -0x24(%ebp),%ecx
     6ea:	89 55 0c             	mov    %edx,0xc(%ebp)
     6ed:	8b 55 e0             	mov    -0x20(%ebp),%edx
     6f0:	89 45 08             	mov    %eax,0x8(%ebp)
     6f3:	83 c4 2c             	add    $0x2c,%esp
     6f6:	89 f8                	mov    %edi,%eax
     6f8:	5b                   	pop    %ebx
     6f9:	5e                   	pop    %esi
     6fa:	5f                   	pop    %edi
     6fb:	5d                   	pop    %ebp
     6fc:	e9 ff fd ff ff       	jmp    500 <_out_rev>
     701:	8d b4 26 00 00 00 00 	lea    0x0(%esi,%eiz,1),%esi
     708:	8d b4 26 00 00 00 00 	lea    0x0(%esi,%eiz,1),%esi
     70f:	90                   	nop
     710:	85 c0                	test   %eax,%eax
     712:	0f 85 b8 00 00 00    	jne    7d0 <_ntoa_format+0x200>
     718:	83 7d d0 10          	cmpl   $0x10,-0x30(%ebp)
     71c:	0f 84 07 01 00 00    	je     829 <_ntoa_format+0x259>
     722:	83 7d d0 02          	cmpl   $0x2,-0x30(%ebp)
     726:	0f 85 12 01 00 00    	jne    83e <_ntoa_format+0x26e>
     72c:	c6 02 62             	movb   $0x62,(%edx)
     72f:	b8 01 00 00 00       	mov    $0x1,%eax
     734:	8d 1c 02             	lea    (%edx,%eax,1),%ebx
     737:	83 c0 01             	add    $0x1,%eax
     73a:	c6 03 30             	movb   $0x30,(%ebx)
     73d:	83 f8 20             	cmp    $0x20,%eax
     740:	74 99                	je     6db <_ntoa_format+0x10b>
     742:	80 7d cc 00          	cmpb   $0x0,-0x34(%ebp)
     746:	74 48                	je     790 <_ntoa_format+0x1c0>
     748:	c6 04 02 2d          	movb   $0x2d,(%edx,%eax,1)
     74c:	83 c0 01             	add    $0x1,%eax
     74f:	eb 8a                	jmp    6db <_ntoa_format+0x10b>
     751:	8d b4 26 00 00 00 00 	lea    0x0(%esi,%eiz,1),%esi
     758:	8d b4 26 00 00 00 00 	lea    0x0(%esi,%eiz,1),%esi
     75f:	90                   	nop
     760:	8b 5d c8             	mov    -0x38(%ebp),%ebx
     763:	85 db                	test   %ebx,%ebx
     765:	74 59                	je     7c0 <_ntoa_format+0x1f0>
     767:	80 7d cc 00          	cmpb   $0x0,-0x34(%ebp)
     76b:	75 08                	jne    775 <_ntoa_format+0x1a5>
     76d:	f7 c6 0c 00 00 00    	test   $0xc,%esi
     773:	74 03                	je     778 <_ntoa_format+0x1a8>
     775:	83 e9 01             	sub    $0x1,%ecx
     778:	80 7d d6 00          	cmpb   $0x0,-0x2a(%ebp)
     77c:	0f 85 bd fe ff ff    	jne    63f <_ntoa_format+0x6f>
     782:	e9 eb fe ff ff       	jmp    672 <_ntoa_format+0xa2>
     787:	8d b4 26 00 00 00 00 	lea    0x0(%esi,%eiz,1),%esi
     78e:	66 90                	xchg   %ax,%ax
     790:	f7 c6 04 00 00 00    	test   $0x4,%esi
     796:	75 18                	jne    7b0 <_ntoa_format+0x1e0>
     798:	f7 c6 08 00 00 00    	test   $0x8,%esi
     79e:	0f 84 37 ff ff ff    	je     6db <_ntoa_format+0x10b>
     7a4:	c6 04 02 20          	movb   $0x20,(%edx,%eax,1)
     7a8:	83 c0 01             	add    $0x1,%eax
     7ab:	e9 2b ff ff ff       	jmp    6db <_ntoa_format+0x10b>
     7b0:	c6 04 02 2b          	movb   $0x2b,(%edx,%eax,1)
     7b4:	83 c0 01             	add    $0x1,%eax
     7b7:	e9 1f ff ff ff       	jmp    6db <_ntoa_format+0x10b>
     7bc:	8d 74 26 00          	lea    0x0(%esi,%eiz,1),%esi
     7c0:	80 7d d6 00          	cmpb   $0x0,-0x2a(%ebp)
     7c4:	0f 85 75 fe ff ff    	jne    63f <_ntoa_format+0x6f>
     7ca:	e9 d5 fe ff ff       	jmp    6a4 <_ntoa_format+0xd4>
     7cf:	90                   	nop
     7d0:	3b 45 e4             	cmp    -0x1c(%ebp),%eax
     7d3:	74 08                	je     7dd <_ntoa_format+0x20d>
     7d5:	39 c8                	cmp    %ecx,%eax
     7d7:	0f 85 db fe ff ff    	jne    6b8 <_ntoa_format+0xe8>
     7dd:	8d 58 ff             	lea    -0x1(%eax),%ebx
     7e0:	83 f8 01             	cmp    $0x1,%eax
     7e3:	74 3d                	je     822 <_ntoa_format+0x252>
     7e5:	83 e8 02             	sub    $0x2,%eax
     7e8:	83 7d d0 10          	cmpl   $0x10,-0x30(%ebp)
     7ec:	75 34                	jne    822 <_ntoa_format+0x252>
     7ee:	83 f8 1f             	cmp    $0x1f,%eax
     7f1:	89 f3                	mov    %esi,%ebx
     7f3:	0f 96 45 e4          	setbe  -0x1c(%ebp)
     7f7:	83 e3 20             	and    $0x20,%ebx
     7fa:	75 0e                	jne    80a <_ntoa_format+0x23a>
     7fc:	80 7d e4 00          	cmpb   $0x0,-0x1c(%ebp)
     800:	75 49                	jne    84b <_ntoa_format+0x27b>
     802:	85 db                	test   %ebx,%ebx
     804:	0f 84 cc fe ff ff    	je     6d6 <_ntoa_format+0x106>
     80a:	80 7d e4 00          	cmpb   $0x0,-0x1c(%ebp)
     80e:	0f 84 c2 fe ff ff    	je     6d6 <_ntoa_format+0x106>
     814:	8d 1c 02             	lea    (%edx,%eax,1),%ebx
     817:	83 c0 01             	add    $0x1,%eax
     81a:	c6 03 58             	movb   $0x58,(%ebx)
     81d:	e9 b4 fe ff ff       	jmp    6d6 <_ntoa_format+0x106>
     822:	89 d8                	mov    %ebx,%eax
     824:	e9 8f fe ff ff       	jmp    6b8 <_ntoa_format+0xe8>
     829:	f7 c6 20 00 00 00    	test   $0x20,%esi
     82f:	75 28                	jne    859 <_ntoa_format+0x289>
     831:	c6 02 78             	movb   $0x78,(%edx)
     834:	b8 01 00 00 00       	mov    $0x1,%eax
     839:	e9 f6 fe ff ff       	jmp    734 <_ntoa_format+0x164>
     83e:	c6 02 30             	movb   $0x30,(%edx)
     841:	b8 01 00 00 00       	mov    $0x1,%eax
     846:	e9 f7 fe ff ff       	jmp    742 <_ntoa_format+0x172>
     84b:	8d 1c 02             	lea    (%edx,%eax,1),%ebx
     84e:	83 c0 01             	add    $0x1,%eax
     851:	c6 03 78             	movb   $0x78,(%ebx)
     854:	e9 7d fe ff ff       	jmp    6d6 <_ntoa_format+0x106>
     859:	c6 02 58             	movb   $0x58,(%edx)
     85c:	b8 01 00 00 00       	mov    $0x1,%eax
     861:	e9 ce fe ff ff       	jmp    734 <_ntoa_format+0x164>
     866:	8d b4 26 00 00 00 00 	lea    0x0(%esi,%eiz,1),%esi
     86d:	8d 76 00             	lea    0x0(%esi),%esi

00000870 <_ntoa_long>:
     870:	55                   	push   %ebp
     871:	89 e5                	mov    %esp,%ebp
     873:	57                   	push   %edi
     874:	56                   	push   %esi
     875:	53                   	push   %ebx
     876:	83 ec 4c             	sub    $0x4c,%esp
     879:	89 45 c0             	mov    %eax,-0x40(%ebp)
     87c:	8b 5d 0c             	mov    0xc(%ebp),%ebx
     87f:	8b 45 10             	mov    0x10(%ebp),%eax
     882:	89 55 bc             	mov    %edx,-0x44(%ebp)
     885:	89 4d b8             	mov    %ecx,-0x48(%ebp)
     888:	89 45 b4             	mov    %eax,-0x4c(%ebp)
     88b:	85 db                	test   %ebx,%ebx
     88d:	75 51                	jne    8e0 <_ntoa_long+0x70>
     88f:	8b 45 20             	mov    0x20(%ebp),%eax
     892:	83 e0 ef             	and    $0xffffffef,%eax
     895:	f7 45 20 00 04 00 00 	testl  $0x400,0x20(%ebp)
     89c:	89 45 20             	mov    %eax,0x20(%ebp)
     89f:	74 3f                	je     8e0 <_ntoa_long+0x70>
     8a1:	31 c9                	xor    %ecx,%ecx
     8a3:	0f b6 45 b4          	movzbl -0x4c(%ebp),%eax
     8a7:	8b 55 bc             	mov    -0x44(%ebp),%edx
     8aa:	ff 75 20             	push   0x20(%ebp)
     8ad:	ff 75 1c             	push   0x1c(%ebp)
     8b0:	ff 75 18             	push   0x18(%ebp)
     8b3:	ff 75 14             	push   0x14(%ebp)
     8b6:	50                   	push   %eax
     8b7:	8d 45 c8             	lea    -0x38(%ebp),%eax
     8ba:	51                   	push   %ecx
     8bb:	8b 4d b8             	mov    -0x48(%ebp),%ecx
     8be:	50                   	push   %eax
     8bf:	8b 45 c0             	mov    -0x40(%ebp),%eax
     8c2:	ff 75 08             	push   0x8(%ebp)
     8c5:	e8 06 fd ff ff       	call   5d0 <_ntoa_format>
     8ca:	8d 65 f4             	lea    -0xc(%ebp),%esp
     8cd:	5b                   	pop    %ebx
     8ce:	5e                   	pop    %esi
     8cf:	5f                   	pop    %edi
     8d0:	5d                   	pop    %ebp
     8d1:	c3                   	ret    
     8d2:	8d b4 26 00 00 00 00 	lea    0x0(%esi,%eiz,1),%esi
     8d9:	8d b4 26 00 00 00 00 	lea    0x0(%esi,%eiz,1),%esi
     8e0:	8b 45 20             	mov    0x20(%ebp),%eax
     8e3:	83 e0 20             	and    $0x20,%eax
     8e6:	83 f8 01             	cmp    $0x1,%eax
     8e9:	19 c0                	sbb    %eax,%eax
     8eb:	31 c9                	xor    %ecx,%ecx
     8ed:	83 e0 20             	and    $0x20,%eax
     8f0:	83 c0 37             	add    $0x37,%eax
     8f3:	88 45 c7             	mov    %al,-0x39(%ebp)
     8f6:	eb 0a                	jmp    902 <_ntoa_long+0x92>
     8f8:	8d b4 26 00 00 00 00 	lea    0x0(%esi,%eiz,1),%esi
     8ff:	90                   	nop
     900:	89 c3                	mov    %eax,%ebx
     902:	31 d2                	xor    %edx,%edx
     904:	89 d8                	mov    %ebx,%eax
     906:	0f b6 75 c7          	movzbl -0x39(%ebp),%esi
     90a:	f7 75 14             	divl   0x14(%ebp)
     90d:	01 d6                	add    %edx,%esi
     90f:	8d 7a 30             	lea    0x30(%edx),%edi
     912:	83 fa 09             	cmp    $0x9,%edx
     915:	0f 47 fe             	cmova  %esi,%edi
     918:	83 c1 01             	add    $0x1,%ecx
     91b:	89 fa                	mov    %edi,%edx
     91d:	88 54 0d c7          	mov    %dl,-0x39(%ebp,%ecx,1)
     921:	3b 5d 14             	cmp    0x14(%ebp),%ebx
     924:	0f 82 79 ff ff ff    	jb     8a3 <_ntoa_long+0x33>
     92a:	83 f9 1f             	cmp    $0x1f,%ecx
     92d:	76 d1                	jbe    900 <_ntoa_long+0x90>
     92f:	e9 6f ff ff ff       	jmp    8a3 <_ntoa_long+0x33>
     934:	8d b4 26 00 00 00 00 	lea    0x0(%esi,%eiz,1),%esi
     93b:	8d 74 26 00          	lea    0x0(%esi,%eiz,1),%esi
     93f:	90                   	nop

00000940 <_ntoa_long_long>:
     940:	55                   	push   %ebp
     941:	89 e5                	mov    %esp,%ebp
     943:	57                   	push   %edi
     944:	56                   	push   %esi
     945:	53                   	push   %ebx
     946:	83 ec 5c             	sub    $0x5c,%esp
     949:	8b 7d 10             	mov    0x10(%ebp),%edi
     94c:	8b 75 0c             	mov    0xc(%ebp),%esi
     94f:	89 45 a8             	mov    %eax,-0x58(%ebp)
     952:	8b 45 14             	mov    0x14(%ebp),%eax
     955:	89 55 a4             	mov    %edx,-0x5c(%ebp)
     958:	8b 55 1c             	mov    0x1c(%ebp),%edx
     95b:	89 4d a0             	mov    %ecx,-0x60(%ebp)
     95e:	89 45 9c             	mov    %eax,-0x64(%ebp)
     961:	8b 45 18             	mov    0x18(%ebp),%eax
     964:	89 55 bc             	mov    %edx,-0x44(%ebp)
     967:	89 45 b8             	mov    %eax,-0x48(%ebp)
     96a:	89 f8                	mov    %edi,%eax
     96c:	09 f0                	or     %esi,%eax
     96e:	75 20                	jne    990 <_ntoa_long_long+0x50>
     970:	8b 45 28             	mov    0x28(%ebp),%eax
     973:	83 e0 ef             	and    $0xffffffef,%eax
     976:	f7 45 28 00 04 00 00 	testl  $0x400,0x28(%ebp)
     97d:	89 45 28             	mov    %eax,0x28(%ebp)
     980:	74 0e                	je     990 <_ntoa_long_long+0x50>
     982:	31 ff                	xor    %edi,%edi
     984:	eb 79                	jmp    9ff <_ntoa_long_long+0xbf>
     986:	8d b4 26 00 00 00 00 	lea    0x0(%esi,%eiz,1),%esi
     98d:	8d 76 00             	lea    0x0(%esi),%esi
     990:	8b 45 28             	mov    0x28(%ebp),%eax
     993:	83 e0 20             	and    $0x20,%eax
     996:	83 f8 01             	cmp    $0x1,%eax
     999:	19 c0                	sbb    %eax,%eax
     99b:	31 db                	xor    %ebx,%ebx
     99d:	83 e0 20             	and    $0x20,%eax
     9a0:	83 c0 37             	add    $0x37,%eax
     9a3:	88 45 af             	mov    %al,-0x51(%ebp)
     9a6:	eb 13                	jmp    9bb <_ntoa_long_long+0x7b>
     9a8:	8d b4 26 00 00 00 00 	lea    0x0(%esi,%eiz,1),%esi
     9af:	90                   	nop
     9b0:	83 fb 1f             	cmp    $0x1f,%ebx
     9b3:	77 48                	ja     9fd <_ntoa_long_long+0xbd>
     9b5:	8b 75 b0             	mov    -0x50(%ebp),%esi
     9b8:	8b 7d b4             	mov    -0x4c(%ebp),%edi
     9bb:	83 ec 0c             	sub    $0xc,%esp
     9be:	8d 45 c0             	lea    -0x40(%ebp),%eax
     9c1:	50                   	push   %eax
     9c2:	ff 75 bc             	push   -0x44(%ebp)
     9c5:	ff 75 b8             	push   -0x48(%ebp)
     9c8:	57                   	push   %edi
     9c9:	56                   	push   %esi
     9ca:	e8 fc ff ff ff       	call   9cb <_ntoa_long_long+0x8b>
			9cb: R_386_PC32	__udivmoddi4
     9cf:	83 c4 20             	add    $0x20,%esp
     9d2:	89 45 b0             	mov    %eax,-0x50(%ebp)
     9d5:	0f b6 45 af          	movzbl -0x51(%ebp),%eax
     9d9:	89 55 b4             	mov    %edx,-0x4c(%ebp)
     9dc:	8b 55 c0             	mov    -0x40(%ebp),%edx
     9df:	01 d0                	add    %edx,%eax
     9e1:	8d 4a 30             	lea    0x30(%edx),%ecx
     9e4:	80 fa 09             	cmp    $0x9,%dl
     9e7:	8b 55 bc             	mov    -0x44(%ebp),%edx
     9ea:	0f 4e c1             	cmovle %ecx,%eax
     9ed:	83 c3 01             	add    $0x1,%ebx
     9f0:	88 44 1d c7          	mov    %al,-0x39(%ebp,%ebx,1)
     9f4:	8b 45 b8             	mov    -0x48(%ebp),%eax
     9f7:	39 c6                	cmp    %eax,%esi
     9f9:	19 d7                	sbb    %edx,%edi
     9fb:	73 b3                	jae    9b0 <_ntoa_long_long+0x70>
     9fd:	89 df                	mov    %ebx,%edi
     9ff:	0f b6 45 9c          	movzbl -0x64(%ebp),%eax
     a03:	8b 4d a0             	mov    -0x60(%ebp),%ecx
     a06:	ff 75 28             	push   0x28(%ebp)
     a09:	8b 55 a4             	mov    -0x5c(%ebp),%edx
     a0c:	ff 75 24             	push   0x24(%ebp)
     a0f:	ff 75 20             	push   0x20(%ebp)
     a12:	ff 75 b8             	push   -0x48(%ebp)
     a15:	50                   	push   %eax
     a16:	8d 45 c8             	lea    -0x38(%ebp),%eax
     a19:	57                   	push   %edi
     a1a:	50                   	push   %eax
     a1b:	8b 45 a8             	mov    -0x58(%ebp),%eax
     a1e:	ff 75 08             	push   0x8(%ebp)
     a21:	e8 aa fb ff ff       	call   5d0 <_ntoa_format>
     a26:	8d 65 f4             	lea    -0xc(%ebp),%esp
     a29:	5b                   	pop    %ebx
     a2a:	5e                   	pop    %esi
     a2b:	5f                   	pop    %edi
     a2c:	5d                   	pop    %ebp
     a2d:	c3                   	ret    
     a2e:	66 90                	xchg   %ax,%ax

00000a30 <_etoa>:
     a30:	55                   	push   %ebp
     a31:	89 e5                	mov    %esp,%ebp
     a33:	57                   	push   %edi
     a34:	56                   	push   %esi
     a35:	53                   	push   %ebx
     a36:	83 ec 4c             	sub    $0x4c,%esp
     a39:	dd 45 0c             	fldl   0xc(%ebp)
     a3c:	8b 5d 1c             	mov    0x1c(%ebp),%ebx
     a3f:	89 45 cc             	mov    %eax,-0x34(%ebp)
     a42:	8b 45 08             	mov    0x8(%ebp),%eax
     a45:	89 55 d0             	mov    %edx,-0x30(%ebp)
     a48:	89 4d c8             	mov    %ecx,-0x38(%ebp)
     a4b:	8b 55 14             	mov    0x14(%ebp),%edx
     a4e:	89 45 e0             	mov    %eax,-0x20(%ebp)
     a51:	8b 45 18             	mov    0x18(%ebp),%eax
     a54:	db e8                	fucomi %st(0),%st
     a56:	89 45 d4             	mov    %eax,-0x2c(%ebp)
     a59:	0f 8a b1 02 00 00    	jp     d10 <_etoa+0x2e0>
     a5f:	dd 05 00 00 00 00    	fldl   0x0
			a61: R_386_32	.rodata.cst8
     a65:	d9 c9                	fxch   %st(1)
     a67:	db f1                	fcomi  %st(1),%st
     a69:	dd d9                	fstp   %st(1)
     a6b:	0f 87 9f 02 00 00    	ja     d10 <_etoa+0x2e0>
     a71:	dd 05 08 00 00 00    	fldl   0x8
			a73: R_386_32	.rodata.cst8
     a77:	df f1                	fcomip %st(1),%st
     a79:	0f 87 91 02 00 00    	ja     d10 <_etoa+0x2e0>
     a7f:	d9 7d e6             	fnstcw -0x1a(%ebp)
     a82:	d9 c0                	fld    %st(0)
     a84:	89 d8                	mov    %ebx,%eax
     a86:	d9 e0                	fchs   
     a88:	d9 ee                	fldz   
     a8a:	df f2                	fcomip %st(2),%st
     a8c:	da d1                	fcmovbe %st(1),%st
     a8e:	25 00 04 00 00       	and    $0x400,%eax
     a93:	89 45 ac             	mov    %eax,-0x54(%ebp)
     a96:	b8 06 00 00 00       	mov    $0x6,%eax
     a9b:	0f 44 d0             	cmove  %eax,%edx
     a9e:	dd 55 d8             	fstl   -0x28(%ebp)
     aa1:	8b 45 dc             	mov    -0x24(%ebp),%eax
     aa4:	8b 75 d8             	mov    -0x28(%ebp),%esi
     aa7:	89 c1                	mov    %eax,%ecx
     aa9:	25 ff ff 0f 00       	and    $0xfffff,%eax
     aae:	c1 e9 14             	shr    $0x14,%ecx
     ab1:	0d 00 00 f0 3f       	or     $0x3ff00000,%eax
     ab6:	81 e1 ff 07 00 00    	and    $0x7ff,%ecx
     abc:	89 45 c4             	mov    %eax,-0x3c(%ebp)
     abf:	0f b7 45 e6          	movzwl -0x1a(%ebp),%eax
     ac3:	81 e9 ff 03 00 00    	sub    $0x3ff,%ecx
     ac9:	89 4d c0             	mov    %ecx,-0x40(%ebp)
     acc:	db 45 c0             	fildl  -0x40(%ebp)
     acf:	80 cc 0c             	or     $0xc,%ah
     ad2:	dc 0d 10 00 00 00    	fmull  0x10
			ad4: R_386_32	.rodata.cst8
     ad8:	dc 05 18 00 00 00    	faddl  0x18
			ada: R_386_32	.rodata.cst8
     ade:	89 75 c0             	mov    %esi,-0x40(%ebp)
     ae1:	dd 45 c0             	fldl   -0x40(%ebp)
     ae4:	66 89 45 e4          	mov    %ax,-0x1c(%ebp)
     ae8:	d8 25 00 00 00 00    	fsubs  0x0
			aea: R_386_32	.rodata.cst4
     aee:	dc 0d 20 00 00 00    	fmull  0x20
			af0: R_386_32	.rodata.cst8
     af4:	de c1                	faddp  %st,%st(1)
     af6:	d9 6d e4             	fldcw  -0x1c(%ebp)
     af9:	db 5d c0             	fistpl -0x40(%ebp)
     afc:	d9 6d e6             	fldcw  -0x1a(%ebp)
     aff:	db 45 c0             	fildl  -0x40(%ebp)
     b02:	dd 05 28 00 00 00    	fldl   0x28
			b04: R_386_32	.rodata.cst8
     b08:	d8 c9                	fmul   %st(1),%st
     b0a:	d8 05 04 00 00 00    	fadds  0x4
			b0c: R_386_32	.rodata.cst4
     b10:	d9 6d e4             	fldcw  -0x1c(%ebp)
     b13:	db 5d b8             	fistpl -0x48(%ebp)
     b16:	d9 6d e6             	fldcw  -0x1a(%ebp)
     b19:	dc 0d 30 00 00 00    	fmull  0x30
			b1b: R_386_32	.rodata.cst8
     b1f:	db 45 b8             	fildl  -0x48(%ebp)
     b22:	dc 0d 38 00 00 00    	fmull  0x38
			b24: R_386_32	.rodata.cst8
     b28:	de e9                	fsubrp %st,%st(1)
     b2a:	d9 c0                	fld    %st(0)
     b2c:	d8 c9                	fmul   %st(1),%st
     b2e:	d9 c1                	fld    %st(1)
     b30:	d8 c2                	fadd   %st(2),%st
     b32:	d9 c1                	fld    %st(1)
     b34:	d8 35 08 00 00 00    	fdivs  0x8
			b36: R_386_32	.rodata.cst4
     b3a:	d9 05 0c 00 00 00    	flds   0xc
			b3c: R_386_32	.rodata.cst4
     b40:	dc c1                	fadd   %st,%st(1)
     b42:	d9 c9                	fxch   %st(1)
     b44:	d8 fb                	fdivr  %st(3),%st
     b46:	d8 05 10 00 00 00    	fadds  0x10
			b48: R_386_32	.rodata.cst4
     b4c:	de fb                	fdivrp %st,%st(3)
     b4e:	d9 cb                	fxch   %st(3)
     b50:	d8 2d 14 00 00 00    	fsubrs 0x14
			b52: R_386_32	.rodata.cst4
     b56:	de c2                	faddp  %st,%st(2)
     b58:	de f1                	fdivp  %st,%st(1)
     b5a:	d8 05 18 00 00 00    	fadds  0x18
			b5c: R_386_32	.rodata.cst4
     b60:	8b 75 b8             	mov    -0x48(%ebp),%esi
     b63:	81 c6 ff 03 00 00    	add    $0x3ff,%esi
     b69:	89 f7                	mov    %esi,%edi
     b6b:	be 00 00 00 00       	mov    $0x0,%esi
     b70:	c1 e7 14             	shl    $0x14,%edi
     b73:	89 75 b8             	mov    %esi,-0x48(%ebp)
     b76:	89 7d bc             	mov    %edi,-0x44(%ebp)
     b79:	dc 4d b8             	fmull  -0x48(%ebp)
     b7c:	dd 55 b8             	fstl   -0x48(%ebp)
     b7f:	df f2                	fcomip %st(2),%st
     b81:	dd d9                	fstp   %st(1)
     b83:	0f 87 b7 01 00 00    	ja     d40 <_etoa+0x310>
     b89:	dd d8                	fstp   %st(0)
     b8b:	8b 75 b8             	mov    -0x48(%ebp),%esi
     b8e:	8b 7d bc             	mov    -0x44(%ebp),%edi
     b91:	89 75 b0             	mov    %esi,-0x50(%ebp)
     b94:	89 7d b4             	mov    %edi,-0x4c(%ebp)
     b97:	8b 7d c0             	mov    -0x40(%ebp),%edi
     b9a:	8d 47 63             	lea    0x63(%edi),%eax
     b9d:	3d c6 00 00 00       	cmp    $0xc6,%eax
     ba2:	0f 97 c0             	seta   %al
     ba5:	0f b6 c0             	movzbl %al,%eax
     ba8:	89 c6                	mov    %eax,%esi
     baa:	83 c6 04             	add    $0x4,%esi
     bad:	f6 c7 08             	test   $0x8,%bh
     bb0:	74 40                	je     bf2 <_etoa+0x1c2>
     bb2:	dd 05 40 00 00 00    	fldl   0x40
			bb4: R_386_32	.rodata.cst8
     bb8:	dd 45 d8             	fldl   -0x28(%ebp)
     bbb:	89 d0                	mov    %edx,%eax
     bbd:	db f1                	fcomi  %st(1),%st
     bbf:	dd d9                	fstp   %st(1)
     bc1:	72 1d                	jb     be0 <_etoa+0x1b0>
     bc3:	d9 05 1c 00 00 00    	flds   0x1c
			bc5: R_386_32	.rodata.cst4
     bc9:	df f1                	fcomip %st(1),%st
     bcb:	dd d8                	fstp   %st(0)
     bcd:	0f 87 ad 01 00 00    	ja     d80 <_etoa+0x350>
     bd3:	eb 0d                	jmp    be2 <_etoa+0x1b2>
     bd5:	8d b4 26 00 00 00 00 	lea    0x0(%esi,%eiz,1),%esi
     bdc:	8d 74 26 00          	lea    0x0(%esi,%eiz,1),%esi
     be0:	dd d8                	fstp   %st(0)
     be2:	83 7d ac 01          	cmpl   $0x1,-0x54(%ebp)
     be6:	89 d1                	mov    %edx,%ecx
     be8:	83 d1 ff             	adc    $0xffffffff,%ecx
     beb:	85 d2                	test   %edx,%edx
     bed:	0f 45 c1             	cmovne %ecx,%eax
     bf0:	89 c2                	mov    %eax,%edx
     bf2:	8b 4d d4             	mov    -0x2c(%ebp),%ecx
     bf5:	89 df                	mov    %ebx,%edi
     bf7:	c6 45 b8 01          	movb   $0x1,-0x48(%ebp)
     bfb:	83 e7 02             	and    $0x2,%edi
     bfe:	89 c8                	mov    %ecx,%eax
     c00:	29 f0                	sub    %esi,%eax
     c02:	39 ce                	cmp    %ecx,%esi
     c04:	b9 00 00 00 00       	mov    $0x0,%ecx
     c09:	0f 43 c1             	cmovae %ecx,%eax
     c0c:	83 ff 01             	cmp    $0x1,%edi
     c0f:	19 c9                	sbb    %ecx,%ecx
     c11:	83 c1 01             	add    $0x1,%ecx
     c14:	85 ff                	test   %edi,%edi
     c16:	bf 00 00 00 00       	mov    $0x0,%edi
     c1b:	88 4d ac             	mov    %cl,-0x54(%ebp)
     c1e:	8b 4d c0             	mov    -0x40(%ebp),%ecx
     c21:	0f 45 c7             	cmovne %edi,%eax
     c24:	85 c9                	test   %ecx,%ecx
     c26:	74 09                	je     c31 <_etoa+0x201>
     c28:	dd 45 d8             	fldl   -0x28(%ebp)
     c2b:	dc 75 b0             	fdivl  -0x50(%ebp)
     c2e:	dd 5d d8             	fstpl  -0x28(%ebp)
     c31:	89 d9                	mov    %ebx,%ecx
     c33:	d9 ee                	fldz   
     c35:	80 e5 f7             	and    $0xf7,%ch
     c38:	df f1                	fcomip %st(1),%st
     c3a:	dd d8                	fstp   %st(0)
     c3c:	0f 87 2e 01 00 00    	ja     d70 <_etoa+0x340>
     c42:	83 ec 08             	sub    $0x8,%esp
     c45:	8b 7d d0             	mov    -0x30(%ebp),%edi
     c48:	51                   	push   %ecx
     c49:	8b 4d c8             	mov    -0x38(%ebp),%ecx
     c4c:	50                   	push   %eax
     c4d:	8b 45 cc             	mov    -0x34(%ebp),%eax
     c50:	52                   	push   %edx
     c51:	89 fa                	mov    %edi,%edx
     c53:	ff 75 dc             	push   -0x24(%ebp)
     c56:	ff 75 d8             	push   -0x28(%ebp)
     c59:	ff 75 e0             	push   -0x20(%ebp)
     c5c:	e8 8f 01 00 00       	call   df0 <_ftoa>
     c61:	83 c4 20             	add    $0x20,%esp
     c64:	80 7d b8 00          	cmpb   $0x0,-0x48(%ebp)
     c68:	0f 84 8f 00 00 00    	je     cfd <_etoa+0x2cd>
     c6e:	83 e3 20             	and    $0x20,%ebx
     c71:	8d 50 01             	lea    0x1(%eax),%edx
     c74:	ff 75 e0             	push   -0x20(%ebp)
     c77:	83 fb 01             	cmp    $0x1,%ebx
     c7a:	50                   	push   %eax
     c7b:	19 c9                	sbb    %ecx,%ecx
     c7d:	57                   	push   %edi
     c7e:	8b 45 cc             	mov    -0x34(%ebp),%eax
     c81:	83 ee 01             	sub    $0x1,%esi
     c84:	83 e1 20             	and    $0x20,%ecx
     c87:	89 55 d8             	mov    %edx,-0x28(%ebp)
     c8a:	83 c1 45             	add    $0x45,%ecx
     c8d:	51                   	push   %ecx
     c8e:	ff d0                	call   *%eax
     c90:	8b 5d c0             	mov    -0x40(%ebp),%ebx
     c93:	89 fa                	mov    %edi,%edx
     c95:	8b 7d cc             	mov    -0x34(%ebp),%edi
     c98:	8b 4d d8             	mov    -0x28(%ebp),%ecx
     c9b:	89 d8                	mov    %ebx,%eax
     c9d:	83 c4 0c             	add    $0xc,%esp
     ca0:	c1 e8 1f             	shr    $0x1f,%eax
     ca3:	6a 05                	push   $0x5
     ca5:	56                   	push   %esi
     ca6:	6a 00                	push   $0x0
     ca8:	6a 0a                	push   $0xa
     caa:	50                   	push   %eax
     cab:	89 d8                	mov    %ebx,%eax
     cad:	f7 d8                	neg    %eax
     caf:	0f 48 c3             	cmovs  %ebx,%eax
     cb2:	50                   	push   %eax
     cb3:	89 f8                	mov    %edi,%eax
     cb5:	ff 75 e0             	push   -0x20(%ebp)
     cb8:	e8 b3 fb ff ff       	call   870 <_ntoa_long>
     cbd:	83 c4 20             	add    $0x20,%esp
     cc0:	80 7d ac 00          	cmpb   $0x0,-0x54(%ebp)
     cc4:	74 37                	je     cfd <_etoa+0x2cd>
     cc6:	89 c3                	mov    %eax,%ebx
     cc8:	2b 5d c8             	sub    -0x38(%ebp),%ebx
     ccb:	39 5d d4             	cmp    %ebx,-0x2c(%ebp)
     cce:	76 2d                	jbe    cfd <_etoa+0x2cd>
     cd0:	89 c6                	mov    %eax,%esi
     cd2:	8d b4 26 00 00 00 00 	lea    0x0(%esi,%eiz,1),%esi
     cd9:	8d b4 26 00 00 00 00 	lea    0x0(%esi,%eiz,1),%esi
     ce0:	89 f1                	mov    %esi,%ecx
     ce2:	ff 75 e0             	push   -0x20(%ebp)
     ce5:	83 c6 01             	add    $0x1,%esi
     ce8:	83 c3 01             	add    $0x1,%ebx
     ceb:	51                   	push   %ecx
     cec:	ff 75 d0             	push   -0x30(%ebp)
     cef:	6a 20                	push   $0x20
     cf1:	ff d7                	call   *%edi
     cf3:	83 c4 10             	add    $0x10,%esp
     cf6:	39 5d d4             	cmp    %ebx,-0x2c(%ebp)
     cf9:	77 e5                	ja     ce0 <_etoa+0x2b0>
     cfb:	89 f0                	mov    %esi,%eax
     cfd:	8d 65 f4             	lea    -0xc(%ebp),%esp
     d00:	5b                   	pop    %ebx
     d01:	5e                   	pop    %esi
     d02:	5f                   	pop    %edi
     d03:	5d                   	pop    %ebp
     d04:	c3                   	ret    
     d05:	8d b4 26 00 00 00 00 	lea    0x0(%esi,%eiz,1),%esi
     d0c:	8d 74 26 00          	lea    0x0(%esi,%eiz,1),%esi
     d10:	8b 45 d4             	mov    -0x2c(%ebp),%eax
     d13:	89 5d 1c             	mov    %ebx,0x1c(%ebp)
     d16:	89 55 14             	mov    %edx,0x14(%ebp)
     d19:	89 45 18             	mov    %eax,0x18(%ebp)
     d1c:	dd 5d 0c             	fstpl  0xc(%ebp)
     d1f:	8b 45 e0             	mov    -0x20(%ebp),%eax
     d22:	8b 4d c8             	mov    -0x38(%ebp),%ecx
     d25:	8b 55 d0             	mov    -0x30(%ebp),%edx
     d28:	89 45 08             	mov    %eax,0x8(%ebp)
     d2b:	8b 45 cc             	mov    -0x34(%ebp),%eax
     d2e:	8d 65 f4             	lea    -0xc(%ebp),%esp
     d31:	5b                   	pop    %ebx
     d32:	5e                   	pop    %esi
     d33:	5f                   	pop    %edi
     d34:	5d                   	pop    %ebp
     d35:	e9 b6 00 00 00       	jmp    df0 <_ftoa>
     d3a:	8d b6 00 00 00 00    	lea    0x0(%esi),%esi
     d40:	dc 7d b8             	fdivrl -0x48(%ebp)
     d43:	83 6d c0 01          	subl   $0x1,-0x40(%ebp)
     d47:	dd 5d b0             	fstpl  -0x50(%ebp)
     d4a:	e9 48 fe ff ff       	jmp    b97 <_etoa+0x167>
     d4f:	c6 45 ac 00          	movb   $0x0,-0x54(%ebp)
     d53:	89 f3                	mov    %esi,%ebx
     d55:	31 c0                	xor    %eax,%eax
     d57:	31 f6                	xor    %esi,%esi
     d59:	c6 45 b8 00          	movb   $0x0,-0x48(%ebp)
     d5d:	c7 45 c0 00 00 00 00 	movl   $0x0,-0x40(%ebp)
     d64:	8d b4 26 00 00 00 00 	lea    0x0(%esi,%eiz,1),%esi
     d6b:	8d 74 26 00          	lea    0x0(%esi,%eiz,1),%esi
     d6f:	90                   	nop
     d70:	dd 45 d8             	fldl   -0x28(%ebp)
     d73:	d9 e0                	fchs   
     d75:	dd 5d d8             	fstpl  -0x28(%ebp)
     d78:	e9 c5 fe ff ff       	jmp    c42 <_etoa+0x212>
     d7d:	8d 76 00             	lea    0x0(%esi),%esi
     d80:	29 f8                	sub    %edi,%eax
     d82:	31 c9                	xor    %ecx,%ecx
     d84:	89 de                	mov    %ebx,%esi
     d86:	83 e8 01             	sub    $0x1,%eax
     d89:	39 fa                	cmp    %edi,%edx
     d8b:	8b 7d d4             	mov    -0x2c(%ebp),%edi
     d8e:	89 ca                	mov    %ecx,%edx
     d90:	0f 4f d0             	cmovg  %eax,%edx
     d93:	81 ce 00 04 00 00    	or     $0x400,%esi
     d99:	85 ff                	test   %edi,%edi
     d9b:	75 33                	jne    dd0 <_etoa+0x3a0>
     d9d:	80 e7 f7             	and    $0xf7,%bh
     da0:	d9 ee                	fldz   
     da2:	89 d9                	mov    %ebx,%ecx
     da4:	80 cd 04             	or     $0x4,%ch
     da7:	df f1                	fcomip %st(1),%st
     da9:	dd d8                	fstp   %st(0)
     dab:	77 a2                	ja     d4f <_etoa+0x31f>
     dad:	dd 45 d8             	fldl   -0x28(%ebp)
     db0:	89 4d 1c             	mov    %ecx,0x1c(%ebp)
     db3:	c7 45 18 00 00 00 00 	movl   $0x0,0x18(%ebp)
     dba:	89 55 14             	mov    %edx,0x14(%ebp)
     dbd:	dd 5d 0c             	fstpl  0xc(%ebp)
     dc0:	e9 5a ff ff ff       	jmp    d1f <_etoa+0x2ef>
     dc5:	8d b4 26 00 00 00 00 	lea    0x0(%esi,%eiz,1),%esi
     dcc:	8d 74 26 00          	lea    0x0(%esi,%eiz,1),%esi
     dd0:	89 f3                	mov    %esi,%ebx
     dd2:	c7 45 c0 00 00 00 00 	movl   $0x0,-0x40(%ebp)
     dd9:	8b 45 d4             	mov    -0x2c(%ebp),%eax
     ddc:	31 f6                	xor    %esi,%esi
     dde:	c6 45 b8 00          	movb   $0x0,-0x48(%ebp)
     de2:	c6 45 ac 00          	movb   $0x0,-0x54(%ebp)
     de6:	e9 46 fe ff ff       	jmp    c31 <_etoa+0x201>
     deb:	8d 74 26 00          	lea    0x0(%esi,%eiz,1),%esi
     def:	90                   	nop

00000df0 <_ftoa>:
     df0:	55                   	push   %ebp
     df1:	89 e5                	mov    %esp,%ebp
     df3:	57                   	push   %edi
     df4:	56                   	push   %esi
     df5:	53                   	push   %ebx
     df6:	83 ec 5c             	sub    $0x5c,%esp
     df9:	dd 45 0c             	fldl   0xc(%ebp)
     dfc:	8b 7d 14             	mov    0x14(%ebp),%edi
     dff:	89 45 b8             	mov    %eax,-0x48(%ebp)
     e02:	8b 45 08             	mov    0x8(%ebp),%eax
     e05:	89 55 b4             	mov    %edx,-0x4c(%ebp)
     e08:	89 4d b0             	mov    %ecx,-0x50(%ebp)
     e0b:	89 45 ac             	mov    %eax,-0x54(%ebp)
     e0e:	8b 45 18             	mov    0x18(%ebp),%eax
     e11:	db e8                	fucomi %st(0),%st
     e13:	89 45 bc             	mov    %eax,-0x44(%ebp)
     e16:	8b 45 1c             	mov    0x1c(%ebp),%eax
     e19:	89 45 c0             	mov    %eax,-0x40(%ebp)
     e1c:	0f 8a de 01 00 00    	jp     1000 <_ftoa+0x210>
     e22:	dd 05 08 00 00 00    	fldl   0x8
			e24: R_386_32	.rodata.cst8
     e28:	df f1                	fcomip %st(1),%st
     e2a:	0f 87 40 02 00 00    	ja     1070 <_ftoa+0x280>
     e30:	dd 05 00 00 00 00    	fldl   0x0
			e32: R_386_32	.rodata.cst8
     e36:	d9 c9                	fxch   %st(1)
     e38:	db f1                	fcomi  %st(1),%st
     e3a:	dd d9                	fstp   %st(1)
     e3c:	0f 87 6e 01 00 00    	ja     fb0 <_ftoa+0x1c0>
     e42:	d9 05 20 00 00 00    	flds   0x20
			e44: R_386_32	.rodata.cst4
     e48:	d9 c9                	fxch   %st(1)
     e4a:	db f1                	fcomi  %st(1),%st
     e4c:	dd d9                	fstp   %st(1)
     e4e:	0f 87 ec 01 00 00    	ja     1040 <_ftoa+0x250>
     e54:	d9 05 24 00 00 00    	flds   0x24
			e56: R_386_32	.rodata.cst4
     e5a:	df f1                	fcomip %st(1),%st
     e5c:	0f 87 de 01 00 00    	ja     1040 <_ftoa+0x250>
     e62:	d9 ee                	fldz   
     e64:	db f1                	fcomi  %st(1),%st
     e66:	0f 87 c4 01 00 00    	ja     1030 <_ftoa+0x240>
     e6c:	dd d8                	fstp   %st(0)
     e6e:	c6 45 ab 00          	movb   $0x0,-0x55(%ebp)
     e72:	8b 4d c0             	mov    -0x40(%ebp),%ecx
     e75:	81 e1 00 04 00 00    	and    $0x400,%ecx
     e7b:	0f 84 ff 02 00 00    	je     1180 <_ftoa+0x390>
     e81:	31 c9                	xor    %ecx,%ecx
     e83:	8d 45 c7             	lea    -0x39(%ebp),%eax
     e86:	83 ff 09             	cmp    $0x9,%edi
     e89:	0f 86 14 04 00 00    	jbe    12a3 <_ftoa+0x4b3>
     e8f:	90                   	nop
     e90:	83 c1 01             	add    $0x1,%ecx
     e93:	83 ef 01             	sub    $0x1,%edi
     e96:	c6 04 08 30          	movb   $0x30,(%eax,%ecx,1)
     e9a:	83 f9 1f             	cmp    $0x1f,%ecx
     e9d:	77 05                	ja     ea4 <_ftoa+0xb4>
     e9f:	83 ff 09             	cmp    $0x9,%edi
     ea2:	77 ec                	ja     e90 <_ftoa+0xa0>
     ea4:	d9 05 20 00 00 00    	flds   0x20
			ea6: R_386_32	.rodata.cst4
     eaa:	d9 c9                	fxch   %st(1)
     eac:	d9 7d c6             	fnstcw -0x3a(%ebp)
     eaf:	0f b7 45 c6          	movzwl -0x3a(%ebp),%eax
     eb3:	80 cc 0c             	or     $0xc,%ah
     eb6:	66 89 45 c4          	mov    %ax,-0x3c(%ebp)
     eba:	d9 6d c4             	fldcw  -0x3c(%ebp)
     ebd:	db 55 a0             	fistl  -0x60(%ebp)
     ec0:	d9 6d c6             	fldcw  -0x3a(%ebp)
     ec3:	db 45 a0             	fildl  -0x60(%ebp)
     ec6:	8b 75 a0             	mov    -0x60(%ebp),%esi
     ec9:	d8 e9                	fsubr  %st(1),%st
     ecb:	d8 ca                	fmul   %st(2),%st
     ecd:	d9 c0                	fld    %st(0)
     ecf:	d9 6d c4             	fldcw  -0x3c(%ebp)
     ed2:	df 7d a0             	fistpll -0x60(%ebp)
     ed5:	d9 6d c6             	fldcw  -0x3a(%ebp)
     ed8:	c7 45 a4 00 00 00 00 	movl   $0x0,-0x5c(%ebp)
     edf:	df 6d a0             	fildll -0x60(%ebp)
     ee2:	8b 5d a0             	mov    -0x60(%ebp),%ebx
     ee5:	de e9                	fsubrp %st,%st(1)
     ee7:	d9 05 04 00 00 00    	flds   0x4
			ee9: R_386_32	.rodata.cst4
     eed:	d9 c9                	fxch   %st(1)
     eef:	db f1                	fcomi  %st(1),%st
     ef1:	0f 86 59 02 00 00    	jbe    1150 <_ftoa+0x360>
     ef7:	dd d8                	fstp   %st(0)
     ef9:	dd d8                	fstp   %st(0)
     efb:	83 c3 01             	add    $0x1,%ebx
     efe:	c7 45 a4 00 00 00 00 	movl   $0x0,-0x5c(%ebp)
     f05:	89 5d a0             	mov    %ebx,-0x60(%ebp)
     f08:	df 6d a0             	fildll -0x60(%ebp)
     f0b:	df f2                	fcomip %st(2),%st
     f0d:	dd d9                	fstp   %st(1)
     f0f:	72 05                	jb     f16 <_ftoa+0x126>
     f11:	83 c6 01             	add    $0x1,%esi
     f14:	31 db                	xor    %ebx,%ebx
     f16:	85 ff                	test   %edi,%edi
     f18:	0f 84 82 01 00 00    	je     10a0 <_ftoa+0x2b0>
     f1e:	dd d8                	fstp   %st(0)
     f20:	89 75 9c             	mov    %esi,-0x64(%ebp)
     f23:	eb 3c                	jmp    f61 <_ftoa+0x171>
     f25:	8d b4 26 00 00 00 00 	lea    0x0(%esi,%eiz,1),%esi
     f2c:	8d 74 26 00          	lea    0x0(%esi,%eiz,1),%esi
     f30:	8d 47 ff             	lea    -0x1(%edi),%eax
     f33:	83 c1 01             	add    $0x1,%ecx
     f36:	89 45 a0             	mov    %eax,-0x60(%ebp)
     f39:	b8 cd cc cc cc       	mov    $0xcccccccd,%eax
     f3e:	f7 e3                	mul    %ebx
     f40:	89 d8                	mov    %ebx,%eax
     f42:	c1 ea 03             	shr    $0x3,%edx
     f45:	8d 34 92             	lea    (%edx,%edx,4),%esi
     f48:	01 f6                	add    %esi,%esi
     f4a:	29 f0                	sub    %esi,%eax
     f4c:	83 c0 30             	add    $0x30,%eax
     f4f:	88 44 0d c7          	mov    %al,-0x39(%ebp,%ecx,1)
     f53:	83 fb 09             	cmp    $0x9,%ebx
     f56:	0f 86 64 02 00 00    	jbe    11c0 <_ftoa+0x3d0>
     f5c:	8b 7d a0             	mov    -0x60(%ebp),%edi
     f5f:	89 d3                	mov    %edx,%ebx
     f61:	83 f9 20             	cmp    $0x20,%ecx
     f64:	75 ca                	jne    f30 <_ftoa+0x140>
     f66:	8b 45 c0             	mov    -0x40(%ebp),%eax
     f69:	83 e0 03             	and    $0x3,%eax
     f6c:	83 f8 01             	cmp    $0x1,%eax
     f6f:	0f 84 bb 02 00 00    	je     1230 <_ftoa+0x440>
     f75:	b8 20 00 00 00       	mov    $0x20,%eax
     f7a:	83 ec 0c             	sub    $0xc,%esp
     f7d:	8b 4d b0             	mov    -0x50(%ebp),%ecx
     f80:	8b 55 b4             	mov    -0x4c(%ebp),%edx
     f83:	ff 75 c0             	push   -0x40(%ebp)
     f86:	ff 75 bc             	push   -0x44(%ebp)
     f89:	50                   	push   %eax
     f8a:	8d 45 c8             	lea    -0x38(%ebp),%eax
     f8d:	50                   	push   %eax
     f8e:	8b 45 b8             	mov    -0x48(%ebp),%eax
     f91:	ff 75 ac             	push   -0x54(%ebp)
     f94:	e8 67 f5 ff ff       	call   500 <_out_rev>
     f99:	83 c4 20             	add    $0x20,%esp
     f9c:	8d 65 f4             	lea    -0xc(%ebp),%esp
     f9f:	5b                   	pop    %ebx
     fa0:	5e                   	pop    %esi
     fa1:	5f                   	pop    %edi
     fa2:	5d                   	pop    %ebp
     fa3:	c3                   	ret    
     fa4:	8d b4 26 00 00 00 00 	lea    0x0(%esi,%eiz,1),%esi
     fab:	8d 74 26 00          	lea    0x0(%esi,%eiz,1),%esi
     faf:	90                   	nop
     fb0:	dd d8                	fstp   %st(0)
     fb2:	8b 5d c0             	mov    -0x40(%ebp),%ebx
     fb5:	b9 1e 00 00 00       	mov    $0x1e,%ecx
			fb6: R_386_32	.rodata.str1.1
     fba:	89 d8                	mov    %ebx,%eax
     fbc:	89 5d 18             	mov    %ebx,0x18(%ebp)
     fbf:	8b 5d bc             	mov    -0x44(%ebp),%ebx
     fc2:	83 e0 04             	and    $0x4,%eax
     fc5:	83 f8 01             	cmp    $0x1,%eax
     fc8:	89 5d 14             	mov    %ebx,0x14(%ebp)
     fcb:	19 d2                	sbb    %edx,%edx
     fcd:	83 c2 04             	add    $0x4,%edx
     fd0:	85 c0                	test   %eax,%eax
     fd2:	b8 19 00 00 00       	mov    $0x19,%eax
			fd3: R_386_32	.rodata.str1.1
     fd7:	0f 44 c1             	cmove  %ecx,%eax
     fda:	89 55 10             	mov    %edx,0x10(%ebp)
     fdd:	89 45 0c             	mov    %eax,0xc(%ebp)
     fe0:	8b 45 ac             	mov    -0x54(%ebp),%eax
     fe3:	8b 4d b0             	mov    -0x50(%ebp),%ecx
     fe6:	8b 55 b4             	mov    -0x4c(%ebp),%edx
     fe9:	89 45 08             	mov    %eax,0x8(%ebp)
     fec:	8b 45 b8             	mov    -0x48(%ebp),%eax
     fef:	8d 65 f4             	lea    -0xc(%ebp),%esp
     ff2:	5b                   	pop    %ebx
     ff3:	5e                   	pop    %esi
     ff4:	5f                   	pop    %edi
     ff5:	5d                   	pop    %ebp
     ff6:	e9 05 f5 ff ff       	jmp    500 <_out_rev>
     ffb:	8d 74 26 00          	lea    0x0(%esi,%eiz,1),%esi
     fff:	90                   	nop
    1000:	dd d8                	fstp   %st(0)
    1002:	89 45 18             	mov    %eax,0x18(%ebp)
    1005:	8b 45 bc             	mov    -0x44(%ebp),%eax
    1008:	c7 45 10 03 00 00 00 	movl   $0x3,0x10(%ebp)
    100f:	89 45 14             	mov    %eax,0x14(%ebp)
    1012:	8b 45 b8             	mov    -0x48(%ebp),%eax
    1015:	c7 45 0c 22 00 00 00 	movl   $0x22,0xc(%ebp)
			1018: R_386_32	.rodata.str1.1
    101c:	8d 65 f4             	lea    -0xc(%ebp),%esp
    101f:	5b                   	pop    %ebx
    1020:	5e                   	pop    %esi
    1021:	5f                   	pop    %edi
    1022:	5d                   	pop    %ebp
    1023:	e9 d8 f4 ff ff       	jmp    500 <_out_rev>
    1028:	8d b4 26 00 00 00 00 	lea    0x0(%esi,%eiz,1),%esi
    102f:	90                   	nop
    1030:	de e1                	fsubp  %st,%st(1)
    1032:	c6 45 ab 01          	movb   $0x1,-0x55(%ebp)
    1036:	e9 37 fe ff ff       	jmp    e72 <_ftoa+0x82>
    103b:	8d 74 26 00          	lea    0x0(%esi,%eiz,1),%esi
    103f:	90                   	nop
    1040:	8b 45 c0             	mov    -0x40(%ebp),%eax
    1043:	8b 4d b0             	mov    -0x50(%ebp),%ecx
    1046:	89 7d 14             	mov    %edi,0x14(%ebp)
    1049:	8b 55 b4             	mov    -0x4c(%ebp),%edx
    104c:	dd 5d 0c             	fstpl  0xc(%ebp)
    104f:	89 45 1c             	mov    %eax,0x1c(%ebp)
    1052:	8b 45 bc             	mov    -0x44(%ebp),%eax
    1055:	89 45 18             	mov    %eax,0x18(%ebp)
    1058:	8b 45 ac             	mov    -0x54(%ebp),%eax
    105b:	89 45 08             	mov    %eax,0x8(%ebp)
    105e:	8b 45 b8             	mov    -0x48(%ebp),%eax
    1061:	8d 65 f4             	lea    -0xc(%ebp),%esp
    1064:	5b                   	pop    %ebx
    1065:	5e                   	pop    %esi
    1066:	5f                   	pop    %edi
    1067:	5d                   	pop    %ebp
    1068:	e9 c3 f9 ff ff       	jmp    a30 <_etoa>
    106d:	8d 76 00             	lea    0x0(%esi),%esi
    1070:	dd d8                	fstp   %st(0)
    1072:	8b 45 c0             	mov    -0x40(%ebp),%eax
    1075:	c7 45 10 04 00 00 00 	movl   $0x4,0x10(%ebp)
    107c:	c7 45 0c 26 00 00 00 	movl   $0x26,0xc(%ebp)
			107f: R_386_32	.rodata.str1.1
    1083:	89 45 18             	mov    %eax,0x18(%ebp)
    1086:	8b 45 bc             	mov    -0x44(%ebp),%eax
    1089:	89 45 14             	mov    %eax,0x14(%ebp)
    108c:	e9 4f ff ff ff       	jmp    fe0 <_ftoa+0x1f0>
    1091:	8d b4 26 00 00 00 00 	lea    0x0(%esi,%eiz,1),%esi
    1098:	8d b4 26 00 00 00 00 	lea    0x0(%esi,%eiz,1),%esi
    109f:	90                   	nop
    10a0:	89 75 a0             	mov    %esi,-0x60(%ebp)
    10a3:	db 45 a0             	fildl  -0x60(%ebp)
    10a6:	de e9                	fsubrp %st,%st(1)
    10a8:	d9 05 04 00 00 00    	flds   0x4
			10aa: R_386_32	.rodata.cst4
    10ae:	db f1                	fcomi  %st(1),%st
    10b0:	76 7e                	jbe    1130 <_ftoa+0x340>
    10b2:	d9 c9                	fxch   %st(1)
    10b4:	df f1                	fcomip %st(1),%st
    10b6:	dd d8                	fstp   %st(0)
    10b8:	77 7a                	ja     1134 <_ftoa+0x344>
    10ba:	8d b6 00 00 00 00    	lea    0x0(%esi),%esi
    10c0:	bb 67 66 66 66       	mov    $0x66666667,%ebx
    10c5:	8d b4 26 00 00 00 00 	lea    0x0(%esi,%eiz,1),%esi
    10cc:	8d 74 26 00          	lea    0x0(%esi,%eiz,1),%esi
    10d0:	83 f9 20             	cmp    $0x20,%ecx
    10d3:	0f 84 8d fe ff ff    	je     f66 <_ftoa+0x176>
    10d9:	89 f0                	mov    %esi,%eax
    10db:	83 c1 01             	add    $0x1,%ecx
    10de:	f7 eb                	imul   %ebx
    10e0:	89 f0                	mov    %esi,%eax
    10e2:	c1 f8 1f             	sar    $0x1f,%eax
    10e5:	c1 fa 02             	sar    $0x2,%edx
    10e8:	29 c2                	sub    %eax,%edx
    10ea:	8d 04 92             	lea    (%edx,%edx,4),%eax
    10ed:	01 c0                	add    %eax,%eax
    10ef:	29 c6                	sub    %eax,%esi
    10f1:	8d 46 30             	lea    0x30(%esi),%eax
    10f4:	89 d6                	mov    %edx,%esi
    10f6:	88 44 0d c7          	mov    %al,-0x39(%ebp,%ecx,1)
    10fa:	85 d2                	test   %edx,%edx
    10fc:	75 d2                	jne    10d0 <_ftoa+0x2e0>
    10fe:	8b 45 c0             	mov    -0x40(%ebp),%eax
    1101:	83 e0 03             	and    $0x3,%eax
    1104:	83 f8 01             	cmp    $0x1,%eax
    1107:	0f 84 83 01 00 00    	je     1290 <_ftoa+0x4a0>
    110d:	83 f9 20             	cmp    $0x20,%ecx
    1110:	0f 84 5f fe ff ff    	je     f75 <_ftoa+0x185>
    1116:	80 7d ab 00          	cmpb   $0x0,-0x55(%ebp)
    111a:	0f 84 80 00 00 00    	je     11a0 <_ftoa+0x3b0>
    1120:	c6 44 0d c8 2d       	movb   $0x2d,-0x38(%ebp,%ecx,1)
    1125:	8d 41 01             	lea    0x1(%ecx),%eax
    1128:	e9 4d fe ff ff       	jmp    f7a <_ftoa+0x18a>
    112d:	8d 76 00             	lea    0x0(%esi),%esi
    1130:	dd d8                	fstp   %st(0)
    1132:	dd d8                	fstp   %st(0)
    1134:	89 f0                	mov    %esi,%eax
    1136:	83 e0 01             	and    $0x1,%eax
    1139:	83 f8 01             	cmp    $0x1,%eax
    113c:	83 de ff             	sbb    $0xffffffff,%esi
    113f:	e9 7c ff ff ff       	jmp    10c0 <_ftoa+0x2d0>
    1144:	8d b4 26 00 00 00 00 	lea    0x0(%esi,%eiz,1),%esi
    114b:	8d 74 26 00          	lea    0x0(%esi,%eiz,1),%esi
    114f:	90                   	nop
    1150:	dd db                	fstp   %st(3)
    1152:	d9 c9                	fxch   %st(1)
    1154:	d9 ca                	fxch   %st(2)
    1156:	d9 c9                	fxch   %st(1)
    1158:	df f1                	fcomip %st(1),%st
    115a:	dd d8                	fstp   %st(0)
    115c:	0f 87 b4 fd ff ff    	ja     f16 <_ftoa+0x126>
    1162:	85 db                	test   %ebx,%ebx
    1164:	0f 85 b6 00 00 00    	jne    1220 <_ftoa+0x430>
    116a:	83 c3 01             	add    $0x1,%ebx
    116d:	e9 a4 fd ff ff       	jmp    f16 <_ftoa+0x126>
    1172:	8d b4 26 00 00 00 00 	lea    0x0(%esi,%eiz,1),%esi
    1179:	8d b4 26 00 00 00 00 	lea    0x0(%esi,%eiz,1),%esi
    1180:	d9 05 1c 00 00 00    	flds   0x1c
			1182: R_386_32	.rodata.cst4
    1186:	d9 c9                	fxch   %st(1)
    1188:	bf 06 00 00 00       	mov    $0x6,%edi
    118d:	e9 1a fd ff ff       	jmp    eac <_ftoa+0xbc>
    1192:	8d b4 26 00 00 00 00 	lea    0x0(%esi,%eiz,1),%esi
    1199:	8d b4 26 00 00 00 00 	lea    0x0(%esi,%eiz,1),%esi
    11a0:	f6 45 c0 04          	testb  $0x4,-0x40(%ebp)
    11a4:	75 6a                	jne    1210 <_ftoa+0x420>
    11a6:	89 c8                	mov    %ecx,%eax
    11a8:	f6 45 c0 08          	testb  $0x8,-0x40(%ebp)
    11ac:	0f 84 c8 fd ff ff    	je     f7a <_ftoa+0x18a>
    11b2:	c6 44 0d c8 20       	movb   $0x20,-0x38(%ebp,%ecx,1)
    11b7:	83 c0 01             	add    $0x1,%eax
    11ba:	e9 bb fd ff ff       	jmp    f7a <_ftoa+0x18a>
    11bf:	90                   	nop
    11c0:	8b 75 9c             	mov    -0x64(%ebp),%esi
    11c3:	83 f9 20             	cmp    $0x20,%ecx
    11c6:	0f 84 9a fd ff ff    	je     f66 <_ftoa+0x176>
    11cc:	8b 5d a0             	mov    -0x60(%ebp),%ebx
    11cf:	89 c8                	mov    %ecx,%eax
    11d1:	85 db                	test   %ebx,%ebx
    11d3:	74 28                	je     11fd <_ftoa+0x40d>
    11d5:	8d b4 26 00 00 00 00 	lea    0x0(%esi,%eiz,1),%esi
    11dc:	8d 74 26 00          	lea    0x0(%esi,%eiz,1),%esi
    11e0:	83 c0 01             	add    $0x1,%eax
    11e3:	c6 44 05 c7 30       	movb   $0x30,-0x39(%ebp,%eax,1)
    11e8:	83 f8 20             	cmp    $0x20,%eax
    11eb:	0f 84 75 fd ff ff    	je     f66 <_ftoa+0x176>
    11f1:	89 fa                	mov    %edi,%edx
    11f3:	29 c2                	sub    %eax,%edx
    11f5:	8d 54 11 ff          	lea    -0x1(%ecx,%edx,1),%edx
    11f9:	85 d2                	test   %edx,%edx
    11fb:	75 e3                	jne    11e0 <_ftoa+0x3f0>
    11fd:	c6 44 05 c8 2e       	movb   $0x2e,-0x38(%ebp,%eax,1)
    1202:	8d 48 01             	lea    0x1(%eax),%ecx
    1205:	e9 b6 fe ff ff       	jmp    10c0 <_ftoa+0x2d0>
    120a:	8d b6 00 00 00 00    	lea    0x0(%esi),%esi
    1210:	c6 44 0d c8 2b       	movb   $0x2b,-0x38(%ebp,%ecx,1)
    1215:	8d 41 01             	lea    0x1(%ecx),%eax
    1218:	e9 5d fd ff ff       	jmp    f7a <_ftoa+0x18a>
    121d:	8d 76 00             	lea    0x0(%esi),%esi
    1220:	f6 c3 01             	test   $0x1,%bl
    1223:	0f 84 ed fc ff ff    	je     f16 <_ftoa+0x126>
    1229:	e9 3c ff ff ff       	jmp    116a <_ftoa+0x37a>
    122e:	66 90                	xchg   %ax,%ax
    1230:	8b 45 bc             	mov    -0x44(%ebp),%eax
    1233:	85 c0                	test   %eax,%eax
    1235:	0f 84 3a fd ff ff    	je     f75 <_ftoa+0x185>
    123b:	31 d2                	xor    %edx,%edx
    123d:	b9 20 00 00 00       	mov    $0x20,%ecx
    1242:	80 7d ab 00          	cmpb   $0x0,-0x55(%ebp)
    1246:	75 06                	jne    124e <_ftoa+0x45e>
    1248:	f6 45 c0 0c          	testb  $0xc,-0x40(%ebp)
    124c:	74 04                	je     1252 <_ftoa+0x462>
    124e:	83 6d bc 01          	subl   $0x1,-0x44(%ebp)
    1252:	3b 4d bc             	cmp    -0x44(%ebp),%ecx
    1255:	0f 83 b2 fe ff ff    	jae    110d <_ftoa+0x31d>
    125b:	8d 45 c7             	lea    -0x39(%ebp),%eax
    125e:	84 d2                	test   %dl,%dl
    1260:	0f 84 a7 fe ff ff    	je     110d <_ftoa+0x31d>
    1266:	8b 55 bc             	mov    -0x44(%ebp),%edx
    1269:	8d b4 26 00 00 00 00 	lea    0x0(%esi,%eiz,1),%esi
    1270:	83 c1 01             	add    $0x1,%ecx
    1273:	c6 04 08 30          	movb   $0x30,(%eax,%ecx,1)
    1277:	39 d1                	cmp    %edx,%ecx
    1279:	0f 83 8e fe ff ff    	jae    110d <_ftoa+0x31d>
    127f:	83 f9 1f             	cmp    $0x1f,%ecx
    1282:	76 ec                	jbe    1270 <_ftoa+0x480>
    1284:	e9 84 fe ff ff       	jmp    110d <_ftoa+0x31d>
    1289:	8d b4 26 00 00 00 00 	lea    0x0(%esi,%eiz,1),%esi
    1290:	8b 55 bc             	mov    -0x44(%ebp),%edx
    1293:	85 d2                	test   %edx,%edx
    1295:	0f 84 72 fe ff ff    	je     110d <_ftoa+0x31d>
    129b:	83 f9 1f             	cmp    $0x1f,%ecx
    129e:	0f 96 c2             	setbe  %dl
    12a1:	eb 9f                	jmp    1242 <_ftoa+0x452>
    12a3:	dd 04 fd 20 03 00 00 	fldl   0x320(,%edi,8)
			12a6: R_386_32	.rodata
    12aa:	d9 c9                	fxch   %st(1)
    12ac:	e9 fb fb ff ff       	jmp    eac <_ftoa+0xbc>
    12b1:	8d b4 26 00 00 00 00 	lea    0x0(%esi,%eiz,1),%esi
    12b8:	8d b4 26 00 00 00 00 	lea    0x0(%esi,%eiz,1),%esi
    12bf:	90                   	nop

000012c0 <_out_char>:
    12c0:	55                   	push   %ebp
    12c1:	89 e5                	mov    %esp,%ebp
    12c3:	8b 45 08             	mov    0x8(%ebp),%eax
    12c6:	84 c0                	test   %al,%al
    12c8:	75 06                	jne    12d0 <_out_char+0x10>
    12ca:	5d                   	pop    %ebp
    12cb:	c3                   	ret    
    12cc:	8d 74 26 00          	lea    0x0(%esi,%eiz,1),%esi
    12d0:	0f be c0             	movsbl %al,%eax
    12d3:	89 45 08             	mov    %eax,0x8(%ebp)
    12d6:	5d                   	pop    %ebp
    12d7:	e9 fc ff ff ff       	jmp    12d8 <_out_char+0x18>
			12d8: R_386_PC32	term_put_char
    12dc:	8d 74 26 00          	lea    0x0(%esi,%eiz,1),%esi

000012e0 <_out_fct>:
    12e0:	55                   	push   %ebp
    12e1:	89 e5                	mov    %esp,%ebp
    12e3:	8b 45 08             	mov    0x8(%ebp),%eax
    12e6:	8b 55 0c             	mov    0xc(%ebp),%edx
    12e9:	84 c0                	test   %al,%al
    12eb:	74 13                	je     1300 <_out_fct+0x20>
    12ed:	8b 4a 04             	mov    0x4(%edx),%ecx
    12f0:	0f be c0             	movsbl %al,%eax
    12f3:	89 45 08             	mov    %eax,0x8(%ebp)
    12f6:	89 4d 0c             	mov    %ecx,0xc(%ebp)
    12f9:	5d                   	pop    %ebp
    12fa:	8b 02                	mov    (%edx),%eax
    12fc:	ff e0                	jmp    *%eax
    12fe:	66 90                	xchg   %ax,%ax
    1300:	5d                   	pop    %ebp
    1301:	c3                   	ret    
    1302:	8d b4 26 00 00 00 00 	lea    0x0(%esi,%eiz,1),%esi
    1309:	8d b4 26 00 00 00 00 	lea    0x0(%esi,%eiz,1),%esi

00001310 <_vsnprintf>:
    1310:	55                   	push   %ebp
    1311:	89 e5                	mov    %esp,%ebp
    1313:	57                   	push   %edi
    1314:	56                   	push   %esi
    1315:	53                   	push   %ebx
    1316:	83 ec 4c             	sub    $0x4c,%esp
    1319:	8b 5d 08             	mov    0x8(%ebp),%ebx
    131c:	85 d2                	test   %edx,%edx
    131e:	89 55 e0             	mov    %edx,-0x20(%ebp)
    1321:	ba f0 04 00 00       	mov    $0x4f0,%edx
			1322: R_386_32	.text
    1326:	89 4d dc             	mov    %ecx,-0x24(%ebp)
    1329:	0f 45 d0             	cmovne %eax,%edx
    132c:	0f be 03             	movsbl (%ebx),%eax
    132f:	31 ff                	xor    %edi,%edi
    1331:	89 55 e4             	mov    %edx,-0x1c(%ebp)
    1334:	84 c0                	test   %al,%al
    1336:	75 28                	jne    1360 <_vsnprintf+0x50>
    1338:	e9 f3 06 00 00       	jmp    1a30 <_vsnprintf+0x720>
    133d:	8d 76 00             	lea    0x0(%esi),%esi
    1340:	ff 75 dc             	push   -0x24(%ebp)
    1343:	8d 77 01             	lea    0x1(%edi),%esi
    1346:	57                   	push   %edi
    1347:	89 f7                	mov    %esi,%edi
    1349:	ff 75 e0             	push   -0x20(%ebp)
    134c:	50                   	push   %eax
    134d:	8b 45 e4             	mov    -0x1c(%ebp),%eax
    1350:	ff d0                	call   *%eax
    1352:	83 c4 10             	add    $0x10,%esp
    1355:	0f be 03             	movsbl (%ebx),%eax
    1358:	84 c0                	test   %al,%al
    135a:	0f 84 80 01 00 00    	je     14e0 <_vsnprintf+0x1d0>
    1360:	83 c3 01             	add    $0x1,%ebx
    1363:	3c 25                	cmp    $0x25,%al
    1365:	75 d9                	jne    1340 <_vsnprintf+0x30>
    1367:	31 f6                	xor    %esi,%esi
    1369:	8d b4 26 00 00 00 00 	lea    0x0(%esi,%eiz,1),%esi
    1370:	0f be 03             	movsbl (%ebx),%eax
    1373:	8d 53 01             	lea    0x1(%ebx),%edx
    1376:	8d 48 e0             	lea    -0x20(%eax),%ecx
    1379:	80 f9 10             	cmp    $0x10,%cl
    137c:	77 12                	ja     1390 <_vsnprintf+0x80>
    137e:	0f b6 c9             	movzbl %cl,%ecx
    1381:	ff 24 8d 80 01 00 00 	jmp    *0x180(,%ecx,4)
			1384: R_386_32	.rodata
    1388:	8d b4 26 00 00 00 00 	lea    0x0(%esi,%eiz,1),%esi
    138f:	90                   	nop
    1390:	8d 48 d0             	lea    -0x30(%eax),%ecx
    1393:	80 f9 09             	cmp    $0x9,%cl
    1396:	0f 86 a4 01 00 00    	jbe    1540 <_vsnprintf+0x230>
    139c:	c7 45 d4 00 00 00 00 	movl   $0x0,-0x2c(%ebp)
    13a3:	3c 2a                	cmp    $0x2a,%al
    13a5:	0f 84 d5 01 00 00    	je     1580 <_vsnprintf+0x270>
    13ab:	c7 45 d8 00 00 00 00 	movl   $0x0,-0x28(%ebp)
    13b2:	3c 2e                	cmp    $0x2e,%al
    13b4:	0f 84 56 01 00 00    	je     1510 <_vsnprintf+0x200>
    13ba:	8d 48 98             	lea    -0x68(%eax),%ecx
    13bd:	80 f9 12             	cmp    $0x12,%cl
    13c0:	77 1b                	ja     13dd <_vsnprintf+0xcd>
    13c2:	0f b6 c9             	movzbl %cl,%ecx
    13c5:	ff 24 8d c4 01 00 00 	jmp    *0x1c4(,%ecx,4)
			13c8: R_386_32	.rodata
    13cc:	8d 74 26 00          	lea    0x0(%esi,%eiz,1),%esi
    13d0:	0f be 43 01          	movsbl 0x1(%ebx),%eax
    13d4:	81 ce 00 01 00 00    	or     $0x100,%esi
    13da:	83 c2 01             	add    $0x1,%edx
    13dd:	89 d3                	mov    %edx,%ebx
    13df:	3c 67                	cmp    $0x67,%al
    13e1:	7f 7d                	jg     1460 <_vsnprintf+0x150>
    13e3:	3c 24                	cmp    $0x24,%al
    13e5:	0f 8e 55 ff ff ff    	jle    1340 <_vsnprintf+0x30>
    13eb:	8d 50 db             	lea    -0x25(%eax),%edx
    13ee:	80 fa 42             	cmp    $0x42,%dl
    13f1:	0f 87 49 ff ff ff    	ja     1340 <_vsnprintf+0x30>
    13f7:	0f b6 d2             	movzbl %dl,%edx
    13fa:	ff 24 95 10 02 00 00 	jmp    *0x210(,%edx,4)
			13fd: R_386_32	.rodata
    1401:	8d b4 26 00 00 00 00 	lea    0x0(%esi,%eiz,1),%esi
    1408:	8d b4 26 00 00 00 00 	lea    0x0(%esi,%eiz,1),%esi
    140f:	90                   	nop
    1410:	83 ce 01             	or     $0x1,%esi
    1413:	89 d3                	mov    %edx,%ebx
    1415:	e9 56 ff ff ff       	jmp    1370 <_vsnprintf+0x60>
    141a:	8d b6 00 00 00 00    	lea    0x0(%esi),%esi
    1420:	83 ce 02             	or     $0x2,%esi
    1423:	89 d3                	mov    %edx,%ebx
    1425:	e9 46 ff ff ff       	jmp    1370 <_vsnprintf+0x60>
    142a:	8d b6 00 00 00 00    	lea    0x0(%esi),%esi
    1430:	83 ce 04             	or     $0x4,%esi
    1433:	89 d3                	mov    %edx,%ebx
    1435:	e9 36 ff ff ff       	jmp    1370 <_vsnprintf+0x60>
    143a:	8d b6 00 00 00 00    	lea    0x0(%esi),%esi
    1440:	83 ce 10             	or     $0x10,%esi
    1443:	89 d3                	mov    %edx,%ebx
    1445:	e9 26 ff ff ff       	jmp    1370 <_vsnprintf+0x60>
    144a:	8d b6 00 00 00 00    	lea    0x0(%esi),%esi
    1450:	83 ce 08             	or     $0x8,%esi
    1453:	89 d3                	mov    %edx,%ebx
    1455:	e9 16 ff ff ff       	jmp    1370 <_vsnprintf+0x60>
    145a:	8d b6 00 00 00 00    	lea    0x0(%esi),%esi
    1460:	8d 48 97             	lea    -0x69(%eax),%ecx
    1463:	80 f9 0f             	cmp    $0xf,%cl
    1466:	0f 87 d4 fe ff ff    	ja     1340 <_vsnprintf+0x30>
    146c:	ba 01 00 00 00       	mov    $0x1,%edx
    1471:	d3 e2                	shl    %cl,%edx
    1473:	81 e2 41 90 00 00    	and    $0x9041,%edx
    1479:	89 55 c8             	mov    %edx,-0x38(%ebp)
    147c:	0f 85 9e 03 00 00    	jne    1820 <_vsnprintf+0x510>
    1482:	80 f9 0a             	cmp    $0xa,%cl
    1485:	0f 84 a5 02 00 00    	je     1730 <_vsnprintf+0x420>
    148b:	80 f9 07             	cmp    $0x7,%cl
    148e:	0f 85 ac fe ff ff    	jne    1340 <_vsnprintf+0x30>
    1494:	83 ec 04             	sub    $0x4,%esp
    1497:	83 ce 21             	or     $0x21,%esi
    149a:	8b 45 0c             	mov    0xc(%ebp),%eax
    149d:	8b 55 e0             	mov    -0x20(%ebp),%edx
    14a0:	56                   	push   %esi
    14a1:	8b 75 0c             	mov    0xc(%ebp),%esi
    14a4:	89 f9                	mov    %edi,%ecx
    14a6:	6a 08                	push   $0x8
    14a8:	83 c0 04             	add    $0x4,%eax
    14ab:	ff 75 d8             	push   -0x28(%ebp)
    14ae:	6a 10                	push   $0x10
    14b0:	6a 00                	push   $0x0
    14b2:	ff 36                	push   (%esi)
    14b4:	ff 75 dc             	push   -0x24(%ebp)
    14b7:	89 45 d4             	mov    %eax,-0x2c(%ebp)
    14ba:	8b 45 e4             	mov    -0x1c(%ebp),%eax
    14bd:	e8 ae f3 ff ff       	call   870 <_ntoa_long>
    14c2:	83 c4 20             	add    $0x20,%esp
    14c5:	89 c7                	mov    %eax,%edi
    14c7:	8b 45 d4             	mov    -0x2c(%ebp),%eax
    14ca:	89 45 0c             	mov    %eax,0xc(%ebp)
    14cd:	0f be 03             	movsbl (%ebx),%eax
    14d0:	84 c0                	test   %al,%al
    14d2:	0f 85 88 fe ff ff    	jne    1360 <_vsnprintf+0x50>
    14d8:	8d b4 26 00 00 00 00 	lea    0x0(%esi,%eiz,1),%esi
    14df:	90                   	nop
    14e0:	89 f9                	mov    %edi,%ecx
    14e2:	89 fb                	mov    %edi,%ebx
    14e4:	8b 7d dc             	mov    -0x24(%ebp),%edi
    14e7:	39 f9                	cmp    %edi,%ecx
    14e9:	8d 47 ff             	lea    -0x1(%edi),%eax
    14ec:	57                   	push   %edi
    14ed:	0f 42 c1             	cmovb  %ecx,%eax
    14f0:	50                   	push   %eax
    14f1:	8b 45 e4             	mov    -0x1c(%ebp),%eax
    14f4:	ff 75 e0             	push   -0x20(%ebp)
    14f7:	6a 00                	push   $0x0
    14f9:	ff d0                	call   *%eax
    14fb:	8d 65 f4             	lea    -0xc(%ebp),%esp
    14fe:	89 d8                	mov    %ebx,%eax
    1500:	5b                   	pop    %ebx
    1501:	5e                   	pop    %esi
    1502:	5f                   	pop    %edi
    1503:	5d                   	pop    %ebp
    1504:	c3                   	ret    
    1505:	8d b4 26 00 00 00 00 	lea    0x0(%esi,%eiz,1),%esi
    150c:	8d 74 26 00          	lea    0x0(%esi,%eiz,1),%esi
    1510:	0f be 43 01          	movsbl 0x1(%ebx),%eax
    1514:	89 55 d0             	mov    %edx,-0x30(%ebp)
    1517:	81 ce 00 04 00 00    	or     $0x400,%esi
    151d:	8d 48 d0             	lea    -0x30(%eax),%ecx
    1520:	80 f9 09             	cmp    $0x9,%cl
    1523:	0f 86 c7 03 00 00    	jbe    18f0 <_vsnprintf+0x5e0>
    1529:	3c 2a                	cmp    $0x2a,%al
    152b:	0f 84 ff 03 00 00    	je     1930 <_vsnprintf+0x620>
    1531:	89 d3                	mov    %edx,%ebx
    1533:	83 c2 01             	add    $0x1,%edx
    1536:	e9 7f fe ff ff       	jmp    13ba <_vsnprintf+0xaa>
    153b:	8d 74 26 00          	lea    0x0(%esi,%eiz,1),%esi
    153f:	90                   	nop
    1540:	89 7d d8             	mov    %edi,-0x28(%ebp)
    1543:	31 c9                	xor    %ecx,%ecx
    1545:	eb 0c                	jmp    1553 <_vsnprintf+0x243>
    1547:	8d b4 26 00 00 00 00 	lea    0x0(%esi,%eiz,1),%esi
    154e:	66 90                	xchg   %ax,%ax
    1550:	83 c2 01             	add    $0x1,%edx
    1553:	8d 0c 89             	lea    (%ecx,%ecx,4),%ecx
    1556:	8d 4c 48 d0          	lea    -0x30(%eax,%ecx,2),%ecx
    155a:	0f be 02             	movsbl (%edx),%eax
    155d:	8d 58 d0             	lea    -0x30(%eax),%ebx
    1560:	80 fb 09             	cmp    $0x9,%bl
    1563:	76 eb                	jbe    1550 <_vsnprintf+0x240>
    1565:	89 d3                	mov    %edx,%ebx
    1567:	89 4d d4             	mov    %ecx,-0x2c(%ebp)
    156a:	8b 7d d8             	mov    -0x28(%ebp),%edi
    156d:	83 c2 01             	add    $0x1,%edx
    1570:	e9 36 fe ff ff       	jmp    13ab <_vsnprintf+0x9b>
    1575:	8d b4 26 00 00 00 00 	lea    0x0(%esi,%eiz,1),%esi
    157c:	8d 74 26 00          	lea    0x0(%esi,%eiz,1),%esi
    1580:	8b 45 0c             	mov    0xc(%ebp),%eax
    1583:	8d 48 04             	lea    0x4(%eax),%ecx
    1586:	8b 00                	mov    (%eax),%eax
    1588:	89 45 d4             	mov    %eax,-0x2c(%ebp)
    158b:	85 c0                	test   %eax,%eax
    158d:	78 11                	js     15a0 <_vsnprintf+0x290>
    158f:	0f be 43 01          	movsbl 0x1(%ebx),%eax
    1593:	89 4d 0c             	mov    %ecx,0xc(%ebp)
    1596:	89 d3                	mov    %edx,%ebx
    1598:	83 c2 01             	add    $0x1,%edx
    159b:	e9 0b fe ff ff       	jmp    13ab <_vsnprintf+0x9b>
    15a0:	f7 d8                	neg    %eax
    15a2:	89 4d 0c             	mov    %ecx,0xc(%ebp)
    15a5:	83 ce 02             	or     $0x2,%esi
    15a8:	89 45 d4             	mov    %eax,-0x2c(%ebp)
    15ab:	0f be 43 01          	movsbl 0x1(%ebx),%eax
    15af:	89 d3                	mov    %edx,%ebx
    15b1:	83 c2 01             	add    $0x1,%edx
    15b4:	e9 f2 fd ff ff       	jmp    13ab <_vsnprintf+0x9b>
    15b9:	89 c1                	mov    %eax,%ecx
    15bb:	89 f2                	mov    %esi,%edx
    15bd:	83 e1 df             	and    $0xffffffdf,%ecx
    15c0:	80 ce 08             	or     $0x8,%dh
    15c3:	80 f9 47             	cmp    $0x47,%cl
    15c6:	89 f9                	mov    %edi,%ecx
    15c8:	0f 44 f2             	cmove  %edx,%esi
    15cb:	83 e0 fd             	and    $0xfffffffd,%eax
    15ce:	89 f2                	mov    %esi,%edx
    15d0:	83 ca 20             	or     $0x20,%edx
    15d3:	3c 45                	cmp    $0x45,%al
    15d5:	8b 45 0c             	mov    0xc(%ebp),%eax
    15d8:	0f 44 f2             	cmove  %edx,%esi
    15db:	83 ec 08             	sub    $0x8,%esp
    15de:	8b 55 e0             	mov    -0x20(%ebp),%edx
    15e1:	83 c0 08             	add    $0x8,%eax
    15e4:	56                   	push   %esi
    15e5:	8b 75 0c             	mov    0xc(%ebp),%esi
    15e8:	ff 75 d4             	push   -0x2c(%ebp)
    15eb:	ff 75 d8             	push   -0x28(%ebp)
    15ee:	ff 76 04             	push   0x4(%esi)
    15f1:	ff 36                	push   (%esi)
    15f3:	ff 75 dc             	push   -0x24(%ebp)
    15f6:	89 45 d0             	mov    %eax,-0x30(%ebp)
    15f9:	8b 45 e4             	mov    -0x1c(%ebp),%eax
    15fc:	e8 2f f4 ff ff       	call   a30 <_etoa>
    1601:	83 c4 20             	add    $0x20,%esp
    1604:	89 c7                	mov    %eax,%edi
    1606:	8b 45 d0             	mov    -0x30(%ebp),%eax
    1609:	89 45 0c             	mov    %eax,0xc(%ebp)
    160c:	e9 44 fd ff ff       	jmp    1355 <_vsnprintf+0x45>
    1611:	0f be 43 01          	movsbl 0x1(%ebx),%eax
    1615:	3c 6c                	cmp    $0x6c,%al
    1617:	0f 84 f3 03 00 00    	je     1a10 <_vsnprintf+0x700>
    161d:	81 ce 00 01 00 00    	or     $0x100,%esi
    1623:	83 c2 01             	add    $0x1,%edx
    1626:	e9 b2 fd ff ff       	jmp    13dd <_vsnprintf+0xcd>
    162b:	0f be 43 01          	movsbl 0x1(%ebx),%eax
    162f:	81 ce 00 02 00 00    	or     $0x200,%esi
    1635:	83 c2 01             	add    $0x1,%edx
    1638:	e9 a0 fd ff ff       	jmp    13dd <_vsnprintf+0xcd>
    163d:	0f be 43 01          	movsbl 0x1(%ebx),%eax
    1641:	3c 68                	cmp    $0x68,%al
    1643:	0f 84 b5 03 00 00    	je     19fe <_vsnprintf+0x6ee>
    1649:	81 ce 80 00 00 00    	or     $0x80,%esi
    164f:	83 c2 01             	add    $0x1,%edx
    1652:	e9 86 fd ff ff       	jmp    13dd <_vsnprintf+0xcd>
    1657:	89 f2                	mov    %esi,%edx
    1659:	89 f9                	mov    %edi,%ecx
    165b:	83 ca 20             	or     $0x20,%edx
    165e:	3c 46                	cmp    $0x46,%al
    1660:	8b 45 0c             	mov    0xc(%ebp),%eax
    1663:	0f 44 f2             	cmove  %edx,%esi
    1666:	83 ec 08             	sub    $0x8,%esp
    1669:	8b 55 e0             	mov    -0x20(%ebp),%edx
    166c:	83 c0 08             	add    $0x8,%eax
    166f:	56                   	push   %esi
    1670:	8b 75 0c             	mov    0xc(%ebp),%esi
    1673:	ff 75 d4             	push   -0x2c(%ebp)
    1676:	ff 75 d8             	push   -0x28(%ebp)
    1679:	ff 76 04             	push   0x4(%esi)
    167c:	ff 36                	push   (%esi)
    167e:	ff 75 dc             	push   -0x24(%ebp)
    1681:	89 45 d0             	mov    %eax,-0x30(%ebp)
    1684:	8b 45 e4             	mov    -0x1c(%ebp),%eax
    1687:	e8 64 f7 ff ff       	call   df0 <_ftoa>
    168c:	83 c4 20             	add    $0x20,%esp
    168f:	89 c7                	mov    %eax,%edi
    1691:	8b 45 d0             	mov    -0x30(%ebp),%eax
    1694:	89 45 0c             	mov    %eax,0xc(%ebp)
    1697:	e9 b9 fc ff ff       	jmp    1355 <_vsnprintf+0x45>
    169c:	8b 45 0c             	mov    0xc(%ebp),%eax
    169f:	83 c0 04             	add    $0x4,%eax
    16a2:	83 e6 02             	and    $0x2,%esi
    16a5:	89 45 d8             	mov    %eax,-0x28(%ebp)
    16a8:	0f 84 95 03 00 00    	je     1a43 <_vsnprintf+0x733>
    16ae:	8b 45 0c             	mov    0xc(%ebp),%eax
    16b1:	ff 75 dc             	push   -0x24(%ebp)
    16b4:	8d 77 01             	lea    0x1(%edi),%esi
    16b7:	57                   	push   %edi
    16b8:	0f be 00             	movsbl (%eax),%eax
    16bb:	ff 75 e0             	push   -0x20(%ebp)
    16be:	50                   	push   %eax
    16bf:	8b 45 e4             	mov    -0x1c(%ebp),%eax
    16c2:	ff d0                	call   *%eax
    16c4:	8b 45 d4             	mov    -0x2c(%ebp),%eax
    16c7:	83 c4 10             	add    $0x10,%esp
    16ca:	01 c7                	add    %eax,%edi
    16cc:	83 f8 01             	cmp    $0x1,%eax
    16cf:	0f 86 8a 04 00 00    	jbe    1b5f <_vsnprintf+0x84f>
    16d5:	89 5d 08             	mov    %ebx,0x8(%ebp)
    16d8:	89 fb                	mov    %edi,%ebx
    16da:	8b 7d e0             	mov    -0x20(%ebp),%edi
    16dd:	8d 76 00             	lea    0x0(%esi),%esi
    16e0:	89 f2                	mov    %esi,%edx
    16e2:	ff 75 dc             	push   -0x24(%ebp)
    16e5:	83 c6 01             	add    $0x1,%esi
    16e8:	8b 45 e4             	mov    -0x1c(%ebp),%eax
    16eb:	52                   	push   %edx
    16ec:	57                   	push   %edi
    16ed:	6a 20                	push   $0x20
    16ef:	ff d0                	call   *%eax
    16f1:	83 c4 10             	add    $0x10,%esp
    16f4:	39 de                	cmp    %ebx,%esi
    16f6:	75 e8                	jne    16e0 <_vsnprintf+0x3d0>
    16f8:	89 df                	mov    %ebx,%edi
    16fa:	8b 5d 08             	mov    0x8(%ebp),%ebx
    16fd:	8b 45 d8             	mov    -0x28(%ebp),%eax
    1700:	89 45 0c             	mov    %eax,0xc(%ebp)
    1703:	e9 4d fc ff ff       	jmp    1355 <_vsnprintf+0x45>
    1708:	ff 75 dc             	push   -0x24(%ebp)
    170b:	8d 77 01             	lea    0x1(%edi),%esi
    170e:	8b 45 e4             	mov    -0x1c(%ebp),%eax
    1711:	57                   	push   %edi
    1712:	89 f7                	mov    %esi,%edi
    1714:	ff 75 e0             	push   -0x20(%ebp)
    1717:	6a 25                	push   $0x25
    1719:	ff d0                	call   *%eax
    171b:	83 c4 10             	add    $0x10,%esp
    171e:	e9 32 fc ff ff       	jmp    1355 <_vsnprintf+0x45>
    1723:	8d b4 26 00 00 00 00 	lea    0x0(%esi,%eiz,1),%esi
    172a:	8d b6 00 00 00 00    	lea    0x0(%esi),%esi
    1730:	8b 45 0c             	mov    0xc(%ebp),%eax
    1733:	8b 4d d8             	mov    -0x28(%ebp),%ecx
    1736:	83 c0 04             	add    $0x4,%eax
    1739:	89 45 c0             	mov    %eax,-0x40(%ebp)
    173c:	8b 45 0c             	mov    0xc(%ebp),%eax
    173f:	8b 00                	mov    (%eax),%eax
    1741:	89 45 cc             	mov    %eax,-0x34(%ebp)
    1744:	0f b6 00             	movzbl (%eax),%eax
    1747:	88 45 c6             	mov    %al,-0x3a(%ebp)
    174a:	88 45 c7             	mov    %al,-0x39(%ebp)
    174d:	85 c9                	test   %ecx,%ecx
    174f:	0f 85 0b 02 00 00    	jne    1960 <_vsnprintf+0x650>
    1755:	ba fe ff ff ff       	mov    $0xfffffffe,%edx
    175a:	84 c0                	test   %al,%al
    175c:	74 2b                	je     1789 <_vsnprintf+0x479>
    175e:	8b 45 cc             	mov    -0x34(%ebp),%eax
    1761:	8d 4c 10 01          	lea    0x1(%eax,%edx,1),%ecx
    1765:	89 c2                	mov    %eax,%edx
    1767:	0f b6 45 c7          	movzbl -0x39(%ebp),%eax
    176b:	eb 0b                	jmp    1778 <_vsnprintf+0x468>
    176d:	8d 76 00             	lea    0x0(%esi),%esi
    1770:	39 d1                	cmp    %edx,%ecx
    1772:	0f 84 aa 02 00 00    	je     1a22 <_vsnprintf+0x712>
    1778:	83 c2 01             	add    $0x1,%edx
    177b:	80 3a 00             	cmpb   $0x0,(%edx)
    177e:	75 f0                	jne    1770 <_vsnprintf+0x460>
    1780:	2b 55 cc             	sub    -0x34(%ebp),%edx
    1783:	88 45 c7             	mov    %al,-0x39(%ebp)
    1786:	89 55 c8             	mov    %edx,-0x38(%ebp)
    1789:	8b 4d c8             	mov    -0x38(%ebp),%ecx
    178c:	8b 55 d8             	mov    -0x28(%ebp),%edx
    178f:	89 f0                	mov    %esi,%eax
    1791:	39 d1                	cmp    %edx,%ecx
    1793:	0f 46 d1             	cmovbe %ecx,%edx
    1796:	25 00 04 00 00       	and    $0x400,%eax
    179b:	89 45 d0             	mov    %eax,-0x30(%ebp)
    179e:	0f 44 d1             	cmove  %ecx,%edx
    17a1:	83 e6 02             	and    $0x2,%esi
    17a4:	89 75 bc             	mov    %esi,-0x44(%ebp)
    17a7:	89 55 c8             	mov    %edx,-0x38(%ebp)
    17aa:	0f 84 30 03 00 00    	je     1ae0 <_vsnprintf+0x7d0>
    17b0:	80 7d c6 00          	cmpb   $0x0,-0x3a(%ebp)
    17b4:	0f 84 e1 02 00 00    	je     1a9b <_vsnprintf+0x78b>
    17ba:	8b 45 cc             	mov    -0x34(%ebp),%eax
    17bd:	89 5d 08             	mov    %ebx,0x8(%ebp)
    17c0:	8b 5d d8             	mov    -0x28(%ebp),%ebx
    17c3:	29 f8                	sub    %edi,%eax
    17c5:	89 45 cc             	mov    %eax,-0x34(%ebp)
    17c8:	0f be 45 c7          	movsbl -0x39(%ebp),%eax
    17cc:	eb 04                	jmp    17d2 <_vsnprintf+0x4c2>
    17ce:	66 90                	xchg   %ax,%ax
    17d0:	89 f7                	mov    %esi,%edi
    17d2:	8b 55 d0             	mov    -0x30(%ebp),%edx
    17d5:	85 d2                	test   %edx,%edx
    17d7:	74 0d                	je     17e6 <_vsnprintf+0x4d6>
    17d9:	8d 4b ff             	lea    -0x1(%ebx),%ecx
    17dc:	85 db                	test   %ebx,%ebx
    17de:	0f 84 55 02 00 00    	je     1a39 <_vsnprintf+0x729>
    17e4:	89 cb                	mov    %ecx,%ebx
    17e6:	ff 75 dc             	push   -0x24(%ebp)
    17e9:	8d 77 01             	lea    0x1(%edi),%esi
    17ec:	57                   	push   %edi
    17ed:	ff 75 e0             	push   -0x20(%ebp)
    17f0:	50                   	push   %eax
    17f1:	8b 45 e4             	mov    -0x1c(%ebp),%eax
    17f4:	ff d0                	call   *%eax
    17f6:	8b 45 cc             	mov    -0x34(%ebp),%eax
    17f9:	83 c4 10             	add    $0x10,%esp
    17fc:	0f be 44 07 01       	movsbl 0x1(%edi,%eax,1),%eax
    1801:	84 c0                	test   %al,%al
    1803:	75 cb                	jne    17d0 <_vsnprintf+0x4c0>
    1805:	8b 5d 08             	mov    0x8(%ebp),%ebx
    1808:	8b 45 bc             	mov    -0x44(%ebp),%eax
    180b:	85 c0                	test   %eax,%eax
    180d:	0f 85 86 02 00 00    	jne    1a99 <_vsnprintf+0x789>
    1813:	8b 45 c0             	mov    -0x40(%ebp),%eax
    1816:	89 f7                	mov    %esi,%edi
    1818:	89 45 0c             	mov    %eax,0xc(%ebp)
    181b:	e9 35 fb ff ff       	jmp    1355 <_vsnprintf+0x45>
    1820:	89 c2                	mov    %eax,%edx
    1822:	83 e2 df             	and    $0xffffffdf,%edx
    1825:	80 fa 58             	cmp    $0x58,%dl
    1828:	0f 84 ca 03 00 00    	je     1bf8 <_vsnprintf+0x8e8>
    182e:	3c 6f                	cmp    $0x6f,%al
    1830:	0f 84 0f 03 00 00    	je     1b45 <_vsnprintf+0x835>
    1836:	3c 62                	cmp    $0x62,%al
    1838:	0f 84 c4 03 00 00    	je     1c02 <_vsnprintf+0x8f2>
    183e:	83 e6 ef             	and    $0xffffffef,%esi
    1841:	b9 0a 00 00 00       	mov    $0xa,%ecx
    1846:	3c 69                	cmp    $0x69,%al
    1848:	74 08                	je     1852 <_vsnprintf+0x542>
    184a:	3c 64                	cmp    $0x64,%al
    184c:	0f 85 a4 01 00 00    	jne    19f6 <_vsnprintf+0x6e6>
    1852:	89 f2                	mov    %esi,%edx
    1854:	83 e2 fe             	and    $0xfffffffe,%edx
    1857:	f7 c6 00 04 00 00    	test   $0x400,%esi
    185d:	0f 45 f2             	cmovne %edx,%esi
    1860:	89 f2                	mov    %esi,%edx
    1862:	81 e2 00 02 00 00    	and    $0x200,%edx
    1868:	3c 69                	cmp    $0x69,%al
    186a:	0f 84 10 01 00 00    	je     1980 <_vsnprintf+0x670>
    1870:	3c 64                	cmp    $0x64,%al
    1872:	0f 84 08 01 00 00    	je     1980 <_vsnprintf+0x670>
    1878:	8b 45 0c             	mov    0xc(%ebp),%eax
    187b:	85 d2                	test   %edx,%edx
    187d:	0f 85 55 03 00 00    	jne    1bd8 <_vsnprintf+0x8c8>
    1883:	83 c0 04             	add    $0x4,%eax
    1886:	89 45 d0             	mov    %eax,-0x30(%ebp)
    1889:	f7 c6 00 01 00 00    	test   $0x100,%esi
    188f:	0f 85 77 03 00 00    	jne    1c0c <_vsnprintf+0x8fc>
    1895:	8b 45 0c             	mov    0xc(%ebp),%eax
    1898:	f7 c6 40 00 00 00    	test   $0x40,%esi
    189e:	0f 85 b3 02 00 00    	jne    1b57 <_vsnprintf+0x847>
    18a4:	f7 c6 80 00 00 00    	test   $0x80,%esi
    18aa:	0f 84 73 03 00 00    	je     1c23 <_vsnprintf+0x913>
    18b0:	0f b7 00             	movzwl (%eax),%eax
    18b3:	83 ec 04             	sub    $0x4,%esp
    18b6:	56                   	push   %esi
    18b7:	ff 75 d4             	push   -0x2c(%ebp)
    18ba:	ff 75 d8             	push   -0x28(%ebp)
    18bd:	51                   	push   %ecx
    18be:	6a 00                	push   $0x0
    18c0:	50                   	push   %eax
    18c1:	8b 55 e0             	mov    -0x20(%ebp),%edx
    18c4:	8b 45 e4             	mov    -0x1c(%ebp),%eax
    18c7:	ff 75 dc             	push   -0x24(%ebp)
    18ca:	89 f9                	mov    %edi,%ecx
    18cc:	e8 9f ef ff ff       	call   870 <_ntoa_long>
    18d1:	83 c4 20             	add    $0x20,%esp
    18d4:	89 c7                	mov    %eax,%edi
    18d6:	8b 45 d0             	mov    -0x30(%ebp),%eax
    18d9:	89 45 0c             	mov    %eax,0xc(%ebp)
    18dc:	e9 74 fa ff ff       	jmp    1355 <_vsnprintf+0x45>
    18e1:	8d b4 26 00 00 00 00 	lea    0x0(%esi,%eiz,1),%esi
    18e8:	8d b4 26 00 00 00 00 	lea    0x0(%esi,%eiz,1),%esi
    18ef:	90                   	nop
    18f0:	89 d1                	mov    %edx,%ecx
    18f2:	31 d2                	xor    %edx,%edx
    18f4:	8d b4 26 00 00 00 00 	lea    0x0(%esi,%eiz,1),%esi
    18fb:	8d 74 26 00          	lea    0x0(%esi,%eiz,1),%esi
    18ff:	90                   	nop
    1900:	83 c1 01             	add    $0x1,%ecx
    1903:	8d 14 92             	lea    (%edx,%edx,4),%edx
    1906:	8d 54 50 d0          	lea    -0x30(%eax,%edx,2),%edx
    190a:	0f be 01             	movsbl (%ecx),%eax
    190d:	8d 58 d0             	lea    -0x30(%eax),%ebx
    1910:	80 fb 09             	cmp    $0x9,%bl
    1913:	76 eb                	jbe    1900 <_vsnprintf+0x5f0>
    1915:	89 55 d8             	mov    %edx,-0x28(%ebp)
    1918:	89 cb                	mov    %ecx,%ebx
    191a:	8d 51 01             	lea    0x1(%ecx),%edx
    191d:	e9 98 fa ff ff       	jmp    13ba <_vsnprintf+0xaa>
    1922:	8d b4 26 00 00 00 00 	lea    0x0(%esi,%eiz,1),%esi
    1929:	8d b4 26 00 00 00 00 	lea    0x0(%esi,%eiz,1),%esi
    1930:	8b 45 0c             	mov    0xc(%ebp),%eax
    1933:	31 d2                	xor    %edx,%edx
    1935:	8b 4d 0c             	mov    0xc(%ebp),%ecx
    1938:	8b 00                	mov    (%eax),%eax
    193a:	85 c0                	test   %eax,%eax
    193c:	0f 49 d0             	cmovns %eax,%edx
    193f:	0f be 43 02          	movsbl 0x2(%ebx),%eax
    1943:	83 c3 02             	add    $0x2,%ebx
    1946:	89 55 d8             	mov    %edx,-0x28(%ebp)
    1949:	8d 51 04             	lea    0x4(%ecx),%edx
    194c:	89 55 0c             	mov    %edx,0xc(%ebp)
    194f:	8d 53 01             	lea    0x1(%ebx),%edx
    1952:	e9 63 fa ff ff       	jmp    13ba <_vsnprintf+0xaa>
    1957:	8d b4 26 00 00 00 00 	lea    0x0(%esi,%eiz,1),%esi
    195e:	66 90                	xchg   %ax,%ax
    1960:	80 7d c6 00          	cmpb   $0x0,-0x3a(%ebp)
    1964:	0f 84 1f fe ff ff    	je     1789 <_vsnprintf+0x479>
    196a:	8b 45 d8             	mov    -0x28(%ebp),%eax
    196d:	8d 50 ff             	lea    -0x1(%eax),%edx
    1970:	e9 e9 fd ff ff       	jmp    175e <_vsnprintf+0x44e>
    1975:	8d b4 26 00 00 00 00 	lea    0x0(%esi,%eiz,1),%esi
    197c:	8d 74 26 00          	lea    0x0(%esi,%eiz,1),%esi
    1980:	8b 45 0c             	mov    0xc(%ebp),%eax
    1983:	85 d2                	test   %edx,%edx
    1985:	0f 85 e2 01 00 00    	jne    1b6d <_vsnprintf+0x85d>
    198b:	83 c0 04             	add    $0x4,%eax
    198e:	89 45 d0             	mov    %eax,-0x30(%ebp)
    1991:	8b 45 0c             	mov    0xc(%ebp),%eax
    1994:	f7 c6 00 01 00 00    	test   $0x100,%esi
    199a:	0f 85 c6 01 00 00    	jne    1b66 <_vsnprintf+0x856>
    19a0:	f7 c6 40 00 00 00    	test   $0x40,%esi
    19a6:	0f 85 a3 01 00 00    	jne    1b4f <_vsnprintf+0x83f>
    19ac:	f7 c6 80 00 00 00    	test   $0x80,%esi
    19b2:	0f 84 ae 01 00 00    	je     1b66 <_vsnprintf+0x856>
    19b8:	0f bf 00             	movswl (%eax),%eax
    19bb:	89 c2                	mov    %eax,%edx
    19bd:	83 ec 04             	sub    $0x4,%esp
    19c0:	c1 ea 1f             	shr    $0x1f,%edx
    19c3:	56                   	push   %esi
    19c4:	ff 75 d4             	push   -0x2c(%ebp)
    19c7:	ff 75 d8             	push   -0x28(%ebp)
    19ca:	51                   	push   %ecx
    19cb:	52                   	push   %edx
    19cc:	89 c2                	mov    %eax,%edx
    19ce:	f7 da                	neg    %edx
    19d0:	0f 49 c2             	cmovns %edx,%eax
    19d3:	e9 e8 fe ff ff       	jmp    18c0 <_vsnprintf+0x5b0>
    19d8:	89 c2                	mov    %eax,%edx
    19da:	83 e2 df             	and    $0xffffffdf,%edx
    19dd:	80 fa 58             	cmp    $0x58,%dl
    19e0:	0f 85 50 fe ff ff    	jne    1836 <_vsnprintf+0x526>
    19e6:	3c 58                	cmp    $0x58,%al
    19e8:	0f 85 0a 02 00 00    	jne    1bf8 <_vsnprintf+0x8e8>
    19ee:	83 ce 20             	or     $0x20,%esi
    19f1:	b9 10 00 00 00       	mov    $0x10,%ecx
    19f6:	83 e6 f3             	and    $0xfffffff3,%esi
    19f9:	e9 54 fe ff ff       	jmp    1852 <_vsnprintf+0x542>
    19fe:	0f be 43 02          	movsbl 0x2(%ebx),%eax
    1a02:	81 ce c0 00 00 00    	or     $0xc0,%esi
    1a08:	8d 53 03             	lea    0x3(%ebx),%edx
    1a0b:	e9 cd f9 ff ff       	jmp    13dd <_vsnprintf+0xcd>
    1a10:	0f be 43 02          	movsbl 0x2(%ebx),%eax
    1a14:	81 ce 00 03 00 00    	or     $0x300,%esi
    1a1a:	8d 53 03             	lea    0x3(%ebx),%edx
    1a1d:	e9 bb f9 ff ff       	jmp    13dd <_vsnprintf+0xcd>
    1a22:	2b 4d cc             	sub    -0x34(%ebp),%ecx
    1a25:	88 45 c7             	mov    %al,-0x39(%ebp)
    1a28:	89 4d c8             	mov    %ecx,-0x38(%ebp)
    1a2b:	e9 59 fd ff ff       	jmp    1789 <_vsnprintf+0x479>
    1a30:	89 f9                	mov    %edi,%ecx
    1a32:	31 db                	xor    %ebx,%ebx
    1a34:	e9 ab fa ff ff       	jmp    14e4 <_vsnprintf+0x1d4>
    1a39:	8b 5d 08             	mov    0x8(%ebp),%ebx
    1a3c:	89 fe                	mov    %edi,%esi
    1a3e:	e9 c5 fd ff ff       	jmp    1808 <_vsnprintf+0x4f8>
    1a43:	8b 45 d4             	mov    -0x2c(%ebp),%eax
    1a46:	83 f8 01             	cmp    $0x1,%eax
    1a49:	0f 86 e3 01 00 00    	jbe    1c32 <_vsnprintf+0x922>
    1a4f:	89 5d 08             	mov    %ebx,0x8(%ebp)
    1a52:	8d 74 07 ff          	lea    -0x1(%edi,%eax,1),%esi
    1a56:	89 fb                	mov    %edi,%ebx
    1a58:	8b 7d dc             	mov    -0x24(%ebp),%edi
    1a5b:	8d 74 26 00          	lea    0x0(%esi,%eiz,1),%esi
    1a5f:	90                   	nop
    1a60:	89 da                	mov    %ebx,%edx
    1a62:	57                   	push   %edi
    1a63:	83 c3 01             	add    $0x1,%ebx
    1a66:	8b 45 e4             	mov    -0x1c(%ebp),%eax
    1a69:	52                   	push   %edx
    1a6a:	ff 75 e0             	push   -0x20(%ebp)
    1a6d:	6a 20                	push   $0x20
    1a6f:	ff d0                	call   *%eax
    1a71:	83 c4 10             	add    $0x10,%esp
    1a74:	39 f3                	cmp    %esi,%ebx
    1a76:	75 e8                	jne    1a60 <_vsnprintf+0x750>
    1a78:	8b 5d 08             	mov    0x8(%ebp),%ebx
    1a7b:	8b 45 0c             	mov    0xc(%ebp),%eax
    1a7e:	ff 75 dc             	push   -0x24(%ebp)
    1a81:	8d 7e 01             	lea    0x1(%esi),%edi
    1a84:	56                   	push   %esi
    1a85:	0f be 00             	movsbl (%eax),%eax
    1a88:	ff 75 e0             	push   -0x20(%ebp)
    1a8b:	50                   	push   %eax
    1a8c:	8b 45 e4             	mov    -0x1c(%ebp),%eax
    1a8f:	ff d0                	call   *%eax
    1a91:	83 c4 10             	add    $0x10,%esp
    1a94:	e9 64 fc ff ff       	jmp    16fd <_vsnprintf+0x3ed>
    1a99:	89 f7                	mov    %esi,%edi
    1a9b:	8b 45 d4             	mov    -0x2c(%ebp),%eax
    1a9e:	8b 55 c8             	mov    -0x38(%ebp),%edx
    1aa1:	39 d0                	cmp    %edx,%eax
    1aa3:	0f 86 95 00 00 00    	jbe    1b3e <_vsnprintf+0x82e>
    1aa9:	01 f8                	add    %edi,%eax
    1aab:	89 5d 08             	mov    %ebx,0x8(%ebp)
    1aae:	89 fb                	mov    %edi,%ebx
    1ab0:	8b 7d dc             	mov    -0x24(%ebp),%edi
    1ab3:	89 c6                	mov    %eax,%esi
    1ab5:	29 d6                	sub    %edx,%esi
    1ab7:	8d b4 26 00 00 00 00 	lea    0x0(%esi,%eiz,1),%esi
    1abe:	66 90                	xchg   %ax,%ax
    1ac0:	89 da                	mov    %ebx,%edx
    1ac2:	57                   	push   %edi
    1ac3:	83 c3 01             	add    $0x1,%ebx
    1ac6:	8b 45 e4             	mov    -0x1c(%ebp),%eax
    1ac9:	52                   	push   %edx
    1aca:	ff 75 e0             	push   -0x20(%ebp)
    1acd:	6a 20                	push   $0x20
    1acf:	ff d0                	call   *%eax
    1ad1:	83 c4 10             	add    $0x10,%esp
    1ad4:	39 f3                	cmp    %esi,%ebx
    1ad6:	75 e8                	jne    1ac0 <_vsnprintf+0x7b0>
    1ad8:	8b 5d 08             	mov    0x8(%ebp),%ebx
    1adb:	e9 33 fd ff ff       	jmp    1813 <_vsnprintf+0x503>
    1ae0:	8b 75 d4             	mov    -0x2c(%ebp),%esi
    1ae3:	8d 42 01             	lea    0x1(%edx),%eax
    1ae6:	39 d6                	cmp    %edx,%esi
    1ae8:	0f 86 3c 01 00 00    	jbe    1c2a <_vsnprintf+0x91a>
    1aee:	8d 04 3e             	lea    (%esi,%edi,1),%eax
    1af1:	89 5d 08             	mov    %ebx,0x8(%ebp)
    1af4:	89 fb                	mov    %edi,%ebx
    1af6:	8b 7d dc             	mov    -0x24(%ebp),%edi
    1af9:	29 d0                	sub    %edx,%eax
    1afb:	89 c6                	mov    %eax,%esi
    1afd:	8d 76 00             	lea    0x0(%esi),%esi
    1b00:	89 da                	mov    %ebx,%edx
    1b02:	57                   	push   %edi
    1b03:	83 c3 01             	add    $0x1,%ebx
    1b06:	8b 45 e4             	mov    -0x1c(%ebp),%eax
    1b09:	52                   	push   %edx
    1b0a:	ff 75 e0             	push   -0x20(%ebp)
    1b0d:	6a 20                	push   $0x20
    1b0f:	ff d0                	call   *%eax
    1b11:	83 c4 10             	add    $0x10,%esp
    1b14:	39 f3                	cmp    %esi,%ebx
    1b16:	75 e8                	jne    1b00 <_vsnprintf+0x7f0>
    1b18:	8b 45 d4             	mov    -0x2c(%ebp),%eax
    1b1b:	89 df                	mov    %ebx,%edi
    1b1d:	8b 5d 08             	mov    0x8(%ebp),%ebx
    1b20:	83 c0 01             	add    $0x1,%eax
    1b23:	89 45 c8             	mov    %eax,-0x38(%ebp)
    1b26:	8b 45 cc             	mov    -0x34(%ebp),%eax
    1b29:	0f b6 00             	movzbl (%eax),%eax
    1b2c:	88 45 c6             	mov    %al,-0x3a(%ebp)
    1b2f:	0f b6 45 c6          	movzbl -0x3a(%ebp),%eax
    1b33:	88 45 c7             	mov    %al,-0x39(%ebp)
    1b36:	84 c0                	test   %al,%al
    1b38:	0f 85 7c fc ff ff    	jne    17ba <_vsnprintf+0x4aa>
    1b3e:	89 fe                	mov    %edi,%esi
    1b40:	e9 ce fc ff ff       	jmp    1813 <_vsnprintf+0x503>
    1b45:	b9 08 00 00 00       	mov    $0x8,%ecx
    1b4a:	e9 a7 fe ff ff       	jmp    19f6 <_vsnprintf+0x6e6>
    1b4f:	0f be 00             	movsbl (%eax),%eax
    1b52:	e9 64 fe ff ff       	jmp    19bb <_vsnprintf+0x6ab>
    1b57:	0f b6 00             	movzbl (%eax),%eax
    1b5a:	e9 54 fd ff ff       	jmp    18b3 <_vsnprintf+0x5a3>
    1b5f:	89 f7                	mov    %esi,%edi
    1b61:	e9 97 fb ff ff       	jmp    16fd <_vsnprintf+0x3ed>
    1b66:	8b 00                	mov    (%eax),%eax
    1b68:	e9 4e fe ff ff       	jmp    19bb <_vsnprintf+0x6ab>
    1b6d:	8b 55 0c             	mov    0xc(%ebp),%edx
    1b70:	83 c0 08             	add    $0x8,%eax
    1b73:	83 ec 0c             	sub    $0xc,%esp
    1b76:	89 45 d0             	mov    %eax,-0x30(%ebp)
    1b79:	8b 02                	mov    (%edx),%eax
    1b7b:	89 45 cc             	mov    %eax,-0x34(%ebp)
    1b7e:	8b 42 04             	mov    0x4(%edx),%eax
    1b81:	31 d2                	xor    %edx,%edx
    1b83:	56                   	push   %esi
    1b84:	89 45 c8             	mov    %eax,-0x38(%ebp)
    1b87:	8b 75 c8             	mov    -0x38(%ebp),%esi
    1b8a:	ff 75 d4             	push   -0x2c(%ebp)
    1b8d:	ff 75 d8             	push   -0x28(%ebp)
    1b90:	89 f0                	mov    %esi,%eax
    1b92:	52                   	push   %edx
    1b93:	c1 e8 1f             	shr    $0x1f,%eax
    1b96:	51                   	push   %ecx
    1b97:	8b 4d cc             	mov    -0x34(%ebp),%ecx
    1b9a:	50                   	push   %eax
    1b9b:	89 f0                	mov    %esi,%eax
    1b9d:	89 ca                	mov    %ecx,%edx
    1b9f:	f7 da                	neg    %edx
    1ba1:	83 d0 00             	adc    $0x0,%eax
    1ba4:	f7 d8                	neg    %eax
    1ba6:	0f 48 d1             	cmovs  %ecx,%edx
    1ba9:	0f 48 c6             	cmovs  %esi,%eax
    1bac:	89 55 b0             	mov    %edx,-0x50(%ebp)
    1baf:	89 45 b4             	mov    %eax,-0x4c(%ebp)
    1bb2:	ff 75 b4             	push   -0x4c(%ebp)
    1bb5:	ff 75 b0             	push   -0x50(%ebp)
    1bb8:	8b 55 e0             	mov    -0x20(%ebp),%edx
    1bbb:	ff 75 dc             	push   -0x24(%ebp)
    1bbe:	89 f9                	mov    %edi,%ecx
    1bc0:	8b 45 e4             	mov    -0x1c(%ebp),%eax
    1bc3:	e8 78 ed ff ff       	call   940 <_ntoa_long_long>
    1bc8:	83 c4 30             	add    $0x30,%esp
    1bcb:	89 c7                	mov    %eax,%edi
    1bcd:	8b 45 d0             	mov    -0x30(%ebp),%eax
    1bd0:	89 45 0c             	mov    %eax,0xc(%ebp)
    1bd3:	e9 7d f7 ff ff       	jmp    1355 <_vsnprintf+0x45>
    1bd8:	83 ec 0c             	sub    $0xc,%esp
    1bdb:	83 c0 08             	add    $0x8,%eax
    1bde:	31 d2                	xor    %edx,%edx
    1be0:	56                   	push   %esi
    1be1:	8b 75 0c             	mov    0xc(%ebp),%esi
    1be4:	ff 75 d4             	push   -0x2c(%ebp)
    1be7:	89 45 d0             	mov    %eax,-0x30(%ebp)
    1bea:	ff 75 d8             	push   -0x28(%ebp)
    1bed:	52                   	push   %edx
    1bee:	51                   	push   %ecx
    1bef:	6a 00                	push   $0x0
    1bf1:	ff 76 04             	push   0x4(%esi)
    1bf4:	ff 36                	push   (%esi)
    1bf6:	eb c0                	jmp    1bb8 <_vsnprintf+0x8a8>
    1bf8:	b9 10 00 00 00       	mov    $0x10,%ecx
    1bfd:	e9 44 fc ff ff       	jmp    1846 <_vsnprintf+0x536>
    1c02:	b9 02 00 00 00       	mov    $0x2,%ecx
    1c07:	e9 ea fd ff ff       	jmp    19f6 <_vsnprintf+0x6e6>
    1c0c:	8b 45 0c             	mov    0xc(%ebp),%eax
    1c0f:	83 ec 04             	sub    $0x4,%esp
    1c12:	56                   	push   %esi
    1c13:	ff 75 d4             	push   -0x2c(%ebp)
    1c16:	ff 75 d8             	push   -0x28(%ebp)
    1c19:	51                   	push   %ecx
    1c1a:	6a 00                	push   $0x0
    1c1c:	ff 30                	push   (%eax)
    1c1e:	e9 9e fc ff ff       	jmp    18c1 <_vsnprintf+0x5b1>
    1c23:	8b 00                	mov    (%eax),%eax
    1c25:	e9 89 fc ff ff       	jmp    18b3 <_vsnprintf+0x5a3>
    1c2a:	89 45 c8             	mov    %eax,-0x38(%ebp)
    1c2d:	e9 fd fe ff ff       	jmp    1b2f <_vsnprintf+0x81f>
    1c32:	89 fe                	mov    %edi,%esi
    1c34:	e9 42 fe ff ff       	jmp    1a7b <_vsnprintf+0x76b>
    1c39:	8d b4 26 00 00 00 00 	lea    0x0(%esi,%eiz,1),%esi

00001c40 <printf_>:
    1c40:	55                   	push   %ebp
    1c41:	b9 ff ff ff ff       	mov    $0xffffffff,%ecx
    1c46:	89 e5                	mov    %esp,%ebp
    1c48:	83 ec 20             	sub    $0x20,%esp
    1c4b:	8d 45 0c             	lea    0xc(%ebp),%eax
    1c4e:	8d 55 f7             	lea    -0x9(%ebp),%edx
    1c51:	50                   	push   %eax
    1c52:	b8 c0 12 00 00       	mov    $0x12c0,%eax
			1c53: R_386_32	.text
    1c57:	ff 75 08             	push   0x8(%ebp)
    1c5a:	e8 b1 f6 ff ff       	call   1310 <_vsnprintf>
    1c5f:	c9                   	leave  
    1c60:	c3                   	ret    
    1c61:	8d b4 26 00 00 00 00 	lea    0x0(%esi,%eiz,1),%esi
    1c68:	8d b4 26 00 00 00 00 	lea    0x0(%esi,%eiz,1),%esi
    1c6f:	90                   	nop

00001c70 <sprintf_>:
    1c70:	55                   	push   %ebp
    1c71:	b9 ff ff ff ff       	mov    $0xffffffff,%ecx
    1c76:	89 e5                	mov    %esp,%ebp
    1c78:	83 ec 10             	sub    $0x10,%esp
    1c7b:	8d 45 10             	lea    0x10(%ebp),%eax
    1c7e:	8b 55 08             	mov    0x8(%ebp),%edx
    1c81:	50                   	push   %eax
    1c82:	b8 d0 04 00 00       	mov    $0x4d0,%eax
			1c83: R_386_32	.text
    1c87:	ff 75 0c             	push   0xc(%ebp)
    1c8a:	e8 81 f6 ff ff       	call   1310 <_vsnprintf>
    1c8f:	c9                   	leave  
    1c90:	c3                   	ret    
    1c91:	8d b4 26 00 00 00 00 	lea    0x0(%esi,%eiz,1),%esi
    1c98:	8d b4 26 00 00 00 00 	lea    0x0(%esi,%eiz,1),%esi
    1c9f:	90                   	nop

00001ca0 <snprintf_>:
    1ca0:	55                   	push   %ebp
    1ca1:	89 e5                	mov    %esp,%ebp
    1ca3:	83 ec 10             	sub    $0x10,%esp
    1ca6:	8d 45 14             	lea    0x14(%ebp),%eax
    1ca9:	8b 4d 0c             	mov    0xc(%ebp),%ecx
    1cac:	8b 55 08             	mov    0x8(%ebp),%edx
    1caf:	50                   	push   %eax
    1cb0:	b8 d0 04 00 00       	mov    $0x4d0,%eax
			1cb1: R_386_32	.text
    1cb5:	ff 75 10             	push   0x10(%ebp)
    1cb8:	e8 53 f6 ff ff       	call   1310 <_vsnprintf>
    1cbd:	c9                   	leave  
    1cbe:	c3                   	ret    
    1cbf:	90                   	nop

00001cc0 <vprintf_>:
    1cc0:	55                   	push   %ebp
    1cc1:	b9 ff ff ff ff       	mov    $0xffffffff,%ecx
    1cc6:	b8 c0 12 00 00       	mov    $0x12c0,%eax
			1cc7: R_386_32	.text
    1ccb:	89 e5                	mov    %esp,%ebp
    1ccd:	83 ec 20             	sub    $0x20,%esp
    1cd0:	ff 75 0c             	push   0xc(%ebp)
    1cd3:	8d 55 f7             	lea    -0x9(%ebp),%edx
    1cd6:	ff 75 08             	push   0x8(%ebp)
    1cd9:	e8 32 f6 ff ff       	call   1310 <_vsnprintf>
    1cde:	c9                   	leave  
    1cdf:	c3                   	ret    

00001ce0 <vsnprintf_>:
    1ce0:	55                   	push   %ebp
    1ce1:	89 e5                	mov    %esp,%ebp
    1ce3:	8b 45 14             	mov    0x14(%ebp),%eax
    1ce6:	8b 4d 0c             	mov    0xc(%ebp),%ecx
    1ce9:	8b 55 08             	mov    0x8(%ebp),%edx
    1cec:	89 45 0c             	mov    %eax,0xc(%ebp)
    1cef:	8b 45 10             	mov    0x10(%ebp),%eax
    1cf2:	89 45 08             	mov    %eax,0x8(%ebp)
    1cf5:	b8 d0 04 00 00       	mov    $0x4d0,%eax
			1cf6: R_386_32	.text
    1cfa:	5d                   	pop    %ebp
    1cfb:	e9 10 f6 ff ff       	jmp    1310 <_vsnprintf>

00001d00 <fctprintf>:
    1d00:	55                   	push   %ebp
    1d01:	b9 ff ff ff ff       	mov    $0xffffffff,%ecx
    1d06:	89 e5                	mov    %esp,%ebp
    1d08:	83 ec 20             	sub    $0x20,%esp
    1d0b:	8b 55 08             	mov    0x8(%ebp),%edx
    1d0e:	8d 45 14             	lea    0x14(%ebp),%eax
    1d11:	50                   	push   %eax
    1d12:	b8 e0 12 00 00       	mov    $0x12e0,%eax
			1d13: R_386_32	.text
    1d17:	89 55 f0             	mov    %edx,-0x10(%ebp)
    1d1a:	8b 55 0c             	mov    0xc(%ebp),%edx
    1d1d:	ff 75 10             	push   0x10(%ebp)
    1d20:	89 55 f4             	mov    %edx,-0xc(%ebp)
    1d23:	8d 55 f0             	lea    -0x10(%ebp),%edx
    1d26:	e8 e5 f5 ff ff       	call   1310 <_vsnprintf>
    1d2b:	c9                   	leave  
    1d2c:	c3                   	ret    
    1d2d:	8d 76 00             	lea    0x0(%esi),%esi

00001d30 <_putchar>:
    1d30:	55                   	push   %ebp
    1d31:	89 e5                	mov    %esp,%ebp
    1d33:	0f be 45 08          	movsbl 0x8(%ebp),%eax
    1d37:	89 45 08             	mov    %eax,0x8(%ebp)
    1d3a:	5d                   	pop    %ebp
    1d3b:	e9 fc ff ff ff       	jmp    1d3c <_putchar+0xc>
			1d3c: R_386_PC32	term_put_char

00001d40 <malloc>:
    1d40:	e9 fc ff ff ff       	jmp    1d41 <malloc+0x1>
			1d41: R_386_PC32	kmalloc
    1d45:	8d b4 26 00 00 00 00 	lea    0x0(%esi,%eiz,1),%esi
    1d4c:	8d 74 26 00          	lea    0x0(%esi,%eiz,1),%esi

00001d50 <free>:
    1d50:	e9 fc ff ff ff       	jmp    1d51 <free+0x1>
			1d51: R_386_PC32	kfree
    1d55:	66 90                	xchg   %ax,%ax
    1d57:	66 90                	xchg   %ax,%ax
    1d59:	66 90                	xchg   %ax,%ax
    1d5b:	66 90                	xchg   %ax,%ax
    1d5d:	66 90                	xchg   %ax,%ax
    1d5f:	90                   	nop

00001d60 <asprintf>:
    1d60:	55                   	push   %ebp
    1d61:	89 e5                	mov    %esp,%ebp
    1d63:	83 ec 0c             	sub    $0xc,%esp
    1d66:	8d 45 10             	lea    0x10(%ebp),%eax
    1d69:	50                   	push   %eax
    1d6a:	ff 75 0c             	push   0xc(%ebp)
    1d6d:	ff 75 08             	push   0x8(%ebp)
    1d70:	e8 fc ff ff ff       	call   1d71 <asprintf+0x11>
			1d71: R_386_PC32	vasprintf
    1d75:	c9                   	leave  
    1d76:	c3                   	ret    
    1d77:	66 90                	xchg   %ax,%ax
    1d79:	66 90                	xchg   %ax,%ax
    1d7b:	66 90                	xchg   %ax,%ax
    1d7d:	66 90                	xchg   %ax,%ax
    1d7f:	90                   	nop

00001d80 <putchar>:
    1d80:	55                   	push   %ebp
    1d81:	89 e5                	mov    %esp,%ebp
    1d83:	53                   	push   %ebx
    1d84:	83 ec 10             	sub    $0x10,%esp
    1d87:	8b 5d 08             	mov    0x8(%ebp),%ebx
    1d8a:	0f be c3             	movsbl %bl,%eax
    1d8d:	50                   	push   %eax
    1d8e:	e8 fc ff ff ff       	call   1d8f <putchar+0xf>
			1d8f: R_386_PC32	_putchar
    1d93:	89 d8                	mov    %ebx,%eax
    1d95:	8b 5d fc             	mov    -0x4(%ebp),%ebx
    1d98:	c9                   	leave  
    1d99:	c3                   	ret    
    1d9a:	66 90                	xchg   %ax,%ax
    1d9c:	66 90                	xchg   %ax,%ax
    1d9e:	66 90                	xchg   %ax,%ax

00001da0 <puts>:
    1da0:	55                   	push   %ebp
    1da1:	89 e5                	mov    %esp,%ebp
    1da3:	57                   	push   %edi
    1da4:	56                   	push   %esi
    1da5:	53                   	push   %ebx
    1da6:	83 ec 0c             	sub    $0xc,%esp
    1da9:	8b 5d 08             	mov    0x8(%ebp),%ebx
    1dac:	0f be 03             	movsbl (%ebx),%eax
    1daf:	84 c0                	test   %al,%al
    1db1:	74 4d                	je     1e00 <puts+0x60>
    1db3:	31 f6                	xor    %esi,%esi
    1db5:	8d b4 26 00 00 00 00 	lea    0x0(%esi,%eiz,1),%esi
    1dbc:	8d 74 26 00          	lea    0x0(%esi,%eiz,1),%esi
    1dc0:	83 ec 0c             	sub    $0xc,%esp
    1dc3:	89 f7                	mov    %esi,%edi
    1dc5:	83 c6 01             	add    $0x1,%esi
    1dc8:	50                   	push   %eax
    1dc9:	e8 fc ff ff ff       	call   1dca <puts+0x2a>
			1dca: R_386_PC32	putchar
    1dce:	0f be 04 33          	movsbl (%ebx,%esi,1),%eax
    1dd2:	83 c4 10             	add    $0x10,%esp
    1dd5:	84 c0                	test   %al,%al
    1dd7:	75 e7                	jne    1dc0 <puts+0x20>
    1dd9:	83 ec 0c             	sub    $0xc,%esp
    1ddc:	6a 0a                	push   $0xa
    1dde:	e8 fc ff ff ff       	call   1ddf <puts+0x3f>
			1ddf: R_386_PC32	putchar
    1de3:	83 c4 10             	add    $0x10,%esp
    1de6:	8d 65 f4             	lea    -0xc(%ebp),%esp
    1de9:	8d 47 02             	lea    0x2(%edi),%eax
    1dec:	5b                   	pop    %ebx
    1ded:	5e                   	pop    %esi
    1dee:	5f                   	pop    %edi
    1def:	5d                   	pop    %ebp
    1df0:	c3                   	ret    
    1df1:	8d b4 26 00 00 00 00 	lea    0x0(%esi,%eiz,1),%esi
    1df8:	8d b4 26 00 00 00 00 	lea    0x0(%esi,%eiz,1),%esi
    1dff:	90                   	nop
    1e00:	8d 65 f4             	lea    -0xc(%ebp),%esp
    1e03:	b8 ff ff ff ff       	mov    $0xffffffff,%eax
    1e08:	5b                   	pop    %ebx
    1e09:	5e                   	pop    %esi
    1e0a:	5f                   	pop    %edi
    1e0b:	5d                   	pop    %ebp
    1e0c:	c3                   	ret    
    1e0d:	66 90                	xchg   %ax,%ax
    1e0f:	90                   	nop

00001e10 <vasprintf>:
    1e10:	55                   	push   %ebp
    1e11:	89 e5                	mov    %esp,%ebp
    1e13:	57                   	push   %edi
    1e14:	56                   	push   %esi
    1e15:	53                   	push   %ebx
    1e16:	83 ec 0c             	sub    $0xc,%esp
    1e19:	8b 5d 0c             	mov    0xc(%ebp),%ebx
    1e1c:	8b 75 10             	mov    0x10(%ebp),%esi
    1e1f:	56                   	push   %esi
    1e20:	53                   	push   %ebx
    1e21:	6a 00                	push   $0x0
    1e23:	6a 00                	push   $0x0
    1e25:	e8 fc ff ff ff       	call   1e26 <vasprintf+0x16>
			1e26: R_386_PC32	vsnprintf_
    1e2a:	83 c4 10             	add    $0x10,%esp
    1e2d:	85 c0                	test   %eax,%eax
    1e2f:	78 2f                	js     1e60 <vasprintf+0x50>
    1e31:	83 ec 0c             	sub    $0xc,%esp
    1e34:	8d 78 01             	lea    0x1(%eax),%edi
    1e37:	57                   	push   %edi
    1e38:	e8 fc ff ff ff       	call   1e39 <vasprintf+0x29>
			1e39: R_386_PC32	malloc
    1e3d:	8b 55 08             	mov    0x8(%ebp),%edx
    1e40:	83 c4 10             	add    $0x10,%esp
    1e43:	89 02                	mov    %eax,(%edx)
    1e45:	85 c0                	test   %eax,%eax
    1e47:	74 17                	je     1e60 <vasprintf+0x50>
    1e49:	56                   	push   %esi
    1e4a:	53                   	push   %ebx
    1e4b:	57                   	push   %edi
    1e4c:	50                   	push   %eax
    1e4d:	e8 fc ff ff ff       	call   1e4e <vasprintf+0x3e>
			1e4e: R_386_PC32	vsnprintf_
    1e52:	83 c4 10             	add    $0x10,%esp
    1e55:	8d 65 f4             	lea    -0xc(%ebp),%esp
    1e58:	5b                   	pop    %ebx
    1e59:	5e                   	pop    %esi
    1e5a:	5f                   	pop    %edi
    1e5b:	5d                   	pop    %ebp
    1e5c:	c3                   	ret    
    1e5d:	8d 76 00             	lea    0x0(%esi),%esi
    1e60:	b8 ff ff ff ff       	mov    $0xffffffff,%eax
    1e65:	eb ee                	jmp    1e55 <vasprintf+0x45>
    1e67:	66 90                	xchg   %ax,%ax
    1e69:	66 90                	xchg   %ax,%ax
    1e6b:	66 90                	xchg   %ax,%ax
    1e6d:	66 90                	xchg   %ax,%ax
    1e6f:	90                   	nop

00001e70 <abs>:
    1e70:	55                   	push   %ebp
    1e71:	89 e5                	mov    %esp,%ebp
    1e73:	8b 55 08             	mov    0x8(%ebp),%edx
    1e76:	5d                   	pop    %ebp
    1e77:	89 d0                	mov    %edx,%eax
    1e79:	f7 d8                	neg    %eax
    1e7b:	0f 48 c2             	cmovs  %edx,%eax
    1e7e:	c3                   	ret    
    1e7f:	90                   	nop

00001e80 <atoi>:
    1e80:	55                   	push   %ebp
    1e81:	89 e5                	mov    %esp,%ebp
    1e83:	57                   	push   %edi
    1e84:	56                   	push   %esi
    1e85:	53                   	push   %ebx
    1e86:	31 db                	xor    %ebx,%ebx
    1e88:	83 ec 0c             	sub    $0xc,%esp
    1e8b:	8b 75 08             	mov    0x8(%ebp),%esi
    1e8e:	0f be 06             	movsbl (%esi),%eax
    1e91:	3c 2b                	cmp    $0x2b,%al
    1e93:	74 09                	je     1e9e <atoi+0x1e>
    1e95:	3c 2d                	cmp    $0x2d,%al
    1e97:	75 0c                	jne    1ea5 <atoi+0x25>
    1e99:	bb 01 00 00 00       	mov    $0x1,%ebx
    1e9e:	0f be 46 01          	movsbl 0x1(%esi),%eax
    1ea2:	83 c6 01             	add    $0x1,%esi
    1ea5:	31 ff                	xor    %edi,%edi
    1ea7:	eb 17                	jmp    1ec0 <atoi+0x40>
    1ea9:	8d b4 26 00 00 00 00 	lea    0x0(%esi,%eiz,1),%esi
    1eb0:	0f be 06             	movsbl (%esi),%eax
    1eb3:	8d 14 bf             	lea    (%edi,%edi,4),%edx
    1eb6:	83 c6 01             	add    $0x1,%esi
    1eb9:	8d 7c 50 d0          	lea    -0x30(%eax,%edx,2),%edi
    1ebd:	0f be 06             	movsbl (%esi),%eax
    1ec0:	83 ec 0c             	sub    $0xc,%esp
    1ec3:	50                   	push   %eax
    1ec4:	e8 fc ff ff ff       	call   1ec5 <atoi+0x45>
			1ec5: R_386_PC32	isdigit
    1ec9:	83 c4 10             	add    $0x10,%esp
    1ecc:	85 c0                	test   %eax,%eax
    1ece:	75 e0                	jne    1eb0 <atoi+0x30>
    1ed0:	89 f8                	mov    %edi,%eax
    1ed2:	f7 d8                	neg    %eax
    1ed4:	84 db                	test   %bl,%bl
    1ed6:	0f 45 f8             	cmovne %eax,%edi
    1ed9:	8d 65 f4             	lea    -0xc(%ebp),%esp
    1edc:	5b                   	pop    %ebx
    1edd:	5e                   	pop    %esi
    1ede:	89 f8                	mov    %edi,%eax
    1ee0:	5f                   	pop    %edi
    1ee1:	5d                   	pop    %ebp
    1ee2:	c3                   	ret    
    1ee3:	66 90                	xchg   %ax,%ax
    1ee5:	66 90                	xchg   %ax,%ax
    1ee7:	66 90                	xchg   %ax,%ax
    1ee9:	66 90                	xchg   %ax,%ax
    1eeb:	66 90                	xchg   %ax,%ax
    1eed:	66 90                	xchg   %ax,%ax
    1eef:	90                   	nop

00001ef0 <atol>:
    1ef0:	55                   	push   %ebp
    1ef1:	89 e5                	mov    %esp,%ebp
    1ef3:	57                   	push   %edi
    1ef4:	56                   	push   %esi
    1ef5:	53                   	push   %ebx
    1ef6:	83 ec 0c             	sub    $0xc,%esp
    1ef9:	8b 75 08             	mov    0x8(%ebp),%esi
    1efc:	eb 05                	jmp    1f03 <atol+0x13>
    1efe:	66 90                	xchg   %ax,%ax
    1f00:	83 c6 01             	add    $0x1,%esi
    1f03:	0f be 06             	movsbl (%esi),%eax
    1f06:	83 ec 0c             	sub    $0xc,%esp
    1f09:	50                   	push   %eax
    1f0a:	e8 fc ff ff ff       	call   1f0b <atol+0x1b>
			1f0b: R_386_PC32	isspace
    1f0f:	83 c4 10             	add    $0x10,%esp
    1f12:	89 c3                	mov    %eax,%ebx
    1f14:	85 c0                	test   %eax,%eax
    1f16:	75 e8                	jne    1f00 <atol+0x10>
    1f18:	0f be 06             	movsbl (%esi),%eax
    1f1b:	31 ff                	xor    %edi,%edi
    1f1d:	3c 2b                	cmp    $0x2b,%al
    1f1f:	74 09                	je     1f2a <atol+0x3a>
    1f21:	3c 2d                	cmp    $0x2d,%al
    1f23:	75 2b                	jne    1f50 <atol+0x60>
    1f25:	bf 01 00 00 00       	mov    $0x1,%edi
    1f2a:	0f be 46 01          	movsbl 0x1(%esi),%eax
    1f2e:	83 c6 01             	add    $0x1,%esi
    1f31:	eb 1d                	jmp    1f50 <atol+0x60>
    1f33:	8d b4 26 00 00 00 00 	lea    0x0(%esi,%eiz,1),%esi
    1f3a:	8d b6 00 00 00 00    	lea    0x0(%esi),%esi
    1f40:	0f be 06             	movsbl (%esi),%eax
    1f43:	8d 14 9b             	lea    (%ebx,%ebx,4),%edx
    1f46:	83 c6 01             	add    $0x1,%esi
    1f49:	8d 5c 50 d0          	lea    -0x30(%eax,%edx,2),%ebx
    1f4d:	0f be 06             	movsbl (%esi),%eax
    1f50:	83 ec 0c             	sub    $0xc,%esp
    1f53:	50                   	push   %eax
    1f54:	e8 fc ff ff ff       	call   1f55 <atol+0x65>
			1f55: R_386_PC32	isdigit
    1f59:	83 c4 10             	add    $0x10,%esp
    1f5c:	85 c0                	test   %eax,%eax
    1f5e:	75 e0                	jne    1f40 <atol+0x50>
    1f60:	89 d8                	mov    %ebx,%eax
    1f62:	89 f9                	mov    %edi,%ecx
    1f64:	f7 d8                	neg    %eax
    1f66:	84 c9                	test   %cl,%cl
    1f68:	0f 45 d8             	cmovne %eax,%ebx
    1f6b:	8d 65 f4             	lea    -0xc(%ebp),%esp
    1f6e:	89 d8                	mov    %ebx,%eax
    1f70:	5b                   	pop    %ebx
    1f71:	5e                   	pop    %esi
    1f72:	5f                   	pop    %edi
    1f73:	5d                   	pop    %ebp
    1f74:	c3                   	ret    
    1f75:	66 90                	xchg   %ax,%ax
    1f77:	66 90                	xchg   %ax,%ax
    1f79:	66 90                	xchg   %ax,%ax
    1f7b:	66 90                	xchg   %ax,%ax
    1f7d:	66 90                	xchg   %ax,%ax
    1f7f:	90                   	nop

00001f80 <atoll>:
    1f80:	55                   	push   %ebp
    1f81:	89 e5                	mov    %esp,%ebp
    1f83:	57                   	push   %edi
    1f84:	56                   	push   %esi
    1f85:	53                   	push   %ebx
    1f86:	83 ec 1c             	sub    $0x1c,%esp
    1f89:	8b 5d 08             	mov    0x8(%ebp),%ebx
    1f8c:	eb 05                	jmp    1f93 <atoll+0x13>
    1f8e:	66 90                	xchg   %ax,%ax
    1f90:	83 c3 01             	add    $0x1,%ebx
    1f93:	0f be 03             	movsbl (%ebx),%eax
    1f96:	83 ec 0c             	sub    $0xc,%esp
    1f99:	50                   	push   %eax
    1f9a:	e8 fc ff ff ff       	call   1f9b <atoll+0x1b>
			1f9b: R_386_PC32	isspace
    1f9f:	83 c4 10             	add    $0x10,%esp
    1fa2:	85 c0                	test   %eax,%eax
    1fa4:	75 ea                	jne    1f90 <atoll+0x10>
    1fa6:	0f be 03             	movsbl (%ebx),%eax
    1fa9:	c6 45 e7 00          	movb   $0x0,-0x19(%ebp)
    1fad:	3c 2b                	cmp    $0x2b,%al
    1faf:	74 08                	je     1fb9 <atoll+0x39>
    1fb1:	3c 2d                	cmp    $0x2d,%al
    1fb3:	75 0b                	jne    1fc0 <atoll+0x40>
    1fb5:	c6 45 e7 01          	movb   $0x1,-0x19(%ebp)
    1fb9:	0f be 43 01          	movsbl 0x1(%ebx),%eax
    1fbd:	83 c3 01             	add    $0x1,%ebx
    1fc0:	31 f6                	xor    %esi,%esi
    1fc2:	31 ff                	xor    %edi,%edi
    1fc4:	eb 2c                	jmp    1ff2 <atoll+0x72>
    1fc6:	8d b4 26 00 00 00 00 	lea    0x0(%esi,%eiz,1),%esi
    1fcd:	8d 76 00             	lea    0x0(%esi),%esi
    1fd0:	83 c3 01             	add    $0x1,%ebx
    1fd3:	6b cf 0a             	imul   $0xa,%edi,%ecx
    1fd6:	b8 0a 00 00 00       	mov    $0xa,%eax
    1fdb:	f7 e6                	mul    %esi
    1fdd:	0f be 73 ff          	movsbl -0x1(%ebx),%esi
    1fe1:	83 ee 30             	sub    $0x30,%esi
    1fe4:	89 f7                	mov    %esi,%edi
    1fe6:	01 ca                	add    %ecx,%edx
    1fe8:	c1 ff 1f             	sar    $0x1f,%edi
    1feb:	01 c6                	add    %eax,%esi
    1fed:	0f be 03             	movsbl (%ebx),%eax
    1ff0:	11 d7                	adc    %edx,%edi
    1ff2:	83 ec 0c             	sub    $0xc,%esp
    1ff5:	50                   	push   %eax
    1ff6:	e8 fc ff ff ff       	call   1ff7 <atoll+0x77>
			1ff7: R_386_PC32	isdigit
    1ffb:	83 c4 10             	add    $0x10,%esp
    1ffe:	85 c0                	test   %eax,%eax
    2000:	75 ce                	jne    1fd0 <atoll+0x50>
    2002:	80 7d e7 00          	cmpb   $0x0,-0x19(%ebp)
    2006:	74 07                	je     200f <atoll+0x8f>
    2008:	f7 de                	neg    %esi
    200a:	83 d7 00             	adc    $0x0,%edi
    200d:	f7 df                	neg    %edi
    200f:	8d 65 f4             	lea    -0xc(%ebp),%esp
    2012:	89 f0                	mov    %esi,%eax
    2014:	89 fa                	mov    %edi,%edx
    2016:	5b                   	pop    %ebx
    2017:	5e                   	pop    %esi
    2018:	5f                   	pop    %edi
    2019:	5d                   	pop    %ebp
    201a:	c3                   	ret    
    201b:	66 90                	xchg   %ax,%ax
    201d:	66 90                	xchg   %ax,%ax
    201f:	90                   	nop

00002020 <bsearch>:
    2020:	55                   	push   %ebp
    2021:	89 e5                	mov    %esp,%ebp
    2023:	57                   	push   %edi
    2024:	56                   	push   %esi
    2025:	53                   	push   %ebx
    2026:	83 ec 0c             	sub    $0xc,%esp
    2029:	8b 7d 10             	mov    0x10(%ebp),%edi
    202c:	85 ff                	test   %edi,%edi
    202e:	74 33                	je     2063 <bsearch+0x43>
    2030:	8b 4d 14             	mov    0x14(%ebp),%ecx
    2033:	89 fb                	mov    %edi,%ebx
    2035:	8b 75 0c             	mov    0xc(%ebp),%esi
    2038:	83 ec 08             	sub    $0x8,%esp
    203b:	d1 eb                	shr    %ebx
    203d:	0f af cb             	imul   %ebx,%ecx
    2040:	01 ce                	add    %ecx,%esi
    2042:	56                   	push   %esi
    2043:	ff 75 08             	push   0x8(%ebp)
    2046:	ff 55 18             	call   *0x18(%ebp)
    2049:	83 c4 10             	add    $0x10,%esp
    204c:	85 c0                	test   %eax,%eax
    204e:	74 15                	je     2065 <bsearch+0x45>
    2050:	7e 1e                	jle    2070 <bsearch+0x50>
    2052:	8d 57 ff             	lea    -0x1(%edi),%edx
    2055:	03 75 14             	add    0x14(%ebp),%esi
    2058:	d1 ea                	shr    %edx
    205a:	89 75 0c             	mov    %esi,0xc(%ebp)
    205d:	89 d7                	mov    %edx,%edi
    205f:	85 ff                	test   %edi,%edi
    2061:	75 cd                	jne    2030 <bsearch+0x10>
    2063:	31 f6                	xor    %esi,%esi
    2065:	8d 65 f4             	lea    -0xc(%ebp),%esp
    2068:	89 f0                	mov    %esi,%eax
    206a:	5b                   	pop    %ebx
    206b:	5e                   	pop    %esi
    206c:	5f                   	pop    %edi
    206d:	5d                   	pop    %ebp
    206e:	c3                   	ret    
    206f:	90                   	nop
    2070:	89 df                	mov    %ebx,%edi
    2072:	eb b8                	jmp    202c <bsearch+0xc>
    2074:	66 90                	xchg   %ax,%ax
    2076:	66 90                	xchg   %ax,%ax
    2078:	66 90                	xchg   %ax,%ax
    207a:	66 90                	xchg   %ax,%ax
    207c:	66 90                	xchg   %ax,%ax
    207e:	66 90                	xchg   %ax,%ax

00002080 <calloc>:
    2080:	55                   	push   %ebp
    2081:	89 e5                	mov    %esp,%ebp
    2083:	56                   	push   %esi
    2084:	8b 4d 08             	mov    0x8(%ebp),%ecx
    2087:	53                   	push   %ebx
    2088:	8b 5d 0c             	mov    0xc(%ebp),%ebx
    208b:	89 c8                	mov    %ecx,%eax
    208d:	09 d8                	or     %ebx,%eax
    208f:	3d ff ff 00 00       	cmp    $0xffff,%eax
    2094:	76 0a                	jbe    20a0 <calloc+0x20>
    2096:	85 c9                	test   %ecx,%ecx
    2098:	74 06                	je     20a0 <calloc+0x20>
    209a:	89 d8                	mov    %ebx,%eax
    209c:	f7 e1                	mul    %ecx
    209e:	70 2d                	jo     20cd <calloc+0x4d>
    20a0:	0f af d9             	imul   %ecx,%ebx
    20a3:	83 ec 0c             	sub    $0xc,%esp
    20a6:	53                   	push   %ebx
    20a7:	e8 fc ff ff ff       	call   20a8 <calloc+0x28>
			20a8: R_386_PC32	malloc
    20ac:	83 c4 10             	add    $0x10,%esp
    20af:	89 c6                	mov    %eax,%esi
    20b1:	85 c0                	test   %eax,%eax
    20b3:	74 0f                	je     20c4 <calloc+0x44>
    20b5:	83 ec 04             	sub    $0x4,%esp
    20b8:	53                   	push   %ebx
    20b9:	6a 00                	push   $0x0
    20bb:	50                   	push   %eax
    20bc:	e8 fc ff ff ff       	call   20bd <calloc+0x3d>
			20bd: R_386_PC32	memset
    20c1:	83 c4 10             	add    $0x10,%esp
    20c4:	8d 65 f8             	lea    -0x8(%ebp),%esp
    20c7:	89 f0                	mov    %esi,%eax
    20c9:	5b                   	pop    %ebx
    20ca:	5e                   	pop    %esi
    20cb:	5d                   	pop    %ebp
    20cc:	c3                   	ret    
    20cd:	31 f6                	xor    %esi,%esi
    20cf:	eb f3                	jmp    20c4 <calloc+0x44>
    20d1:	66 90                	xchg   %ax,%ax
    20d3:	66 90                	xchg   %ax,%ax
    20d5:	66 90                	xchg   %ax,%ax
    20d7:	66 90                	xchg   %ax,%ax
    20d9:	66 90                	xchg   %ax,%ax
    20db:	66 90                	xchg   %ax,%ax
    20dd:	66 90                	xchg   %ax,%ax
    20df:	90                   	nop

000020e0 <div>:
    20e0:	55                   	push   %ebp
    20e1:	89 e5                	mov    %esp,%ebp
    20e3:	53                   	push   %ebx
    20e4:	8b 4d 0c             	mov    0xc(%ebp),%ecx
    20e7:	8b 5d 08             	mov    0x8(%ebp),%ebx
    20ea:	89 c8                	mov    %ecx,%eax
    20ec:	f7 d1                	not    %ecx
    20ee:	99                   	cltd   
    20ef:	f7 7d 10             	idivl  0x10(%ebp)
    20f2:	85 d1                	test   %edx,%ecx
    20f4:	78 1a                	js     2110 <div+0x30>
    20f6:	89 03                	mov    %eax,(%ebx)
    20f8:	89 d8                	mov    %ebx,%eax
    20fa:	89 53 04             	mov    %edx,0x4(%ebx)
    20fd:	8b 5d fc             	mov    -0x4(%ebp),%ebx
    2100:	c9                   	leave  
    2101:	c2 04 00             	ret    $0x4
    2104:	8d b4 26 00 00 00 00 	lea    0x0(%esi,%eiz,1),%esi
    210b:	8d 74 26 00          	lea    0x0(%esi,%eiz,1),%esi
    210f:	90                   	nop
    2110:	83 c0 01             	add    $0x1,%eax
    2113:	2b 55 10             	sub    0x10(%ebp),%edx
    2116:	89 03                	mov    %eax,(%ebx)
    2118:	89 d8                	mov    %ebx,%eax
    211a:	89 53 04             	mov    %edx,0x4(%ebx)
    211d:	8b 5d fc             	mov    -0x4(%ebp),%ebx
    2120:	c9                   	leave  
    2121:	c2 04 00             	ret    $0x4
    2124:	66 90                	xchg   %ax,%ax
    2126:	66 90                	xchg   %ax,%ax
    2128:	66 90                	xchg   %ax,%ax
    212a:	66 90                	xchg   %ax,%ax
    212c:	66 90                	xchg   %ax,%ax
    212e:	66 90                	xchg   %ax,%ax

00002130 <heapsort>:
    2130:	55                   	push   %ebp
    2131:	31 c0                	xor    %eax,%eax
    2133:	89 e5                	mov    %esp,%ebp
    2135:	57                   	push   %edi
    2136:	56                   	push   %esi
    2137:	53                   	push   %ebx
    2138:	83 ec 2c             	sub    $0x2c,%esp
    213b:	83 7d 0c 01          	cmpl   $0x1,0xc(%ebp)
    213f:	8b 4d 10             	mov    0x10(%ebp),%ecx
    2142:	0f 86 77 02 00 00    	jbe    23bf <heapsort+0x28f>
    2148:	85 c9                	test   %ecx,%ecx
    214a:	0f 84 7c 02 00 00    	je     23cc <heapsort+0x29c>
    2150:	83 ec 0c             	sub    $0xc,%esp
    2153:	89 4d 10             	mov    %ecx,0x10(%ebp)
    2156:	51                   	push   %ecx
    2157:	e8 fc ff ff ff       	call   2158 <heapsort+0x28>
			2158: R_386_PC32	malloc
    215c:	83 c4 10             	add    $0x10,%esp
    215f:	89 45 d8             	mov    %eax,-0x28(%ebp)
    2162:	85 c0                	test   %eax,%eax
    2164:	0f 84 62 02 00 00    	je     23cc <heapsort+0x29c>
    216a:	8b 45 08             	mov    0x8(%ebp),%eax
    216d:	8b 4d 10             	mov    0x10(%ebp),%ecx
    2170:	29 c8                	sub    %ecx,%eax
    2172:	89 45 e4             	mov    %eax,-0x1c(%ebp)
    2175:	8b 45 0c             	mov    0xc(%ebp),%eax
    2178:	d1 e8                	shr    %eax
    217a:	89 45 dc             	mov    %eax,-0x24(%ebp)
    217d:	8d 76 00             	lea    0x0(%esi),%esi
    2180:	8b 75 dc             	mov    -0x24(%ebp),%esi
    2183:	8d 04 36             	lea    (%esi,%esi,1),%eax
    2186:	39 45 0c             	cmp    %eax,0xc(%ebp)
    2189:	0f 82 91 00 00 00    	jb     2220 <heapsort+0xf0>
    218f:	90                   	nop
    2190:	89 cb                	mov    %ecx,%ebx
    2192:	89 c7                	mov    %eax,%edi
    2194:	0f af d8             	imul   %eax,%ebx
    2197:	03 5d e4             	add    -0x1c(%ebp),%ebx
    219a:	39 45 0c             	cmp    %eax,0xc(%ebp)
    219d:	76 21                	jbe    21c0 <heapsort+0x90>
    219f:	83 ec 08             	sub    $0x8,%esp
    21a2:	8d 14 0b             	lea    (%ebx,%ecx,1),%edx
    21a5:	89 4d 10             	mov    %ecx,0x10(%ebp)
    21a8:	52                   	push   %edx
    21a9:	53                   	push   %ebx
    21aa:	89 55 e0             	mov    %edx,-0x20(%ebp)
    21ad:	ff 55 14             	call   *0x14(%ebp)
    21b0:	8b 4d 10             	mov    0x10(%ebp),%ecx
    21b3:	83 c4 10             	add    $0x10,%esp
    21b6:	85 c0                	test   %eax,%eax
    21b8:	79 06                	jns    21c0 <heapsort+0x90>
    21ba:	8b 5d e0             	mov    -0x20(%ebp),%ebx
    21bd:	83 c7 01             	add    $0x1,%edi
    21c0:	83 ec 08             	sub    $0x8,%esp
    21c3:	0f af f1             	imul   %ecx,%esi
    21c6:	03 75 e4             	add    -0x1c(%ebp),%esi
    21c9:	89 4d 10             	mov    %ecx,0x10(%ebp)
    21cc:	56                   	push   %esi
    21cd:	53                   	push   %ebx
    21ce:	ff 55 14             	call   *0x14(%ebp)
    21d1:	8b 4d 10             	mov    0x10(%ebp),%ecx
    21d4:	83 c4 10             	add    $0x10,%esp
    21d7:	85 c0                	test   %eax,%eax
    21d9:	7e 45                	jle    2220 <heapsort+0xf0>
    21db:	89 4d e0             	mov    %ecx,-0x20(%ebp)
    21de:	8d 14 0b             	lea    (%ebx,%ecx,1),%edx
    21e1:	8d b4 26 00 00 00 00 	lea    0x0(%esi,%eiz,1),%esi
    21e8:	8d b4 26 00 00 00 00 	lea    0x0(%esi,%eiz,1),%esi
    21ef:	90                   	nop
    21f0:	0f b6 06             	movzbl (%esi),%eax
    21f3:	0f b6 0b             	movzbl (%ebx),%ecx
    21f6:	83 c3 01             	add    $0x1,%ebx
    21f9:	83 c6 01             	add    $0x1,%esi
    21fc:	88 4e ff             	mov    %cl,-0x1(%esi)
    21ff:	88 43 ff             	mov    %al,-0x1(%ebx)
    2202:	39 d3                	cmp    %edx,%ebx
    2204:	75 ea                	jne    21f0 <heapsort+0xc0>
    2206:	8b 4d e0             	mov    -0x20(%ebp),%ecx
    2209:	8d 04 3f             	lea    (%edi,%edi,1),%eax
    220c:	39 45 0c             	cmp    %eax,0xc(%ebp)
    220f:	72 0f                	jb     2220 <heapsort+0xf0>
    2211:	89 fe                	mov    %edi,%esi
    2213:	e9 78 ff ff ff       	jmp    2190 <heapsort+0x60>
    2218:	8d b4 26 00 00 00 00 	lea    0x0(%esi,%eiz,1),%esi
    221f:	90                   	nop
    2220:	83 6d dc 01          	subl   $0x1,-0x24(%ebp)
    2224:	0f 85 56 ff ff ff    	jne    2180 <heapsort+0x50>
    222a:	8b 45 0c             	mov    0xc(%ebp),%eax
    222d:	83 c0 01             	add    $0x1,%eax
    2230:	0f af c1             	imul   %ecx,%eax
    2233:	03 45 e4             	add    -0x1c(%ebp),%eax
    2236:	89 45 d0             	mov    %eax,-0x30(%ebp)
    2239:	8b 45 d8             	mov    -0x28(%ebp),%eax
    223c:	01 c8                	add    %ecx,%eax
    223e:	89 45 cc             	mov    %eax,-0x34(%ebp)
    2241:	8d b4 26 00 00 00 00 	lea    0x0(%esi,%eiz,1),%esi
    2248:	8d b4 26 00 00 00 00 	lea    0x0(%esi,%eiz,1),%esi
    224f:	90                   	nop
    2250:	8b 45 d0             	mov    -0x30(%ebp),%eax
    2253:	8b 7d d8             	mov    -0x28(%ebp),%edi
    2256:	8b 5d cc             	mov    -0x34(%ebp),%ebx
    2259:	89 c2                	mov    %eax,%edx
    225b:	29 c8                	sub    %ecx,%eax
    225d:	89 45 d0             	mov    %eax,-0x30(%ebp)
    2260:	89 c6                	mov    %eax,%esi
    2262:	8d b4 26 00 00 00 00 	lea    0x0(%esi,%eiz,1),%esi
    2269:	8d b4 26 00 00 00 00 	lea    0x0(%esi,%eiz,1),%esi
    2270:	a4                   	movsb  %ds:(%esi),%es:(%edi)
    2271:	39 df                	cmp    %ebx,%edi
    2273:	75 fb                	jne    2270 <heapsort+0x140>
    2275:	8b 75 08             	mov    0x8(%ebp),%esi
    2278:	89 c7                	mov    %eax,%edi
    227a:	8d b6 00 00 00 00    	lea    0x0(%esi),%esi
    2280:	a4                   	movsb  %ds:(%esi),%es:(%edi)
    2281:	39 d7                	cmp    %edx,%edi
    2283:	75 fb                	jne    2280 <heapsort+0x150>
    2285:	83 6d 0c 01          	subl   $0x1,0xc(%ebp)
    2289:	83 7d 0c 01          	cmpl   $0x1,0xc(%ebp)
    228d:	0f 84 34 01 00 00    	je     23c7 <heapsort+0x297>
    2293:	c7 45 dc 01 00 00 00 	movl   $0x1,-0x24(%ebp)
    229a:	bf 02 00 00 00       	mov    $0x2,%edi
    229f:	89 cb                	mov    %ecx,%ebx
    22a1:	8d b4 26 00 00 00 00 	lea    0x0(%esi,%eiz,1),%esi
    22a8:	8d b4 26 00 00 00 00 	lea    0x0(%esi,%eiz,1),%esi
    22af:	90                   	nop
    22b0:	89 d8                	mov    %ebx,%eax
    22b2:	8b 75 e4             	mov    -0x1c(%ebp),%esi
    22b5:	0f af c7             	imul   %edi,%eax
    22b8:	89 45 e0             	mov    %eax,-0x20(%ebp)
    22bb:	01 c6                	add    %eax,%esi
    22bd:	39 7d 0c             	cmp    %edi,0xc(%ebp)
    22c0:	76 5e                	jbe    2320 <heapsort+0x1f0>
    22c2:	8d 14 1e             	lea    (%esi,%ebx,1),%edx
    22c5:	83 ec 08             	sub    $0x8,%esp
    22c8:	52                   	push   %edx
    22c9:	56                   	push   %esi
    22ca:	89 55 d4             	mov    %edx,-0x2c(%ebp)
    22cd:	ff 55 14             	call   *0x14(%ebp)
    22d0:	89 f1                	mov    %esi,%ecx
    22d2:	89 fa                	mov    %edi,%edx
    22d4:	83 c4 10             	add    $0x10,%esp
    22d7:	85 c0                	test   %eax,%eax
    22d9:	79 0c                	jns    22e7 <heapsort+0x1b7>
    22db:	8b 75 d4             	mov    -0x2c(%ebp),%esi
    22de:	8b 4d e0             	mov    -0x20(%ebp),%ecx
    22e1:	83 c2 01             	add    $0x1,%edx
    22e4:	03 4d 08             	add    0x8(%ebp),%ecx
    22e7:	8b 7d dc             	mov    -0x24(%ebp),%edi
    22ea:	0f af fb             	imul   %ebx,%edi
    22ed:	03 7d e4             	add    -0x1c(%ebp),%edi
    22f0:	8d 04 1f             	lea    (%edi,%ebx,1),%eax
    22f3:	8d b4 26 00 00 00 00 	lea    0x0(%esi,%eiz,1),%esi
    22fa:	8d b6 00 00 00 00    	lea    0x0(%esi),%esi
    2300:	a4                   	movsb  %ds:(%esi),%es:(%edi)
    2301:	39 c7                	cmp    %eax,%edi
    2303:	75 fb                	jne    2300 <heapsort+0x1d0>
    2305:	8d 3c 12             	lea    (%edx,%edx,1),%edi
    2308:	39 7d 0c             	cmp    %edi,0xc(%ebp)
    230b:	72 23                	jb     2330 <heapsort+0x200>
    230d:	89 55 dc             	mov    %edx,-0x24(%ebp)
    2310:	eb 9e                	jmp    22b0 <heapsort+0x180>
    2312:	8d b4 26 00 00 00 00 	lea    0x0(%esi,%eiz,1),%esi
    2319:	8d b4 26 00 00 00 00 	lea    0x0(%esi,%eiz,1),%esi
    2320:	89 f1                	mov    %esi,%ecx
    2322:	89 fa                	mov    %edi,%edx
    2324:	eb c1                	jmp    22e7 <heapsort+0x1b7>
    2326:	8d b4 26 00 00 00 00 	lea    0x0(%esi,%eiz,1),%esi
    232d:	8d 76 00             	lea    0x0(%esi),%esi
    2330:	89 d0                	mov    %edx,%eax
    2332:	89 5d 10             	mov    %ebx,0x10(%ebp)
    2335:	89 cb                	mov    %ecx,%ebx
    2337:	8b 4d 10             	mov    0x10(%ebp),%ecx
    233a:	d1 e8                	shr    %eax
    233c:	89 c6                	mov    %eax,%esi
    233e:	0f af f1             	imul   %ecx,%esi
    2341:	03 75 e4             	add    -0x1c(%ebp),%esi
    2344:	83 fa 01             	cmp    $0x1,%edx
    2347:	74 48                	je     2391 <heapsort+0x261>
    2349:	89 df                	mov    %ebx,%edi
    234b:	8d 74 26 00          	lea    0x0(%esi,%eiz,1),%esi
    234f:	90                   	nop
    2350:	83 ec 08             	sub    $0x8,%esp
    2353:	89 4d 10             	mov    %ecx,0x10(%ebp)
    2356:	89 c3                	mov    %eax,%ebx
    2358:	56                   	push   %esi
    2359:	ff 75 d8             	push   -0x28(%ebp)
    235c:	ff 55 14             	call   *0x14(%ebp)
    235f:	8b 4d 10             	mov    0x10(%ebp),%ecx
    2362:	83 c4 10             	add    $0x10,%esp
    2365:	85 c0                	test   %eax,%eax
    2367:	78 26                	js     238f <heapsort+0x25f>
    2369:	8d 04 0f             	lea    (%edi,%ecx,1),%eax
    236c:	8d 74 26 00          	lea    0x0(%esi,%eiz,1),%esi
    2370:	a4                   	movsb  %ds:(%esi),%es:(%edi)
    2371:	39 c7                	cmp    %eax,%edi
    2373:	75 fb                	jne    2370 <heapsort+0x240>
    2375:	89 d8                	mov    %ebx,%eax
    2377:	89 cf                	mov    %ecx,%edi
    2379:	89 ce                	mov    %ecx,%esi
    237b:	8b 55 e4             	mov    -0x1c(%ebp),%edx
    237e:	d1 e8                	shr    %eax
    2380:	0f af fb             	imul   %ebx,%edi
    2383:	0f af f0             	imul   %eax,%esi
    2386:	01 d7                	add    %edx,%edi
    2388:	01 d6                	add    %edx,%esi
    238a:	83 fb 01             	cmp    $0x1,%ebx
    238d:	75 c1                	jne    2350 <heapsort+0x220>
    238f:	89 fb                	mov    %edi,%ebx
    2391:	8b 75 d8             	mov    -0x28(%ebp),%esi
    2394:	8d 04 0b             	lea    (%ebx,%ecx,1),%eax
    2397:	89 df                	mov    %ebx,%edi
    2399:	8d b4 26 00 00 00 00 	lea    0x0(%esi,%eiz,1),%esi
    23a0:	a4                   	movsb  %ds:(%esi),%es:(%edi)
    23a1:	39 c7                	cmp    %eax,%edi
    23a3:	75 fb                	jne    23a0 <heapsort+0x270>
    23a5:	83 7d 0c 01          	cmpl   $0x1,0xc(%ebp)
    23a9:	0f 85 a1 fe ff ff    	jne    2250 <heapsort+0x120>
    23af:	83 ec 0c             	sub    $0xc,%esp
    23b2:	ff 75 d8             	push   -0x28(%ebp)
    23b5:	e8 fc ff ff ff       	call   23b6 <heapsort+0x286>
			23b6: R_386_PC32	free
    23ba:	83 c4 10             	add    $0x10,%esp
    23bd:	31 c0                	xor    %eax,%eax
    23bf:	8d 65 f4             	lea    -0xc(%ebp),%esp
    23c2:	5b                   	pop    %ebx
    23c3:	5e                   	pop    %esi
    23c4:	5f                   	pop    %edi
    23c5:	5d                   	pop    %ebp
    23c6:	c3                   	ret    
    23c7:	8b 5d 08             	mov    0x8(%ebp),%ebx
    23ca:	eb c5                	jmp    2391 <heapsort+0x261>
    23cc:	b8 ff ff ff ff       	mov    $0xffffffff,%eax
    23d1:	eb ec                	jmp    23bf <heapsort+0x28f>
    23d3:	66 90                	xchg   %ax,%ax
    23d5:	66 90                	xchg   %ax,%ax
    23d7:	66 90                	xchg   %ax,%ax
    23d9:	66 90                	xchg   %ax,%ax
    23db:	66 90                	xchg   %ax,%ax
    23dd:	66 90                	xchg   %ax,%ax
    23df:	90                   	nop

000023e0 <heapsort_r>:
    23e0:	55                   	push   %ebp
    23e1:	31 c0                	xor    %eax,%eax
    23e3:	89 e5                	mov    %esp,%ebp
    23e5:	57                   	push   %edi
    23e6:	56                   	push   %esi
    23e7:	53                   	push   %ebx
    23e8:	83 ec 2c             	sub    $0x2c,%esp
    23eb:	83 7d 0c 01          	cmpl   $0x1,0xc(%ebp)
    23ef:	8b 4d 10             	mov    0x10(%ebp),%ecx
    23f2:	0f 86 77 02 00 00    	jbe    266f <heapsort_r+0x28f>
    23f8:	85 c9                	test   %ecx,%ecx
    23fa:	0f 84 7c 02 00 00    	je     267c <heapsort_r+0x29c>
    2400:	83 ec 0c             	sub    $0xc,%esp
    2403:	89 4d 10             	mov    %ecx,0x10(%ebp)
    2406:	51                   	push   %ecx
    2407:	e8 fc ff ff ff       	call   2408 <heapsort_r+0x28>
			2408: R_386_PC32	malloc
    240c:	83 c4 10             	add    $0x10,%esp
    240f:	89 45 d8             	mov    %eax,-0x28(%ebp)
    2412:	85 c0                	test   %eax,%eax
    2414:	0f 84 62 02 00 00    	je     267c <heapsort_r+0x29c>
    241a:	8b 45 08             	mov    0x8(%ebp),%eax
    241d:	8b 4d 10             	mov    0x10(%ebp),%ecx
    2420:	29 c8                	sub    %ecx,%eax
    2422:	89 45 e4             	mov    %eax,-0x1c(%ebp)
    2425:	8b 45 0c             	mov    0xc(%ebp),%eax
    2428:	d1 e8                	shr    %eax
    242a:	89 45 dc             	mov    %eax,-0x24(%ebp)
    242d:	8d 76 00             	lea    0x0(%esi),%esi
    2430:	8b 75 dc             	mov    -0x24(%ebp),%esi
    2433:	8d 04 36             	lea    (%esi,%esi,1),%eax
    2436:	39 45 0c             	cmp    %eax,0xc(%ebp)
    2439:	0f 82 91 00 00 00    	jb     24d0 <heapsort_r+0xf0>
    243f:	90                   	nop
    2440:	89 cb                	mov    %ecx,%ebx
    2442:	89 c7                	mov    %eax,%edi
    2444:	0f af d8             	imul   %eax,%ebx
    2447:	03 5d e4             	add    -0x1c(%ebp),%ebx
    244a:	39 45 0c             	cmp    %eax,0xc(%ebp)
    244d:	76 24                	jbe    2473 <heapsort_r+0x93>
    244f:	83 ec 04             	sub    $0x4,%esp
    2452:	8d 14 0b             	lea    (%ebx,%ecx,1),%edx
    2455:	89 4d 10             	mov    %ecx,0x10(%ebp)
    2458:	52                   	push   %edx
    2459:	53                   	push   %ebx
    245a:	ff 75 14             	push   0x14(%ebp)
    245d:	89 55 e0             	mov    %edx,-0x20(%ebp)
    2460:	ff 55 18             	call   *0x18(%ebp)
    2463:	8b 4d 10             	mov    0x10(%ebp),%ecx
    2466:	83 c4 10             	add    $0x10,%esp
    2469:	85 c0                	test   %eax,%eax
    246b:	79 06                	jns    2473 <heapsort_r+0x93>
    246d:	8b 5d e0             	mov    -0x20(%ebp),%ebx
    2470:	83 c7 01             	add    $0x1,%edi
    2473:	83 ec 04             	sub    $0x4,%esp
    2476:	0f af f1             	imul   %ecx,%esi
    2479:	03 75 e4             	add    -0x1c(%ebp),%esi
    247c:	89 4d 10             	mov    %ecx,0x10(%ebp)
    247f:	56                   	push   %esi
    2480:	53                   	push   %ebx
    2481:	ff 75 14             	push   0x14(%ebp)
    2484:	ff 55 18             	call   *0x18(%ebp)
    2487:	8b 4d 10             	mov    0x10(%ebp),%ecx
    248a:	83 c4 10             	add    $0x10,%esp
    248d:	85 c0                	test   %eax,%eax
    248f:	7e 3f                	jle    24d0 <heapsort_r+0xf0>
    2491:	89 4d e0             	mov    %ecx,-0x20(%ebp)
    2494:	8d 14 0b             	lea    (%ebx,%ecx,1),%edx
    2497:	8d b4 26 00 00 00 00 	lea    0x0(%esi,%eiz,1),%esi
    249e:	66 90                	xchg   %ax,%ax
    24a0:	0f b6 06             	movzbl (%esi),%eax
    24a3:	0f b6 0b             	movzbl (%ebx),%ecx
    24a6:	83 c3 01             	add    $0x1,%ebx
    24a9:	83 c6 01             	add    $0x1,%esi
    24ac:	88 4e ff             	mov    %cl,-0x1(%esi)
    24af:	88 43 ff             	mov    %al,-0x1(%ebx)
    24b2:	39 d3                	cmp    %edx,%ebx
    24b4:	75 ea                	jne    24a0 <heapsort_r+0xc0>
    24b6:	8b 4d e0             	mov    -0x20(%ebp),%ecx
    24b9:	8d 04 3f             	lea    (%edi,%edi,1),%eax
    24bc:	39 45 0c             	cmp    %eax,0xc(%ebp)
    24bf:	72 0f                	jb     24d0 <heapsort_r+0xf0>
    24c1:	89 fe                	mov    %edi,%esi
    24c3:	e9 78 ff ff ff       	jmp    2440 <heapsort_r+0x60>
    24c8:	8d b4 26 00 00 00 00 	lea    0x0(%esi,%eiz,1),%esi
    24cf:	90                   	nop
    24d0:	83 6d dc 01          	subl   $0x1,-0x24(%ebp)
    24d4:	0f 85 56 ff ff ff    	jne    2430 <heapsort_r+0x50>
    24da:	8b 45 0c             	mov    0xc(%ebp),%eax
    24dd:	83 c0 01             	add    $0x1,%eax
    24e0:	0f af c1             	imul   %ecx,%eax
    24e3:	03 45 e4             	add    -0x1c(%ebp),%eax
    24e6:	89 45 d0             	mov    %eax,-0x30(%ebp)
    24e9:	8b 45 d8             	mov    -0x28(%ebp),%eax
    24ec:	01 c8                	add    %ecx,%eax
    24ee:	89 45 cc             	mov    %eax,-0x34(%ebp)
    24f1:	8d b4 26 00 00 00 00 	lea    0x0(%esi,%eiz,1),%esi
    24f8:	8d b4 26 00 00 00 00 	lea    0x0(%esi,%eiz,1),%esi
    24ff:	90                   	nop
    2500:	8b 45 d0             	mov    -0x30(%ebp),%eax
    2503:	8b 7d d8             	mov    -0x28(%ebp),%edi
    2506:	8b 5d cc             	mov    -0x34(%ebp),%ebx
    2509:	89 c2                	mov    %eax,%edx
    250b:	29 c8                	sub    %ecx,%eax
    250d:	89 45 d0             	mov    %eax,-0x30(%ebp)
    2510:	89 c6                	mov    %eax,%esi
    2512:	8d b4 26 00 00 00 00 	lea    0x0(%esi,%eiz,1),%esi
    2519:	8d b4 26 00 00 00 00 	lea    0x0(%esi,%eiz,1),%esi
    2520:	a4                   	movsb  %ds:(%esi),%es:(%edi)
    2521:	39 df                	cmp    %ebx,%edi
    2523:	75 fb                	jne    2520 <heapsort_r+0x140>
    2525:	8b 75 08             	mov    0x8(%ebp),%esi
    2528:	89 c7                	mov    %eax,%edi
    252a:	8d b6 00 00 00 00    	lea    0x0(%esi),%esi
    2530:	a4                   	movsb  %ds:(%esi),%es:(%edi)
    2531:	39 d7                	cmp    %edx,%edi
    2533:	75 fb                	jne    2530 <heapsort_r+0x150>
    2535:	83 6d 0c 01          	subl   $0x1,0xc(%ebp)
    2539:	83 7d 0c 01          	cmpl   $0x1,0xc(%ebp)
    253d:	0f 84 34 01 00 00    	je     2677 <heapsort_r+0x297>
    2543:	c7 45 dc 01 00 00 00 	movl   $0x1,-0x24(%ebp)
    254a:	bf 02 00 00 00       	mov    $0x2,%edi
    254f:	89 cb                	mov    %ecx,%ebx
    2551:	8d b4 26 00 00 00 00 	lea    0x0(%esi,%eiz,1),%esi
    2558:	8d b4 26 00 00 00 00 	lea    0x0(%esi,%eiz,1),%esi
    255f:	90                   	nop
    2560:	89 d8                	mov    %ebx,%eax
    2562:	8b 75 e4             	mov    -0x1c(%ebp),%esi
    2565:	0f af c7             	imul   %edi,%eax
    2568:	89 45 e0             	mov    %eax,-0x20(%ebp)
    256b:	01 c6                	add    %eax,%esi
    256d:	39 7d 0c             	cmp    %edi,0xc(%ebp)
    2570:	76 5e                	jbe    25d0 <heapsort_r+0x1f0>
    2572:	83 ec 04             	sub    $0x4,%esp
    2575:	8d 14 1e             	lea    (%esi,%ebx,1),%edx
    2578:	52                   	push   %edx
    2579:	56                   	push   %esi
    257a:	ff 75 14             	push   0x14(%ebp)
    257d:	89 55 d4             	mov    %edx,-0x2c(%ebp)
    2580:	ff 55 18             	call   *0x18(%ebp)
    2583:	89 f1                	mov    %esi,%ecx
    2585:	89 fa                	mov    %edi,%edx
    2587:	83 c4 10             	add    $0x10,%esp
    258a:	85 c0                	test   %eax,%eax
    258c:	79 0c                	jns    259a <heapsort_r+0x1ba>
    258e:	8b 75 d4             	mov    -0x2c(%ebp),%esi
    2591:	8b 4d e0             	mov    -0x20(%ebp),%ecx
    2594:	83 c2 01             	add    $0x1,%edx
    2597:	03 4d 08             	add    0x8(%ebp),%ecx
    259a:	8b 7d dc             	mov    -0x24(%ebp),%edi
    259d:	0f af fb             	imul   %ebx,%edi
    25a0:	03 7d e4             	add    -0x1c(%ebp),%edi
    25a3:	8d 04 1f             	lea    (%edi,%ebx,1),%eax
    25a6:	8d b4 26 00 00 00 00 	lea    0x0(%esi,%eiz,1),%esi
    25ad:	8d 76 00             	lea    0x0(%esi),%esi
    25b0:	a4                   	movsb  %ds:(%esi),%es:(%edi)
    25b1:	39 c7                	cmp    %eax,%edi
    25b3:	75 fb                	jne    25b0 <heapsort_r+0x1d0>
    25b5:	8d 3c 12             	lea    (%edx,%edx,1),%edi
    25b8:	39 7d 0c             	cmp    %edi,0xc(%ebp)
    25bb:	72 23                	jb     25e0 <heapsort_r+0x200>
    25bd:	89 55 dc             	mov    %edx,-0x24(%ebp)
    25c0:	eb 9e                	jmp    2560 <heapsort_r+0x180>
    25c2:	8d b4 26 00 00 00 00 	lea    0x0(%esi,%eiz,1),%esi
    25c9:	8d b4 26 00 00 00 00 	lea    0x0(%esi,%eiz,1),%esi
    25d0:	89 f1                	mov    %esi,%ecx
    25d2:	89 fa                	mov    %edi,%edx
    25d4:	eb c4                	jmp    259a <heapsort_r+0x1ba>
    25d6:	8d b4 26 00 00 00 00 	lea    0x0(%esi,%eiz,1),%esi
    25dd:	8d 76 00             	lea    0x0(%esi),%esi
    25e0:	89 d0                	mov    %edx,%eax
    25e2:	89 5d 10             	mov    %ebx,0x10(%ebp)
    25e5:	89 cb                	mov    %ecx,%ebx
    25e7:	8b 4d 10             	mov    0x10(%ebp),%ecx
    25ea:	d1 e8                	shr    %eax
    25ec:	89 c6                	mov    %eax,%esi
    25ee:	0f af f1             	imul   %ecx,%esi
    25f1:	03 75 e4             	add    -0x1c(%ebp),%esi
    25f4:	83 fa 01             	cmp    $0x1,%edx
    25f7:	74 48                	je     2641 <heapsort_r+0x261>
    25f9:	89 df                	mov    %ebx,%edi
    25fb:	8d 74 26 00          	lea    0x0(%esi,%eiz,1),%esi
    25ff:	90                   	nop
    2600:	83 ec 04             	sub    $0x4,%esp
    2603:	89 4d 10             	mov    %ecx,0x10(%ebp)
    2606:	89 c3                	mov    %eax,%ebx
    2608:	56                   	push   %esi
    2609:	ff 75 d8             	push   -0x28(%ebp)
    260c:	ff 75 14             	push   0x14(%ebp)
    260f:	ff 55 18             	call   *0x18(%ebp)
    2612:	8b 4d 10             	mov    0x10(%ebp),%ecx
    2615:	83 c4 10             	add    $0x10,%esp
    2618:	85 c0                	test   %eax,%eax
    261a:	78 23                	js     263f <heapsort_r+0x25f>
    261c:	8d 04 0f             	lea    (%edi,%ecx,1),%eax
    261f:	90                   	nop
    2620:	a4                   	movsb  %ds:(%esi),%es:(%edi)
    2621:	39 c7                	cmp    %eax,%edi
    2623:	75 fb                	jne    2620 <heapsort_r+0x240>
    2625:	89 d8                	mov    %ebx,%eax
    2627:	89 cf                	mov    %ecx,%edi
    2629:	89 ce                	mov    %ecx,%esi
    262b:	8b 55 e4             	mov    -0x1c(%ebp),%edx
    262e:	d1 e8                	shr    %eax
    2630:	0f af fb             	imul   %ebx,%edi
    2633:	0f af f0             	imul   %eax,%esi
    2636:	01 d7                	add    %edx,%edi
    2638:	01 d6                	add    %edx,%esi
    263a:	83 fb 01             	cmp    $0x1,%ebx
    263d:	75 c1                	jne    2600 <heapsort_r+0x220>
    263f:	89 fb                	mov    %edi,%ebx
    2641:	8b 75 d8             	mov    -0x28(%ebp),%esi
    2644:	8d 04 0b             	lea    (%ebx,%ecx,1),%eax
    2647:	89 df                	mov    %ebx,%edi
    2649:	8d b4 26 00 00 00 00 	lea    0x0(%esi,%eiz,1),%esi
    2650:	a4                   	movsb  %ds:(%esi),%es:(%edi)
    2651:	39 c7                	cmp    %eax,%edi
    2653:	75 fb                	jne    2650 <heapsort_r+0x270>
    2655:	83 7d 0c 01          	cmpl   $0x1,0xc(%ebp)
    2659:	0f 85 a1 fe ff ff    	jne    2500 <heapsort_r+0x120>
    265f:	83 ec 0c             	sub    $0xc,%esp
    2662:	ff 75 d8             	push   -0x28(%ebp)
    2665:	e8 fc ff ff ff       	call   2666 <heapsort_r+0x286>
			2666: R_386_PC32	free
    266a:	83 c4 10             	add    $0x10,%esp
    266d:	31 c0                	xor    %eax,%eax
    266f:	8d 65 f4             	lea    -0xc(%ebp),%esp
    2672:	5b                   	pop    %ebx
    2673:	5e                   	pop    %esi
    2674:	5f                   	pop    %edi
    2675:	5d                   	pop    %ebp
    2676:	c3                   	ret    
    2677:	8b 5d 08             	mov    0x8(%ebp),%ebx
    267a:	eb c5                	jmp    2641 <heapsort_r+0x261>
    267c:	b8 ff ff ff ff       	mov    $0xffffffff,%eax
    2681:	eb ec                	jmp    266f <heapsort_r+0x28f>
    2683:	66 90                	xchg   %ax,%ax
    2685:	66 90                	xchg   %ax,%ax
    2687:	66 90                	xchg   %ax,%ax
    2689:	66 90                	xchg   %ax,%ax
    268b:	66 90                	xchg   %ax,%ax
    268d:	66 90                	xchg   %ax,%ax
    268f:	90                   	nop

00002690 <imaxabs>:
    2690:	55                   	push   %ebp
    2691:	89 e5                	mov    %esp,%ebp
    2693:	53                   	push   %ebx
    2694:	8b 4d 08             	mov    0x8(%ebp),%ecx
    2697:	8b 5d 0c             	mov    0xc(%ebp),%ebx
    269a:	89 c8                	mov    %ecx,%eax
    269c:	89 da                	mov    %ebx,%edx
    269e:	f7 d8                	neg    %eax
    26a0:	83 d2 00             	adc    $0x0,%edx
    26a3:	f7 da                	neg    %edx
    26a5:	0f 48 d3             	cmovs  %ebx,%edx
    26a8:	0f 48 c1             	cmovs  %ecx,%eax
    26ab:	8b 5d fc             	mov    -0x4(%ebp),%ebx
    26ae:	c9                   	leave  
    26af:	c3                   	ret    

000026b0 <imaxdiv>:
    26b0:	55                   	push   %ebp
    26b1:	89 e5                	mov    %esp,%ebp
    26b3:	57                   	push   %edi
    26b4:	56                   	push   %esi
    26b5:	53                   	push   %ebx
    26b6:	83 ec 28             	sub    $0x28,%esp
    26b9:	8b 45 14             	mov    0x14(%ebp),%eax
    26bc:	8b 4d 18             	mov    0x18(%ebp),%ecx
    26bf:	8b 75 0c             	mov    0xc(%ebp),%esi
    26c2:	8b 7d 10             	mov    0x10(%ebp),%edi
    26c5:	89 c2                	mov    %eax,%edx
    26c7:	89 45 d8             	mov    %eax,-0x28(%ebp)
    26ca:	8d 45 e0             	lea    -0x20(%ebp),%eax
    26cd:	50                   	push   %eax
    26ce:	51                   	push   %ecx
    26cf:	52                   	push   %edx
    26d0:	57                   	push   %edi
    26d1:	56                   	push   %esi
    26d2:	89 fe                	mov    %edi,%esi
    26d4:	89 4d dc             	mov    %ecx,-0x24(%ebp)
    26d7:	f7 d6                	not    %esi
    26d9:	e8 fc ff ff ff       	call   26da <imaxdiv+0x2a>
			26da: R_386_PC32	__divmoddi4
    26de:	83 c4 20             	add    $0x20,%esp
    26e1:	89 d3                	mov    %edx,%ebx
    26e3:	8b 55 e4             	mov    -0x1c(%ebp),%edx
    26e6:	89 c1                	mov    %eax,%ecx
    26e8:	8b 45 e0             	mov    -0x20(%ebp),%eax
    26eb:	85 d6                	test   %edx,%esi
    26ed:	78 21                	js     2710 <imaxdiv+0x60>
    26ef:	8b 7d 08             	mov    0x8(%ebp),%edi
    26f2:	89 47 08             	mov    %eax,0x8(%edi)
    26f5:	89 f8                	mov    %edi,%eax
    26f7:	89 0f                	mov    %ecx,(%edi)
    26f9:	89 5f 04             	mov    %ebx,0x4(%edi)
    26fc:	89 57 0c             	mov    %edx,0xc(%edi)
    26ff:	8d 65 f4             	lea    -0xc(%ebp),%esp
    2702:	5b                   	pop    %ebx
    2703:	5e                   	pop    %esi
    2704:	5f                   	pop    %edi
    2705:	5d                   	pop    %ebp
    2706:	c2 04 00             	ret    $0x4
    2709:	8d b4 26 00 00 00 00 	lea    0x0(%esi,%eiz,1),%esi
    2710:	83 c1 01             	add    $0x1,%ecx
    2713:	83 d3 00             	adc    $0x0,%ebx
    2716:	2b 45 d8             	sub    -0x28(%ebp),%eax
    2719:	1b 55 dc             	sbb    -0x24(%ebp),%edx
    271c:	eb d1                	jmp    26ef <imaxdiv+0x3f>
    271e:	66 90                	xchg   %ax,%ax

00002720 <labs>:
    2720:	55                   	push   %ebp
    2721:	89 e5                	mov    %esp,%ebp
    2723:	8b 55 08             	mov    0x8(%ebp),%edx
    2726:	5d                   	pop    %ebp
    2727:	89 d0                	mov    %edx,%eax
    2729:	f7 d8                	neg    %eax
    272b:	0f 48 c2             	cmovs  %edx,%eax
    272e:	c3                   	ret    
    272f:	90                   	nop

00002730 <ldiv>:
    2730:	55                   	push   %ebp
    2731:	89 e5                	mov    %esp,%ebp
    2733:	53                   	push   %ebx
    2734:	8b 4d 0c             	mov    0xc(%ebp),%ecx
    2737:	8b 5d 08             	mov    0x8(%ebp),%ebx
    273a:	89 c8                	mov    %ecx,%eax
    273c:	f7 d1                	not    %ecx
    273e:	99                   	cltd   
    273f:	f7 7d 10             	idivl  0x10(%ebp)
    2742:	85 d1                	test   %edx,%ecx
    2744:	78 1a                	js     2760 <ldiv+0x30>
    2746:	89 03                	mov    %eax,(%ebx)
    2748:	89 d8                	mov    %ebx,%eax
    274a:	89 53 04             	mov    %edx,0x4(%ebx)
    274d:	8b 5d fc             	mov    -0x4(%ebp),%ebx
    2750:	c9                   	leave  
    2751:	c2 04 00             	ret    $0x4
    2754:	8d b4 26 00 00 00 00 	lea    0x0(%esi,%eiz,1),%esi
    275b:	8d 74 26 00          	lea    0x0(%esi,%eiz,1),%esi
    275f:	90                   	nop
    2760:	83 c0 01             	add    $0x1,%eax
    2763:	2b 55 10             	sub    0x10(%ebp),%edx
    2766:	89 03                	mov    %eax,(%ebx)
    2768:	89 d8                	mov    %ebx,%eax
    276a:	89 53 04             	mov    %edx,0x4(%ebx)
    276d:	8b 5d fc             	mov    -0x4(%ebp),%ebx
    2770:	c9                   	leave  
    2771:	c2 04 00             	ret    $0x4
    2774:	66 90                	xchg   %ax,%ax
    2776:	66 90                	xchg   %ax,%ax
    2778:	66 90                	xchg   %ax,%ax
    277a:	66 90                	xchg   %ax,%ax
    277c:	66 90                	xchg   %ax,%ax
    277e:	66 90                	xchg   %ax,%ax

00002780 <llabs>:
    2780:	55                   	push   %ebp
    2781:	89 e5                	mov    %esp,%ebp
    2783:	53                   	push   %ebx
    2784:	8b 4d 08             	mov    0x8(%ebp),%ecx
    2787:	8b 5d 0c             	mov    0xc(%ebp),%ebx
    278a:	89 c8                	mov    %ecx,%eax
    278c:	89 da                	mov    %ebx,%edx
    278e:	f7 d8                	neg    %eax
    2790:	83 d2 00             	adc    $0x0,%edx
    2793:	f7 da                	neg    %edx
    2795:	0f 48 d3             	cmovs  %ebx,%edx
    2798:	0f 48 c1             	cmovs  %ecx,%eax
    279b:	8b 5d fc             	mov    -0x4(%ebp),%ebx
    279e:	c9                   	leave  
    279f:	c3                   	ret    

000027a0 <lldiv>:
    27a0:	55                   	push   %ebp
    27a1:	89 e5                	mov    %esp,%ebp
    27a3:	57                   	push   %edi
    27a4:	56                   	push   %esi
    27a5:	53                   	push   %ebx
    27a6:	83 ec 28             	sub    $0x28,%esp
    27a9:	8b 45 14             	mov    0x14(%ebp),%eax
    27ac:	8b 4d 18             	mov    0x18(%ebp),%ecx
    27af:	8b 75 0c             	mov    0xc(%ebp),%esi
    27b2:	8b 7d 10             	mov    0x10(%ebp),%edi
    27b5:	89 c2                	mov    %eax,%edx
    27b7:	89 45 d8             	mov    %eax,-0x28(%ebp)
    27ba:	8d 45 e0             	lea    -0x20(%ebp),%eax
    27bd:	50                   	push   %eax
    27be:	51                   	push   %ecx
    27bf:	52                   	push   %edx
    27c0:	57                   	push   %edi
    27c1:	56                   	push   %esi
    27c2:	89 fe                	mov    %edi,%esi
    27c4:	89 4d dc             	mov    %ecx,-0x24(%ebp)
    27c7:	f7 d6                	not    %esi
    27c9:	e8 fc ff ff ff       	call   27ca <lldiv+0x2a>
			27ca: R_386_PC32	__divmoddi4
    27ce:	83 c4 20             	add    $0x20,%esp
    27d1:	89 d3                	mov    %edx,%ebx
    27d3:	8b 55 e4             	mov    -0x1c(%ebp),%edx
    27d6:	89 c1                	mov    %eax,%ecx
    27d8:	8b 45 e0             	mov    -0x20(%ebp),%eax
    27db:	85 d6                	test   %edx,%esi
    27dd:	78 21                	js     2800 <lldiv+0x60>
    27df:	8b 7d 08             	mov    0x8(%ebp),%edi
    27e2:	89 47 08             	mov    %eax,0x8(%edi)
    27e5:	89 f8                	mov    %edi,%eax
    27e7:	89 0f                	mov    %ecx,(%edi)
    27e9:	89 5f 04             	mov    %ebx,0x4(%edi)
    27ec:	89 57 0c             	mov    %edx,0xc(%edi)
    27ef:	8d 65 f4             	lea    -0xc(%ebp),%esp
    27f2:	5b                   	pop    %ebx
    27f3:	5e                   	pop    %esi
    27f4:	5f                   	pop    %edi
    27f5:	5d                   	pop    %ebp
    27f6:	c2 04 00             	ret    $0x4
    27f9:	8d b4 26 00 00 00 00 	lea    0x0(%esi,%eiz,1),%esi
    2800:	83 c1 01             	add    $0x1,%ecx
    2803:	83 d3 00             	adc    $0x0,%ebx
    2806:	2b 45 d8             	sub    -0x28(%ebp),%eax
    2809:	1b 55 dc             	sbb    -0x24(%ebp),%edx
    280c:	eb d1                	jmp    27df <lldiv+0x3f>
    280e:	66 90                	xchg   %ax,%ax

00002810 <_qsort>:
    2810:	55                   	push   %ebp
    2811:	89 e5                	mov    %esp,%ebp
    2813:	57                   	push   %edi
    2814:	56                   	push   %esi
    2815:	53                   	push   %ebx
    2816:	83 ec 4c             	sub    $0x4c,%esp
    2819:	89 45 e0             	mov    %eax,-0x20(%ebp)
    281c:	8b 45 0c             	mov    0xc(%ebp),%eax
    281f:	89 4d d4             	mov    %ecx,-0x2c(%ebp)
    2822:	c1 e9 02             	shr    $0x2,%ecx
    2825:	8d 78 ff             	lea    -0x1(%eax),%edi
    2828:	89 55 b8             	mov    %edx,-0x48(%ebp)
    282b:	89 7d b0             	mov    %edi,-0x50(%ebp)
    282e:	89 4d c4             	mov    %ecx,-0x3c(%ebp)
    2831:	85 c0                	test   %eax,%eax
    2833:	0f 8e c2 03 00 00    	jle    2bfb <_qsort+0x3eb>
    2839:	8b 45 e0             	mov    -0x20(%ebp),%eax
    283c:	0b 45 d4             	or     -0x2c(%ebp),%eax
    283f:	c7 45 d8 02 00 00 00 	movl   $0x2,-0x28(%ebp)
    2846:	a8 03                	test   $0x3,%al
    2848:	0f 84 4a 06 00 00    	je     2e98 <_qsort+0x688>
    284e:	83 7d b8 06          	cmpl   $0x6,-0x48(%ebp)
    2852:	0f 86 56 06 00 00    	jbe    2eae <_qsort+0x69e>
    2858:	8b 7d b8             	mov    -0x48(%ebp),%edi
    285b:	8b 55 d4             	mov    -0x2c(%ebp),%edx
    285e:	8b 4d e0             	mov    -0x20(%ebp),%ecx
    2861:	89 f8                	mov    %edi,%eax
    2863:	d1 e8                	shr    %eax
    2865:	89 ce                	mov    %ecx,%esi
    2867:	0f af c2             	imul   %edx,%eax
    286a:	8d 1c 01             	lea    (%ecx,%eax,1),%ebx
    286d:	8d 47 ff             	lea    -0x1(%edi),%eax
    2870:	0f af c2             	imul   %edx,%eax
    2873:	89 45 dc             	mov    %eax,-0x24(%ebp)
    2876:	01 c6                	add    %eax,%esi
    2878:	83 ff 07             	cmp    $0x7,%edi
    287b:	0f 84 27 01 00 00    	je     29a8 <_qsort+0x198>
    2881:	83 ff 28             	cmp    $0x28,%edi
    2884:	0f 86 d6 05 00 00    	jbe    2e60 <_qsort+0x650>
    288a:	c1 ef 03             	shr    $0x3,%edi
    288d:	83 ec 08             	sub    $0x8,%esp
    2890:	89 f8                	mov    %edi,%eax
    2892:	0f af c2             	imul   %edx,%eax
    2895:	89 c7                	mov    %eax,%edi
    2897:	8d 04 41             	lea    (%ecx,%eax,2),%eax
    289a:	8d 14 39             	lea    (%ecx,%edi,1),%edx
    289d:	89 45 d0             	mov    %eax,-0x30(%ebp)
    28a0:	52                   	push   %edx
    28a1:	51                   	push   %ecx
    28a2:	89 55 e4             	mov    %edx,-0x1c(%ebp)
    28a5:	ff 55 08             	call   *0x8(%ebp)
    28a8:	83 c4 10             	add    $0x10,%esp
    28ab:	85 c0                	test   %eax,%eax
    28ad:	0f 88 82 07 00 00    	js     3035 <_qsort+0x825>
    28b3:	83 ec 08             	sub    $0x8,%esp
    28b6:	ff 75 d0             	push   -0x30(%ebp)
    28b9:	ff 75 e4             	push   -0x1c(%ebp)
    28bc:	ff 55 08             	call   *0x8(%ebp)
    28bf:	83 c4 10             	add    $0x10,%esp
    28c2:	85 c0                	test   %eax,%eax
    28c4:	7f 1b                	jg     28e1 <_qsort+0xd1>
    28c6:	83 ec 08             	sub    $0x8,%esp
    28c9:	ff 75 d0             	push   -0x30(%ebp)
    28cc:	ff 75 e0             	push   -0x20(%ebp)
    28cf:	ff 55 08             	call   *0x8(%ebp)
    28d2:	83 c4 10             	add    $0x10,%esp
    28d5:	85 c0                	test   %eax,%eax
    28d7:	8b 45 d0             	mov    -0x30(%ebp),%eax
    28da:	0f 48 45 e0          	cmovs  -0x20(%ebp),%eax
    28de:	89 45 e4             	mov    %eax,-0x1c(%ebp)
    28e1:	8d 04 3b             	lea    (%ebx,%edi,1),%eax
    28e4:	83 ec 08             	sub    $0x8,%esp
    28e7:	89 f9                	mov    %edi,%ecx
    28e9:	89 45 d0             	mov    %eax,-0x30(%ebp)
    28ec:	89 d8                	mov    %ebx,%eax
    28ee:	f7 d9                	neg    %ecx
    28f0:	29 f8                	sub    %edi,%eax
    28f2:	53                   	push   %ebx
    28f3:	50                   	push   %eax
    28f4:	89 c7                	mov    %eax,%edi
    28f6:	89 4d cc             	mov    %ecx,-0x34(%ebp)
    28f9:	89 45 c8             	mov    %eax,-0x38(%ebp)
    28fc:	ff 55 08             	call   *0x8(%ebp)
    28ff:	83 c4 10             	add    $0x10,%esp
    2902:	85 c0                	test   %eax,%eax
    2904:	0f 88 91 07 00 00    	js     309b <_qsort+0x88b>
    290a:	8b 7d d0             	mov    -0x30(%ebp),%edi
    290d:	83 ec 08             	sub    $0x8,%esp
    2910:	57                   	push   %edi
    2911:	53                   	push   %ebx
    2912:	ff 55 08             	call   *0x8(%ebp)
    2915:	83 c4 10             	add    $0x10,%esp
    2918:	85 c0                	test   %eax,%eax
    291a:	7f 15                	jg     2931 <_qsort+0x121>
    291c:	83 ec 08             	sub    $0x8,%esp
    291f:	89 fb                	mov    %edi,%ebx
    2921:	57                   	push   %edi
    2922:	8b 7d c8             	mov    -0x38(%ebp),%edi
    2925:	57                   	push   %edi
    2926:	ff 55 08             	call   *0x8(%ebp)
    2929:	83 c4 10             	add    $0x10,%esp
    292c:	85 c0                	test   %eax,%eax
    292e:	0f 48 df             	cmovs  %edi,%ebx
    2931:	8b 45 cc             	mov    -0x34(%ebp),%eax
    2934:	83 ec 08             	sub    $0x8,%esp
    2937:	8d 3c 06             	lea    (%esi,%eax,1),%edi
    293a:	01 f8                	add    %edi,%eax
    293c:	57                   	push   %edi
    293d:	50                   	push   %eax
    293e:	89 45 d0             	mov    %eax,-0x30(%ebp)
    2941:	ff 55 08             	call   *0x8(%ebp)
    2944:	83 c4 10             	add    $0x10,%esp
    2947:	85 c0                	test   %eax,%eax
    2949:	0f 88 1d 07 00 00    	js     306c <_qsort+0x85c>
    294f:	83 ec 08             	sub    $0x8,%esp
    2952:	56                   	push   %esi
    2953:	57                   	push   %edi
    2954:	ff 55 08             	call   *0x8(%ebp)
    2957:	83 c4 10             	add    $0x10,%esp
    295a:	85 c0                	test   %eax,%eax
    295c:	7f 13                	jg     2971 <_qsort+0x161>
    295e:	8b 7d d0             	mov    -0x30(%ebp),%edi
    2961:	83 ec 08             	sub    $0x8,%esp
    2964:	56                   	push   %esi
    2965:	57                   	push   %edi
    2966:	ff 55 08             	call   *0x8(%ebp)
    2969:	83 c4 10             	add    $0x10,%esp
    296c:	85 c0                	test   %eax,%eax
    296e:	0f 49 fe             	cmovns %esi,%edi
    2971:	83 ec 08             	sub    $0x8,%esp
    2974:	53                   	push   %ebx
    2975:	ff 75 e4             	push   -0x1c(%ebp)
    2978:	ff 55 08             	call   *0x8(%ebp)
    297b:	83 c4 10             	add    $0x10,%esp
    297e:	85 c0                	test   %eax,%eax
    2980:	0f 88 e7 04 00 00    	js     2e6d <_qsort+0x65d>
    2986:	83 ec 08             	sub    $0x8,%esp
    2989:	57                   	push   %edi
    298a:	53                   	push   %ebx
    298b:	ff 55 08             	call   *0x8(%ebp)
    298e:	83 c4 10             	add    $0x10,%esp
    2991:	85 c0                	test   %eax,%eax
    2993:	7f 13                	jg     29a8 <_qsort+0x198>
    2995:	8b 5d e4             	mov    -0x1c(%ebp),%ebx
    2998:	83 ec 08             	sub    $0x8,%esp
    299b:	57                   	push   %edi
    299c:	53                   	push   %ebx
    299d:	ff 55 08             	call   *0x8(%ebp)
    29a0:	83 c4 10             	add    $0x10,%esp
    29a3:	85 c0                	test   %eax,%eax
    29a5:	0f 49 df             	cmovns %edi,%ebx
    29a8:	8b 45 d8             	mov    -0x28(%ebp),%eax
    29ab:	85 c0                	test   %eax,%eax
    29ad:	0f 85 27 03 00 00    	jne    2cda <_qsort+0x4ca>
    29b3:	8b 7d e0             	mov    -0x20(%ebp),%edi
    29b6:	8b 13                	mov    (%ebx),%edx
    29b8:	8b 07                	mov    (%edi),%eax
    29ba:	89 17                	mov    %edx,(%edi)
    29bc:	89 03                	mov    %eax,(%ebx)
    29be:	8b 45 d4             	mov    -0x2c(%ebp),%eax
    29c1:	01 f8                	add    %edi,%eax
    29c3:	89 45 ac             	mov    %eax,-0x54(%ebp)
    29c6:	8b 7d ac             	mov    -0x54(%ebp),%edi
    29c9:	8b 45 dc             	mov    -0x24(%ebp),%eax
    29cc:	03 45 d4             	add    -0x2c(%ebp),%eax
    29cf:	03 45 e0             	add    -0x20(%ebp),%eax
    29d2:	89 7d a8             	mov    %edi,-0x58(%ebp)
    29d5:	89 45 b4             	mov    %eax,-0x4c(%ebp)
    29d8:	39 f7                	cmp    %esi,%edi
    29da:	0f 87 3b 03 00 00    	ja     2d1b <_qsort+0x50b>
    29e0:	8b 4d d4             	mov    -0x2c(%ebp),%ecx
    29e3:	8b 45 b4             	mov    -0x4c(%ebp),%eax
    29e6:	89 75 d0             	mov    %esi,-0x30(%ebp)
    29e9:	29 c8                	sub    %ecx,%eax
    29eb:	89 45 bc             	mov    %eax,-0x44(%ebp)
    29ee:	8b 45 ac             	mov    -0x54(%ebp),%eax
    29f1:	89 c7                	mov    %eax,%edi
    29f3:	89 45 dc             	mov    %eax,-0x24(%ebp)
    29f6:	89 45 c8             	mov    %eax,-0x38(%ebp)
    29f9:	01 cf                	add    %ecx,%edi
    29fb:	89 7d cc             	mov    %edi,-0x34(%ebp)
    29fe:	31 ff                	xor    %edi,%edi
    2a00:	8b 5d dc             	mov    -0x24(%ebp),%ebx
    2a03:	83 ec 08             	sub    $0x8,%esp
    2a06:	ff 75 e0             	push   -0x20(%ebp)
    2a09:	53                   	push   %ebx
    2a0a:	ff 55 08             	call   *0x8(%ebp)
    2a0d:	83 c4 10             	add    $0x10,%esp
    2a10:	85 c0                	test   %eax,%eax
    2a12:	0f 8e 38 02 00 00    	jle    2c50 <_qsort+0x440>
    2a18:	39 f3                	cmp    %esi,%ebx
    2a1a:	0f 87 07 07 00 00    	ja     3127 <_qsort+0x917>
    2a20:	8b 45 d4             	mov    -0x2c(%ebp),%eax
    2a23:	89 5d c0             	mov    %ebx,-0x40(%ebp)
    2a26:	8b 5d d0             	mov    -0x30(%ebp),%ebx
    2a29:	f7 d8                	neg    %eax
    2a2b:	89 45 e4             	mov    %eax,-0x1c(%ebp)
    2a2e:	eb 1c                	jmp    2a4c <_qsort+0x23c>
    2a30:	8b 06                	mov    (%esi),%eax
    2a32:	8b 13                	mov    (%ebx),%edx
    2a34:	89 16                	mov    %edx,(%esi)
    2a36:	89 03                	mov    %eax,(%ebx)
    2a38:	03 5d e4             	add    -0x1c(%ebp),%ebx
    2a3b:	bf 01 00 00 00       	mov    $0x1,%edi
    2a40:	03 75 e4             	add    -0x1c(%ebp),%esi
    2a43:	3b 75 dc             	cmp    -0x24(%ebp),%esi
    2a46:	0f 82 a1 06 00 00    	jb     30ed <_qsort+0x8dd>
    2a4c:	83 ec 08             	sub    $0x8,%esp
    2a4f:	ff 75 e0             	push   -0x20(%ebp)
    2a52:	56                   	push   %esi
    2a53:	ff 55 08             	call   *0x8(%ebp)
    2a56:	83 c4 10             	add    $0x10,%esp
    2a59:	85 c0                	test   %eax,%eax
    2a5b:	78 73                	js     2ad0 <_qsort+0x2c0>
    2a5d:	75 e1                	jne    2a40 <_qsort+0x230>
    2a5f:	8b 45 d8             	mov    -0x28(%ebp),%eax
    2a62:	85 c0                	test   %eax,%eax
    2a64:	74 ca                	je     2a30 <_qsort+0x220>
    2a66:	83 7d d8 01          	cmpl   $0x1,-0x28(%ebp)
    2a6a:	89 da                	mov    %ebx,%edx
    2a6c:	89 f0                	mov    %esi,%eax
    2a6e:	74 30                	je     2aa0 <_qsort+0x290>
    2a70:	8b 7d d4             	mov    -0x2c(%ebp),%edi
    2a73:	89 5d d0             	mov    %ebx,-0x30(%ebp)
    2a76:	01 f7                	add    %esi,%edi
    2a78:	8d b4 26 00 00 00 00 	lea    0x0(%esi,%eiz,1),%esi
    2a7f:	90                   	nop
    2a80:	0f b6 08             	movzbl (%eax),%ecx
    2a83:	0f b6 1a             	movzbl (%edx),%ebx
    2a86:	83 c0 01             	add    $0x1,%eax
    2a89:	83 c2 01             	add    $0x1,%edx
    2a8c:	88 58 ff             	mov    %bl,-0x1(%eax)
    2a8f:	88 4a ff             	mov    %cl,-0x1(%edx)
    2a92:	39 f8                	cmp    %edi,%eax
    2a94:	75 ea                	jne    2a80 <_qsort+0x270>
    2a96:	8b 5d d0             	mov    -0x30(%ebp),%ebx
    2a99:	eb 9d                	jmp    2a38 <_qsort+0x228>
    2a9b:	8d 74 26 00          	lea    0x0(%esi,%eiz,1),%esi
    2a9f:	90                   	nop
    2aa0:	89 5d d0             	mov    %ebx,-0x30(%ebp)
    2aa3:	8b 4d c4             	mov    -0x3c(%ebp),%ecx
    2aa6:	8d b4 26 00 00 00 00 	lea    0x0(%esi,%eiz,1),%esi
    2aad:	8d 76 00             	lea    0x0(%esi),%esi
    2ab0:	8b 38                	mov    (%eax),%edi
    2ab2:	8b 1a                	mov    (%edx),%ebx
    2ab4:	83 c2 04             	add    $0x4,%edx
    2ab7:	83 c0 04             	add    $0x4,%eax
    2aba:	89 58 fc             	mov    %ebx,-0x4(%eax)
    2abd:	89 7a fc             	mov    %edi,-0x4(%edx)
    2ac0:	83 e9 01             	sub    $0x1,%ecx
    2ac3:	75 eb                	jne    2ab0 <_qsort+0x2a0>
    2ac5:	8b 5d d0             	mov    -0x30(%ebp),%ebx
    2ac8:	e9 6b ff ff ff       	jmp    2a38 <_qsort+0x228>
    2acd:	8d 76 00             	lea    0x0(%esi),%esi
    2ad0:	8b 45 d8             	mov    -0x28(%ebp),%eax
    2ad3:	89 5d d0             	mov    %ebx,-0x30(%ebp)
    2ad6:	8b 5d c0             	mov    -0x40(%ebp),%ebx
    2ad9:	85 c0                	test   %eax,%eax
    2adb:	0f 85 3f 01 00 00    	jne    2c20 <_qsort+0x410>
    2ae1:	8b 7d dc             	mov    -0x24(%ebp),%edi
    2ae4:	8b 16                	mov    (%esi),%edx
    2ae6:	8b 07                	mov    (%edi),%eax
    2ae8:	89 17                	mov    %edx,(%edi)
    2aea:	89 06                	mov    %eax,(%esi)
    2aec:	8b 5d cc             	mov    -0x34(%ebp),%ebx
    2aef:	03 75 e4             	add    -0x1c(%ebp),%esi
    2af2:	bf 01 00 00 00       	mov    $0x1,%edi
    2af7:	8b 4d d4             	mov    -0x2c(%ebp),%ecx
    2afa:	01 4d dc             	add    %ecx,-0x24(%ebp)
    2afd:	01 4d cc             	add    %ecx,-0x34(%ebp)
    2b00:	39 de                	cmp    %ebx,%esi
    2b02:	0f 83 f8 fe ff ff    	jae    2a00 <_qsort+0x1f0>
    2b08:	8b 55 d0             	mov    -0x30(%ebp),%edx
    2b0b:	89 d8                	mov    %ebx,%eax
    2b0d:	2b 45 c8             	sub    -0x38(%ebp),%eax
    2b10:	89 45 dc             	mov    %eax,-0x24(%ebp)
    2b13:	89 55 cc             	mov    %edx,-0x34(%ebp)
    2b16:	89 d1                	mov    %edx,%ecx
    2b18:	8b 45 bc             	mov    -0x44(%ebp),%eax
    2b1b:	29 f1                	sub    %esi,%ecx
    2b1d:	89 4d d0             	mov    %ecx,-0x30(%ebp)
    2b20:	29 d0                	sub    %edx,%eax
    2b22:	39 c8                	cmp    %ecx,%eax
    2b24:	89 c2                	mov    %eax,%edx
    2b26:	8b 45 dc             	mov    -0x24(%ebp),%eax
    2b29:	0f 47 d1             	cmova  %ecx,%edx
    2b2c:	89 55 e4             	mov    %edx,-0x1c(%ebp)
    2b2f:	8b 55 c8             	mov    -0x38(%ebp),%edx
    2b32:	2b 55 e0             	sub    -0x20(%ebp),%edx
    2b35:	39 c2                	cmp    %eax,%edx
    2b37:	0f 47 d0             	cmova  %eax,%edx
    2b3a:	85 d2                	test   %edx,%edx
    2b3c:	74 42                	je     2b80 <_qsort+0x370>
    2b3e:	89 d8                	mov    %ebx,%eax
    2b40:	29 d0                	sub    %edx,%eax
    2b42:	83 7d d8 01          	cmpl   $0x1,-0x28(%ebp)
    2b46:	0f 87 13 04 00 00    	ja     2f5f <_qsort+0x74f>
    2b4c:	89 7d c8             	mov    %edi,-0x38(%ebp)
    2b4f:	8b 4d e0             	mov    -0x20(%ebp),%ecx
    2b52:	c1 ea 02             	shr    $0x2,%edx
    2b55:	89 5d c0             	mov    %ebx,-0x40(%ebp)
    2b58:	8b 39                	mov    (%ecx),%edi
    2b5a:	8b 18                	mov    (%eax),%ebx
    2b5c:	83 c0 04             	add    $0x4,%eax
    2b5f:	83 c1 04             	add    $0x4,%ecx
    2b62:	89 59 fc             	mov    %ebx,-0x4(%ecx)
    2b65:	89 78 fc             	mov    %edi,-0x4(%eax)
    2b68:	83 ea 01             	sub    $0x1,%edx
    2b6b:	75 eb                	jne    2b58 <_qsort+0x348>
    2b6d:	8b 7d c8             	mov    -0x38(%ebp),%edi
    2b70:	8b 5d c0             	mov    -0x40(%ebp),%ebx
    2b73:	8d b4 26 00 00 00 00 	lea    0x0(%esi,%eiz,1),%esi
    2b7a:	8d b6 00 00 00 00    	lea    0x0(%esi),%esi
    2b80:	8b 45 e4             	mov    -0x1c(%ebp),%eax
    2b83:	85 c0                	test   %eax,%eax
    2b85:	74 32                	je     2bb9 <_qsort+0x3a9>
    2b87:	8b 4d d8             	mov    -0x28(%ebp),%ecx
    2b8a:	8b 45 b4             	mov    -0x4c(%ebp),%eax
    2b8d:	2b 45 e4             	sub    -0x1c(%ebp),%eax
    2b90:	85 c9                	test   %ecx,%ecx
    2b92:	0f 85 3b 04 00 00    	jne    2fd3 <_qsort+0x7c3>
    2b98:	8b 4d e4             	mov    -0x1c(%ebp),%ecx
    2b9b:	89 75 e4             	mov    %esi,-0x1c(%ebp)
    2b9e:	c1 e9 02             	shr    $0x2,%ecx
    2ba1:	8b 13                	mov    (%ebx),%edx
    2ba3:	8b 30                	mov    (%eax),%esi
    2ba5:	83 c0 04             	add    $0x4,%eax
    2ba8:	83 c3 04             	add    $0x4,%ebx
    2bab:	89 73 fc             	mov    %esi,-0x4(%ebx)
    2bae:	89 50 fc             	mov    %edx,-0x4(%eax)
    2bb1:	83 e9 01             	sub    $0x1,%ecx
    2bb4:	75 eb                	jne    2ba1 <_qsort+0x391>
    2bb6:	8b 75 e4             	mov    -0x1c(%ebp),%esi
    2bb9:	85 ff                	test   %edi,%edi
    2bbb:	0f 84 6b 01 00 00    	je     2d2c <_qsort+0x51c>
    2bc1:	8b 7d dc             	mov    -0x24(%ebp),%edi
    2bc4:	39 7d d4             	cmp    %edi,-0x2c(%ebp)
    2bc7:	0f 82 27 02 00 00    	jb     2df4 <_qsort+0x5e4>
    2bcd:	8b 7d d0             	mov    -0x30(%ebp),%edi
    2bd0:	8b 4d d4             	mov    -0x2c(%ebp),%ecx
    2bd3:	39 cf                	cmp    %ecx,%edi
    2bd5:	76 38                	jbe    2c0f <_qsort+0x3ff>
    2bd7:	89 f0                	mov    %esi,%eax
    2bd9:	2b 45 cc             	sub    -0x34(%ebp),%eax
    2bdc:	03 45 b4             	add    -0x4c(%ebp),%eax
    2bdf:	31 d2                	xor    %edx,%edx
    2be1:	89 45 e0             	mov    %eax,-0x20(%ebp)
    2be4:	89 f8                	mov    %edi,%eax
    2be6:	f7 f1                	div    %ecx
    2be8:	83 6d b0 01          	subl   $0x1,-0x50(%ebp)
    2bec:	89 45 b8             	mov    %eax,-0x48(%ebp)
    2bef:	8b 45 b0             	mov    -0x50(%ebp),%eax
    2bf2:	83 f8 ff             	cmp    $0xffffffff,%eax
    2bf5:	0f 85 3e fc ff ff    	jne    2839 <_qsort+0x29>
    2bfb:	ff 75 08             	push   0x8(%ebp)
    2bfe:	ff 75 d4             	push   -0x2c(%ebp)
    2c01:	ff 75 b8             	push   -0x48(%ebp)
    2c04:	ff 75 e0             	push   -0x20(%ebp)
    2c07:	e8 fc ff ff ff       	call   2c08 <_qsort+0x3f8>
			2c08: R_386_PC32	heapsort
    2c0c:	83 c4 10             	add    $0x10,%esp
    2c0f:	8d 65 f4             	lea    -0xc(%ebp),%esp
    2c12:	5b                   	pop    %ebx
    2c13:	5e                   	pop    %esi
    2c14:	5f                   	pop    %edi
    2c15:	5d                   	pop    %ebp
    2c16:	c3                   	ret    
    2c17:	8d b4 26 00 00 00 00 	lea    0x0(%esi,%eiz,1),%esi
    2c1e:	66 90                	xchg   %ax,%ax
    2c20:	83 7d d8 01          	cmpl   $0x1,-0x28(%ebp)
    2c24:	8b 7d cc             	mov    -0x34(%ebp),%edi
    2c27:	89 f0                	mov    %esi,%eax
    2c29:	74 55                	je     2c80 <_qsort+0x470>
    2c2b:	8d 74 26 00          	lea    0x0(%esi,%eiz,1),%esi
    2c2f:	90                   	nop
    2c30:	0f b6 13             	movzbl (%ebx),%edx
    2c33:	0f b6 08             	movzbl (%eax),%ecx
    2c36:	83 c3 01             	add    $0x1,%ebx
    2c39:	83 c0 01             	add    $0x1,%eax
    2c3c:	88 4b ff             	mov    %cl,-0x1(%ebx)
    2c3f:	88 50 ff             	mov    %dl,-0x1(%eax)
    2c42:	39 fb                	cmp    %edi,%ebx
    2c44:	75 ea                	jne    2c30 <_qsort+0x420>
    2c46:	e9 a1 fe ff ff       	jmp    2aec <_qsort+0x2dc>
    2c4b:	8d 74 26 00          	lea    0x0(%esi,%eiz,1),%esi
    2c4f:	90                   	nop
    2c50:	75 23                	jne    2c75 <_qsort+0x465>
    2c52:	8b 45 d8             	mov    -0x28(%ebp),%eax
    2c55:	85 c0                	test   %eax,%eax
    2c57:	75 51                	jne    2caa <_qsort+0x49a>
    2c59:	8b 7d c8             	mov    -0x38(%ebp),%edi
    2c5c:	8b 4d dc             	mov    -0x24(%ebp),%ecx
    2c5f:	8b 07                	mov    (%edi),%eax
    2c61:	8b 11                	mov    (%ecx),%edx
    2c63:	89 17                	mov    %edx,(%edi)
    2c65:	89 01                	mov    %eax,(%ecx)
    2c67:	8b 45 d4             	mov    -0x2c(%ebp),%eax
    2c6a:	8d 0c 07             	lea    (%edi,%eax,1),%ecx
    2c6d:	89 4d c8             	mov    %ecx,-0x38(%ebp)
    2c70:	bf 01 00 00 00       	mov    $0x1,%edi
    2c75:	8b 5d cc             	mov    -0x34(%ebp),%ebx
    2c78:	e9 7a fe ff ff       	jmp    2af7 <_qsort+0x2e7>
    2c7d:	8d 76 00             	lea    0x0(%esi),%esi
    2c80:	8b 55 c4             	mov    -0x3c(%ebp),%edx
    2c83:	8d b4 26 00 00 00 00 	lea    0x0(%esi,%eiz,1),%esi
    2c8a:	8d b6 00 00 00 00    	lea    0x0(%esi),%esi
    2c90:	8b 0b                	mov    (%ebx),%ecx
    2c92:	8b 38                	mov    (%eax),%edi
    2c94:	83 c0 04             	add    $0x4,%eax
    2c97:	83 c3 04             	add    $0x4,%ebx
    2c9a:	89 7b fc             	mov    %edi,-0x4(%ebx)
    2c9d:	89 48 fc             	mov    %ecx,-0x4(%eax)
    2ca0:	83 ea 01             	sub    $0x1,%edx
    2ca3:	75 eb                	jne    2c90 <_qsort+0x480>
    2ca5:	e9 42 fe ff ff       	jmp    2aec <_qsort+0x2dc>
    2caa:	8b 45 c8             	mov    -0x38(%ebp),%eax
    2cad:	8b 4d d4             	mov    -0x2c(%ebp),%ecx
    2cb0:	01 c1                	add    %eax,%ecx
    2cb2:	83 7d d8 01          	cmpl   $0x1,-0x28(%ebp)
    2cb6:	89 cf                	mov    %ecx,%edi
    2cb8:	0f 84 de 02 00 00    	je     2f9c <_qsort+0x78c>
    2cbe:	66 90                	xchg   %ax,%ax
    2cc0:	0f b6 10             	movzbl (%eax),%edx
    2cc3:	0f b6 0b             	movzbl (%ebx),%ecx
    2cc6:	83 c0 01             	add    $0x1,%eax
    2cc9:	83 c3 01             	add    $0x1,%ebx
    2ccc:	88 48 ff             	mov    %cl,-0x1(%eax)
    2ccf:	88 53 ff             	mov    %dl,-0x1(%ebx)
    2cd2:	39 c7                	cmp    %eax,%edi
    2cd4:	75 ea                	jne    2cc0 <_qsort+0x4b0>
    2cd6:	89 f9                	mov    %edi,%ecx
    2cd8:	eb 93                	jmp    2c6d <_qsort+0x45d>
    2cda:	8b 45 e0             	mov    -0x20(%ebp),%eax
    2cdd:	8b 7d d4             	mov    -0x2c(%ebp),%edi
    2ce0:	01 c7                	add    %eax,%edi
    2ce2:	83 7d d8 01          	cmpl   $0x1,-0x28(%ebp)
    2ce6:	89 7d ac             	mov    %edi,-0x54(%ebp)
    2ce9:	8b 7d ac             	mov    -0x54(%ebp),%edi
    2cec:	0f 84 1a 03 00 00    	je     300c <_qsort+0x7fc>
    2cf2:	8d b4 26 00 00 00 00 	lea    0x0(%esi,%eiz,1),%esi
    2cf9:	8d b4 26 00 00 00 00 	lea    0x0(%esi,%eiz,1),%esi
    2d00:	0f b6 10             	movzbl (%eax),%edx
    2d03:	0f b6 0b             	movzbl (%ebx),%ecx
    2d06:	83 c0 01             	add    $0x1,%eax
    2d09:	83 c3 01             	add    $0x1,%ebx
    2d0c:	88 48 ff             	mov    %cl,-0x1(%eax)
    2d0f:	88 53 ff             	mov    %dl,-0x1(%ebx)
    2d12:	39 f8                	cmp    %edi,%eax
    2d14:	75 ea                	jne    2d00 <_qsort+0x4f0>
    2d16:	e9 ab fc ff ff       	jmp    29c6 <_qsort+0x1b6>
    2d1b:	89 75 cc             	mov    %esi,-0x34(%ebp)
    2d1e:	c7 45 dc 00 00 00 00 	movl   $0x0,-0x24(%ebp)
    2d25:	c7 45 d0 00 00 00 00 	movl   $0x0,-0x30(%ebp)
    2d2c:	8b 45 b8             	mov    -0x48(%ebp),%eax
    2d2f:	8b 7d b4             	mov    -0x4c(%ebp),%edi
    2d32:	c1 e8 02             	shr    $0x2,%eax
    2d35:	83 c0 01             	add    $0x1,%eax
    2d38:	89 45 c0             	mov    %eax,-0x40(%ebp)
    2d3b:	39 7d ac             	cmp    %edi,-0x54(%ebp)
    2d3e:	0f 83 cb fe ff ff    	jae    2c0f <_qsort+0x3ff>
    2d44:	8b 45 d4             	mov    -0x2c(%ebp),%eax
    2d47:	8b 5d a8             	mov    -0x58(%ebp),%ebx
    2d4a:	c7 45 e4 00 00 00 00 	movl   $0x0,-0x1c(%ebp)
    2d51:	89 75 ac             	mov    %esi,-0x54(%ebp)
    2d54:	f7 d8                	neg    %eax
    2d56:	89 45 c8             	mov    %eax,-0x38(%ebp)
    2d59:	8b 45 d4             	mov    -0x2c(%ebp),%eax
    2d5c:	01 d8                	add    %ebx,%eax
    2d5e:	89 45 b8             	mov    %eax,-0x48(%ebp)
    2d61:	89 c7                	mov    %eax,%edi
    2d63:	eb 29                	jmp    2d8e <_qsort+0x57e>
    2d65:	8d b4 26 00 00 00 00 	lea    0x0(%esi,%eiz,1),%esi
    2d6c:	8d 74 26 00          	lea    0x0(%esi,%eiz,1),%esi
    2d70:	8b 4d d4             	mov    -0x2c(%ebp),%ecx
    2d73:	8b 16                	mov    (%esi),%edx
    2d75:	8b 04 0e             	mov    (%esi,%ecx,1),%eax
    2d78:	89 14 0e             	mov    %edx,(%esi,%ecx,1)
    2d7b:	89 06                	mov    %eax,(%esi)
    2d7d:	83 45 e4 01          	addl   $0x1,-0x1c(%ebp)
    2d81:	2b 7d d4             	sub    -0x2c(%ebp),%edi
    2d84:	8b 45 e4             	mov    -0x1c(%ebp),%eax
    2d87:	39 45 c0             	cmp    %eax,-0x40(%ebp)
    2d8a:	72 59                	jb     2de5 <_qsort+0x5d5>
    2d8c:	89 f3                	mov    %esi,%ebx
    2d8e:	3b 5d e0             	cmp    -0x20(%ebp),%ebx
    2d91:	0f 86 a6 00 00 00    	jbe    2e3d <_qsort+0x62d>
    2d97:	8b 45 c8             	mov    -0x38(%ebp),%eax
    2d9a:	83 ec 08             	sub    $0x8,%esp
    2d9d:	53                   	push   %ebx
    2d9e:	8d 34 03             	lea    (%ebx,%eax,1),%esi
    2da1:	56                   	push   %esi
    2da2:	ff 55 08             	call   *0x8(%ebp)
    2da5:	83 c4 10             	add    $0x10,%esp
    2da8:	85 c0                	test   %eax,%eax
    2daa:	0f 8e 8d 00 00 00    	jle    2e3d <_qsort+0x62d>
    2db0:	8b 55 d8             	mov    -0x28(%ebp),%edx
    2db3:	85 d2                	test   %edx,%edx
    2db5:	74 b9                	je     2d70 <_qsort+0x560>
    2db7:	83 7d d8 01          	cmpl   $0x1,-0x28(%ebp)
    2dbb:	89 f0                	mov    %esi,%eax
    2dbd:	74 59                	je     2e18 <_qsort+0x608>
    2dbf:	90                   	nop
    2dc0:	0f b6 13             	movzbl (%ebx),%edx
    2dc3:	0f b6 08             	movzbl (%eax),%ecx
    2dc6:	83 c3 01             	add    $0x1,%ebx
    2dc9:	83 c0 01             	add    $0x1,%eax
    2dcc:	88 4b ff             	mov    %cl,-0x1(%ebx)
    2dcf:	88 50 ff             	mov    %dl,-0x1(%eax)
    2dd2:	39 fb                	cmp    %edi,%ebx
    2dd4:	75 ea                	jne    2dc0 <_qsort+0x5b0>
    2dd6:	83 45 e4 01          	addl   $0x1,-0x1c(%ebp)
    2dda:	2b 7d d4             	sub    -0x2c(%ebp),%edi
    2ddd:	8b 45 e4             	mov    -0x1c(%ebp),%eax
    2de0:	39 45 c0             	cmp    %eax,-0x40(%ebp)
    2de3:	73 a7                	jae    2d8c <_qsort+0x57c>
    2de5:	8b 75 ac             	mov    -0x54(%ebp),%esi
    2de8:	8b 7d dc             	mov    -0x24(%ebp),%edi
    2deb:	39 7d d4             	cmp    %edi,-0x2c(%ebp)
    2dee:	0f 83 d9 fd ff ff    	jae    2bcd <_qsort+0x3bd>
    2df4:	8b 4d d4             	mov    -0x2c(%ebp),%ecx
    2df7:	89 f8                	mov    %edi,%eax
    2df9:	31 d2                	xor    %edx,%edx
    2dfb:	83 ec 08             	sub    $0x8,%esp
    2dfe:	ff 75 b0             	push   -0x50(%ebp)
    2e01:	f7 f1                	div    %ecx
    2e03:	ff 75 08             	push   0x8(%ebp)
    2e06:	89 c2                	mov    %eax,%edx
    2e08:	8b 45 e0             	mov    -0x20(%ebp),%eax
    2e0b:	e8 00 fa ff ff       	call   2810 <_qsort>
    2e10:	83 c4 10             	add    $0x10,%esp
    2e13:	e9 b5 fd ff ff       	jmp    2bcd <_qsort+0x3bd>
    2e18:	89 75 bc             	mov    %esi,-0x44(%ebp)
    2e1b:	8b 55 c4             	mov    -0x3c(%ebp),%edx
    2e1e:	66 90                	xchg   %ax,%ax
    2e20:	8b 0b                	mov    (%ebx),%ecx
    2e22:	8b 30                	mov    (%eax),%esi
    2e24:	83 c0 04             	add    $0x4,%eax
    2e27:	83 c3 04             	add    $0x4,%ebx
    2e2a:	89 73 fc             	mov    %esi,-0x4(%ebx)
    2e2d:	89 48 fc             	mov    %ecx,-0x4(%eax)
    2e30:	83 ea 01             	sub    $0x1,%edx
    2e33:	75 eb                	jne    2e20 <_qsort+0x610>
    2e35:	8b 75 bc             	mov    -0x44(%ebp),%esi
    2e38:	e9 40 ff ff ff       	jmp    2d7d <_qsort+0x56d>
    2e3d:	8b 5d b8             	mov    -0x48(%ebp),%ebx
    2e40:	3b 5d b4             	cmp    -0x4c(%ebp),%ebx
    2e43:	0f 82 10 ff ff ff    	jb     2d59 <_qsort+0x549>
    2e49:	8d 65 f4             	lea    -0xc(%ebp),%esp
    2e4c:	5b                   	pop    %ebx
    2e4d:	5e                   	pop    %esi
    2e4e:	5f                   	pop    %edi
    2e4f:	5d                   	pop    %ebp
    2e50:	c3                   	ret    
    2e51:	8d b4 26 00 00 00 00 	lea    0x0(%esi,%eiz,1),%esi
    2e58:	8d b4 26 00 00 00 00 	lea    0x0(%esi,%eiz,1),%esi
    2e5f:	90                   	nop
    2e60:	8b 45 e0             	mov    -0x20(%ebp),%eax
    2e63:	89 f7                	mov    %esi,%edi
    2e65:	89 45 e4             	mov    %eax,-0x1c(%ebp)
    2e68:	e9 04 fb ff ff       	jmp    2971 <_qsort+0x161>
    2e6d:	83 ec 08             	sub    $0x8,%esp
    2e70:	57                   	push   %edi
    2e71:	53                   	push   %ebx
    2e72:	ff 55 08             	call   *0x8(%ebp)
    2e75:	83 c4 10             	add    $0x10,%esp
    2e78:	85 c0                	test   %eax,%eax
    2e7a:	0f 88 28 fb ff ff    	js     29a8 <_qsort+0x198>
    2e80:	8b 5d e4             	mov    -0x1c(%ebp),%ebx
    2e83:	83 ec 08             	sub    $0x8,%esp
    2e86:	57                   	push   %edi
    2e87:	53                   	push   %ebx
    2e88:	ff 55 08             	call   *0x8(%ebp)
    2e8b:	83 c4 10             	add    $0x10,%esp
    2e8e:	85 c0                	test   %eax,%eax
    2e90:	0f 48 df             	cmovs  %edi,%ebx
    2e93:	e9 10 fb ff ff       	jmp    29a8 <_qsort+0x198>
    2e98:	31 c0                	xor    %eax,%eax
    2e9a:	83 7d d4 04          	cmpl   $0x4,-0x2c(%ebp)
    2e9e:	0f 95 c0             	setne  %al
    2ea1:	83 7d b8 06          	cmpl   $0x6,-0x48(%ebp)
    2ea5:	89 45 d8             	mov    %eax,-0x28(%ebp)
    2ea8:	0f 87 aa f9 ff ff    	ja     2858 <_qsort+0x48>
    2eae:	8b 4d d4             	mov    -0x2c(%ebp),%ecx
    2eb1:	8b 45 b8             	mov    -0x48(%ebp),%eax
    2eb4:	8b 7d e0             	mov    -0x20(%ebp),%edi
    2eb7:	0f af c1             	imul   %ecx,%eax
    2eba:	89 fe                	mov    %edi,%esi
    2ebc:	01 ce                	add    %ecx,%esi
    2ebe:	01 f8                	add    %edi,%eax
    2ec0:	89 cf                	mov    %ecx,%edi
    2ec2:	89 75 d0             	mov    %esi,-0x30(%ebp)
    2ec5:	89 45 cc             	mov    %eax,-0x34(%ebp)
    2ec8:	f7 df                	neg    %edi
    2eca:	39 c6                	cmp    %eax,%esi
    2ecc:	0f 83 3d fd ff ff    	jae    2c0f <_qsort+0x3ff>
    2ed2:	89 7d dc             	mov    %edi,-0x24(%ebp)
    2ed5:	8b 7d d4             	mov    -0x2c(%ebp),%edi
    2ed8:	8b 45 d0             	mov    -0x30(%ebp),%eax
    2edb:	39 45 e0             	cmp    %eax,-0x20(%ebp)
    2ede:	73 6c                	jae    2f4c <_qsort+0x73c>
    2ee0:	89 c6                	mov    %eax,%esi
    2ee2:	eb 1e                	jmp    2f02 <_qsort+0x6f2>
    2ee4:	8d b4 26 00 00 00 00 	lea    0x0(%esi,%eiz,1),%esi
    2eeb:	8d 74 26 00          	lea    0x0(%esi,%eiz,1),%esi
    2eef:	90                   	nop
    2ef0:	8b 4d dc             	mov    -0x24(%ebp),%ecx
    2ef3:	8b 03                	mov    (%ebx),%eax
    2ef5:	8b 14 0b             	mov    (%ebx,%ecx,1),%edx
    2ef8:	89 13                	mov    %edx,(%ebx)
    2efa:	89 04 0b             	mov    %eax,(%ebx,%ecx,1)
    2efd:	3b 75 e0             	cmp    -0x20(%ebp),%esi
    2f00:	76 4a                	jbe    2f4c <_qsort+0x73c>
    2f02:	83 ec 08             	sub    $0x8,%esp
    2f05:	89 f3                	mov    %esi,%ebx
    2f07:	29 fe                	sub    %edi,%esi
    2f09:	53                   	push   %ebx
    2f0a:	56                   	push   %esi
    2f0b:	ff 55 08             	call   *0x8(%ebp)
    2f0e:	83 c4 10             	add    $0x10,%esp
    2f11:	85 c0                	test   %eax,%eax
    2f13:	7e 37                	jle    2f4c <_qsort+0x73c>
    2f15:	8b 45 d8             	mov    -0x28(%ebp),%eax
    2f18:	85 c0                	test   %eax,%eax
    2f1a:	74 d4                	je     2ef0 <_qsort+0x6e0>
    2f1c:	83 7d d8 01          	cmpl   $0x1,-0x28(%ebp)
    2f20:	89 f0                	mov    %esi,%eax
    2f22:	8d 0c 1f             	lea    (%edi,%ebx,1),%ecx
    2f25:	0f 84 9f 01 00 00    	je     30ca <_qsort+0x8ba>
    2f2b:	89 4d e4             	mov    %ecx,-0x1c(%ebp)
    2f2e:	66 90                	xchg   %ax,%ax
    2f30:	0f b6 13             	movzbl (%ebx),%edx
    2f33:	0f b6 08             	movzbl (%eax),%ecx
    2f36:	83 c0 01             	add    $0x1,%eax
    2f39:	83 c3 01             	add    $0x1,%ebx
    2f3c:	88 4b ff             	mov    %cl,-0x1(%ebx)
    2f3f:	88 50 ff             	mov    %dl,-0x1(%eax)
    2f42:	3b 5d e4             	cmp    -0x1c(%ebp),%ebx
    2f45:	75 e9                	jne    2f30 <_qsort+0x720>
    2f47:	3b 75 e0             	cmp    -0x20(%ebp),%esi
    2f4a:	77 b6                	ja     2f02 <_qsort+0x6f2>
    2f4c:	01 7d d0             	add    %edi,-0x30(%ebp)
    2f4f:	8b 45 d0             	mov    -0x30(%ebp),%eax
    2f52:	3b 45 cc             	cmp    -0x34(%ebp),%eax
    2f55:	72 81                	jb     2ed8 <_qsort+0x6c8>
    2f57:	8d 65 f4             	lea    -0xc(%ebp),%esp
    2f5a:	5b                   	pop    %ebx
    2f5b:	5e                   	pop    %esi
    2f5c:	5f                   	pop    %edi
    2f5d:	5d                   	pop    %ebp
    2f5e:	c3                   	ret    
    2f5f:	89 d1                	mov    %edx,%ecx
    2f61:	8b 55 e0             	mov    -0x20(%ebp),%edx
    2f64:	89 5d c0             	mov    %ebx,-0x40(%ebp)
    2f67:	01 d1                	add    %edx,%ecx
    2f69:	89 4d c8             	mov    %ecx,-0x38(%ebp)
    2f6c:	8d 74 26 00          	lea    0x0(%esi,%eiz,1),%esi
    2f70:	0f b6 0a             	movzbl (%edx),%ecx
    2f73:	0f b6 18             	movzbl (%eax),%ebx
    2f76:	83 c0 01             	add    $0x1,%eax
    2f79:	83 c2 01             	add    $0x1,%edx
    2f7c:	88 5a ff             	mov    %bl,-0x1(%edx)
    2f7f:	88 48 ff             	mov    %cl,-0x1(%eax)
    2f82:	39 55 c8             	cmp    %edx,-0x38(%ebp)
    2f85:	75 e9                	jne    2f70 <_qsort+0x760>
    2f87:	8b 4d e4             	mov    -0x1c(%ebp),%ecx
    2f8a:	8b 5d c0             	mov    -0x40(%ebp),%ebx
    2f8d:	85 c9                	test   %ecx,%ecx
    2f8f:	0f 84 24 fc ff ff    	je     2bb9 <_qsort+0x3a9>
    2f95:	8b 45 b4             	mov    -0x4c(%ebp),%eax
    2f98:	29 c8                	sub    %ecx,%eax
    2f9a:	eb 41                	jmp    2fdd <_qsort+0x7cd>
    2f9c:	8b 4d c4             	mov    -0x3c(%ebp),%ecx
    2f9f:	89 c2                	mov    %eax,%edx
    2fa1:	8d b4 26 00 00 00 00 	lea    0x0(%esi,%eiz,1),%esi
    2fa8:	8d b4 26 00 00 00 00 	lea    0x0(%esi,%eiz,1),%esi
    2faf:	90                   	nop
    2fb0:	8b 02                	mov    (%edx),%eax
    2fb2:	8b 3b                	mov    (%ebx),%edi
    2fb4:	83 c3 04             	add    $0x4,%ebx
    2fb7:	83 c2 04             	add    $0x4,%edx
    2fba:	89 7a fc             	mov    %edi,-0x4(%edx)
    2fbd:	89 43 fc             	mov    %eax,-0x4(%ebx)
    2fc0:	83 e9 01             	sub    $0x1,%ecx
    2fc3:	75 eb                	jne    2fb0 <_qsort+0x7a0>
    2fc5:	8b 45 c8             	mov    -0x38(%ebp),%eax
    2fc8:	8b 7d d4             	mov    -0x2c(%ebp),%edi
    2fcb:	8d 0c 38             	lea    (%eax,%edi,1),%ecx
    2fce:	e9 9a fc ff ff       	jmp    2c6d <_qsort+0x45d>
    2fd3:	83 7d d8 01          	cmpl   $0x1,-0x28(%ebp)
    2fd7:	0f 84 bb fb ff ff    	je     2b98 <_qsort+0x388>
    2fdd:	8b 4d e4             	mov    -0x1c(%ebp),%ecx
    2fe0:	01 d9                	add    %ebx,%ecx
    2fe2:	89 4d e4             	mov    %ecx,-0x1c(%ebp)
    2fe5:	8d b4 26 00 00 00 00 	lea    0x0(%esi,%eiz,1),%esi
    2fec:	8d 74 26 00          	lea    0x0(%esi,%eiz,1),%esi
    2ff0:	0f b6 13             	movzbl (%ebx),%edx
    2ff3:	0f b6 08             	movzbl (%eax),%ecx
    2ff6:	83 c0 01             	add    $0x1,%eax
    2ff9:	83 c3 01             	add    $0x1,%ebx
    2ffc:	88 4b ff             	mov    %cl,-0x1(%ebx)
    2fff:	88 50 ff             	mov    %dl,-0x1(%eax)
    3002:	39 5d e4             	cmp    %ebx,-0x1c(%ebp)
    3005:	75 e9                	jne    2ff0 <_qsort+0x7e0>
    3007:	e9 ad fb ff ff       	jmp    2bb9 <_qsort+0x3a9>
    300c:	8b 55 c4             	mov    -0x3c(%ebp),%edx
    300f:	90                   	nop
    3010:	8b 08                	mov    (%eax),%ecx
    3012:	8b 3b                	mov    (%ebx),%edi
    3014:	83 c3 04             	add    $0x4,%ebx
    3017:	83 c0 04             	add    $0x4,%eax
    301a:	89 78 fc             	mov    %edi,-0x4(%eax)
    301d:	89 4b fc             	mov    %ecx,-0x4(%ebx)
    3020:	83 ea 01             	sub    $0x1,%edx
    3023:	75 eb                	jne    3010 <_qsort+0x800>
    3025:	8b 45 e0             	mov    -0x20(%ebp),%eax
    3028:	8b 7d d4             	mov    -0x2c(%ebp),%edi
    302b:	01 f8                	add    %edi,%eax
    302d:	89 45 ac             	mov    %eax,-0x54(%ebp)
    3030:	e9 91 f9 ff ff       	jmp    29c6 <_qsort+0x1b6>
    3035:	83 ec 08             	sub    $0x8,%esp
    3038:	ff 75 d0             	push   -0x30(%ebp)
    303b:	ff 75 e4             	push   -0x1c(%ebp)
    303e:	ff 55 08             	call   *0x8(%ebp)
    3041:	83 c4 10             	add    $0x10,%esp
    3044:	85 c0                	test   %eax,%eax
    3046:	0f 88 95 f8 ff ff    	js     28e1 <_qsort+0xd1>
    304c:	83 ec 08             	sub    $0x8,%esp
    304f:	ff 75 d0             	push   -0x30(%ebp)
    3052:	ff 75 e0             	push   -0x20(%ebp)
    3055:	ff 55 08             	call   *0x8(%ebp)
    3058:	83 c4 10             	add    $0x10,%esp
    305b:	85 c0                	test   %eax,%eax
    305d:	8b 45 d0             	mov    -0x30(%ebp),%eax
    3060:	0f 49 45 e0          	cmovns -0x20(%ebp),%eax
    3064:	89 45 e4             	mov    %eax,-0x1c(%ebp)
    3067:	e9 75 f8 ff ff       	jmp    28e1 <_qsort+0xd1>
    306c:	83 ec 08             	sub    $0x8,%esp
    306f:	56                   	push   %esi
    3070:	57                   	push   %edi
    3071:	ff 55 08             	call   *0x8(%ebp)
    3074:	83 c4 10             	add    $0x10,%esp
    3077:	85 c0                	test   %eax,%eax
    3079:	0f 88 f2 f8 ff ff    	js     2971 <_qsort+0x161>
    307f:	8b 7d d0             	mov    -0x30(%ebp),%edi
    3082:	83 ec 08             	sub    $0x8,%esp
    3085:	56                   	push   %esi
    3086:	57                   	push   %edi
    3087:	ff 55 08             	call   *0x8(%ebp)
    308a:	83 c4 10             	add    $0x10,%esp
    308d:	85 c0                	test   %eax,%eax
    308f:	89 f8                	mov    %edi,%eax
    3091:	0f 48 c6             	cmovs  %esi,%eax
    3094:	89 c7                	mov    %eax,%edi
    3096:	e9 d6 f8 ff ff       	jmp    2971 <_qsort+0x161>
    309b:	83 ec 08             	sub    $0x8,%esp
    309e:	ff 75 d0             	push   -0x30(%ebp)
    30a1:	53                   	push   %ebx
    30a2:	ff 55 08             	call   *0x8(%ebp)
    30a5:	83 c4 10             	add    $0x10,%esp
    30a8:	85 c0                	test   %eax,%eax
    30aa:	0f 88 81 f8 ff ff    	js     2931 <_qsort+0x121>
    30b0:	8b 5d d0             	mov    -0x30(%ebp),%ebx
    30b3:	83 ec 08             	sub    $0x8,%esp
    30b6:	53                   	push   %ebx
    30b7:	57                   	push   %edi
    30b8:	ff 55 08             	call   *0x8(%ebp)
    30bb:	83 c4 10             	add    $0x10,%esp
    30be:	85 c0                	test   %eax,%eax
    30c0:	0f 48 fb             	cmovs  %ebx,%edi
    30c3:	89 fb                	mov    %edi,%ebx
    30c5:	e9 67 f8 ff ff       	jmp    2931 <_qsort+0x121>
    30ca:	89 75 e4             	mov    %esi,-0x1c(%ebp)
    30cd:	8b 55 c4             	mov    -0x3c(%ebp),%edx
    30d0:	8b 0b                	mov    (%ebx),%ecx
    30d2:	8b 30                	mov    (%eax),%esi
    30d4:	83 c0 04             	add    $0x4,%eax
    30d7:	83 c3 04             	add    $0x4,%ebx
    30da:	89 73 fc             	mov    %esi,-0x4(%ebx)
    30dd:	89 48 fc             	mov    %ecx,-0x4(%eax)
    30e0:	83 ea 01             	sub    $0x1,%edx
    30e3:	75 eb                	jne    30d0 <_qsort+0x8c0>
    30e5:	8b 75 e4             	mov    -0x1c(%ebp),%esi
    30e8:	e9 10 fe ff ff       	jmp    2efd <_qsort+0x6ed>
    30ed:	89 d8                	mov    %ebx,%eax
    30ef:	8b 4d dc             	mov    -0x24(%ebp),%ecx
    30f2:	2b 4d c8             	sub    -0x38(%ebp),%ecx
    30f5:	89 c2                	mov    %eax,%edx
    30f7:	89 45 cc             	mov    %eax,-0x34(%ebp)
    30fa:	29 f0                	sub    %esi,%eax
    30fc:	8b 5d c0             	mov    -0x40(%ebp),%ebx
    30ff:	89 4d dc             	mov    %ecx,-0x24(%ebp)
    3102:	89 c1                	mov    %eax,%ecx
    3104:	89 45 d0             	mov    %eax,-0x30(%ebp)
    3107:	8b 45 bc             	mov    -0x44(%ebp),%eax
    310a:	29 d0                	sub    %edx,%eax
    310c:	8b 55 c8             	mov    -0x38(%ebp),%edx
    310f:	39 c8                	cmp    %ecx,%eax
    3111:	0f 47 c1             	cmova  %ecx,%eax
    3114:	8b 4d dc             	mov    -0x24(%ebp),%ecx
    3117:	2b 55 e0             	sub    -0x20(%ebp),%edx
    311a:	39 ca                	cmp    %ecx,%edx
    311c:	89 45 e4             	mov    %eax,-0x1c(%ebp)
    311f:	0f 47 d1             	cmova  %ecx,%edx
    3122:	e9 13 fa ff ff       	jmp    2b3a <_qsort+0x32a>
    3127:	8b 4d d0             	mov    -0x30(%ebp),%ecx
    312a:	89 d8                	mov    %ebx,%eax
    312c:	2b 45 c8             	sub    -0x38(%ebp),%eax
    312f:	89 45 dc             	mov    %eax,-0x24(%ebp)
    3132:	89 4d cc             	mov    %ecx,-0x34(%ebp)
    3135:	89 ca                	mov    %ecx,%edx
    3137:	e9 dc f9 ff ff       	jmp    2b18 <_qsort+0x308>
    313c:	8d 74 26 00          	lea    0x0(%esi,%eiz,1),%esi

00003140 <qsort>:
    3140:	55                   	push   %ebp
    3141:	89 e5                	mov    %esp,%ebp
    3143:	57                   	push   %edi
    3144:	56                   	push   %esi
    3145:	53                   	push   %ebx
    3146:	83 ec 28             	sub    $0x28,%esp
    3149:	8b 5d 0c             	mov    0xc(%ebp),%ebx
    314c:	8b 55 14             	mov    0x14(%ebp),%edx
    314f:	8b 75 08             	mov    0x8(%ebp),%esi
    3152:	8b 7d 10             	mov    0x10(%ebp),%edi
    3155:	53                   	push   %ebx
    3156:	89 55 e4             	mov    %edx,-0x1c(%ebp)
    3159:	e8 fc ff ff ff       	call   315a <qsort+0x1a>
			315a: R_386_PC32	fls
    315e:	8b 55 e4             	mov    -0x1c(%ebp),%edx
    3161:	83 c4 10             	add    $0x10,%esp
    3164:	89 f9                	mov    %edi,%ecx
    3166:	8d 44 00 fe          	lea    -0x2(%eax,%eax,1),%eax
    316a:	89 45 0c             	mov    %eax,0xc(%ebp)
    316d:	89 f0                	mov    %esi,%eax
    316f:	89 55 08             	mov    %edx,0x8(%ebp)
    3172:	8d 65 f4             	lea    -0xc(%ebp),%esp
    3175:	89 da                	mov    %ebx,%edx
    3177:	5b                   	pop    %ebx
    3178:	5e                   	pop    %esi
    3179:	5f                   	pop    %edi
    317a:	5d                   	pop    %ebp
    317b:	e9 90 f6 ff ff       	jmp    2810 <_qsort>

00003180 <_qsort>:
    3180:	55                   	push   %ebp
    3181:	89 e5                	mov    %esp,%ebp
    3183:	57                   	push   %edi
    3184:	56                   	push   %esi
    3185:	53                   	push   %ebx
    3186:	83 ec 4c             	sub    $0x4c,%esp
    3189:	89 45 e0             	mov    %eax,-0x20(%ebp)
    318c:	8b 45 10             	mov    0x10(%ebp),%eax
    318f:	89 4d d4             	mov    %ecx,-0x2c(%ebp)
    3192:	c1 e9 02             	shr    $0x2,%ecx
    3195:	8d 78 ff             	lea    -0x1(%eax),%edi
    3198:	89 55 b8             	mov    %edx,-0x48(%ebp)
    319b:	89 7d b0             	mov    %edi,-0x50(%ebp)
    319e:	89 4d c4             	mov    %ecx,-0x3c(%ebp)
    31a1:	85 c0                	test   %eax,%eax
    31a3:	0f 8e 02 04 00 00    	jle    35ab <_qsort+0x42b>
    31a9:	8b 45 e0             	mov    -0x20(%ebp),%eax
    31ac:	0b 45 d4             	or     -0x2c(%ebp),%eax
    31af:	c7 45 d8 02 00 00 00 	movl   $0x2,-0x28(%ebp)
    31b6:	a8 03                	test   $0x3,%al
    31b8:	0f 84 b0 06 00 00    	je     386e <_qsort+0x6ee>
    31be:	83 7d b8 06          	cmpl   $0x6,-0x48(%ebp)
    31c2:	0f 86 bc 06 00 00    	jbe    3884 <_qsort+0x704>
    31c8:	8b 7d b8             	mov    -0x48(%ebp),%edi
    31cb:	8b 55 d4             	mov    -0x2c(%ebp),%edx
    31ce:	8b 4d e0             	mov    -0x20(%ebp),%ecx
    31d1:	89 f8                	mov    %edi,%eax
    31d3:	d1 e8                	shr    %eax
    31d5:	89 ce                	mov    %ecx,%esi
    31d7:	0f af c2             	imul   %edx,%eax
    31da:	8d 1c 01             	lea    (%ecx,%eax,1),%ebx
    31dd:	8d 47 ff             	lea    -0x1(%edi),%eax
    31e0:	0f af c2             	imul   %edx,%eax
    31e3:	89 45 dc             	mov    %eax,-0x24(%ebp)
    31e6:	01 c6                	add    %eax,%esi
    31e8:	83 ff 07             	cmp    $0x7,%edi
    31eb:	0f 84 4b 01 00 00    	je     333c <_qsort+0x1bc>
    31f1:	83 ff 28             	cmp    $0x28,%edi
    31f4:	0f 86 36 06 00 00    	jbe    3830 <_qsort+0x6b0>
    31fa:	c1 ef 03             	shr    $0x3,%edi
    31fd:	83 ec 04             	sub    $0x4,%esp
    3200:	89 f8                	mov    %edi,%eax
    3202:	0f af c2             	imul   %edx,%eax
    3205:	89 c7                	mov    %eax,%edi
    3207:	8d 04 41             	lea    (%ecx,%eax,2),%eax
    320a:	8d 14 39             	lea    (%ecx,%edi,1),%edx
    320d:	89 45 d0             	mov    %eax,-0x30(%ebp)
    3210:	52                   	push   %edx
    3211:	51                   	push   %ecx
    3212:	ff 75 08             	push   0x8(%ebp)
    3215:	89 55 e4             	mov    %edx,-0x1c(%ebp)
    3218:	ff 55 0c             	call   *0xc(%ebp)
    321b:	83 c4 10             	add    $0x10,%esp
    321e:	85 c0                	test   %eax,%eax
    3220:	0f 88 ef 07 00 00    	js     3a15 <_qsort+0x895>
    3226:	83 ec 04             	sub    $0x4,%esp
    3229:	ff 75 d0             	push   -0x30(%ebp)
    322c:	ff 75 e4             	push   -0x1c(%ebp)
    322f:	ff 75 08             	push   0x8(%ebp)
    3232:	ff 55 0c             	call   *0xc(%ebp)
    3235:	83 c4 10             	add    $0x10,%esp
    3238:	85 c0                	test   %eax,%eax
    323a:	7f 1e                	jg     325a <_qsort+0xda>
    323c:	83 ec 04             	sub    $0x4,%esp
    323f:	ff 75 d0             	push   -0x30(%ebp)
    3242:	ff 75 e0             	push   -0x20(%ebp)
    3245:	ff 75 08             	push   0x8(%ebp)
    3248:	ff 55 0c             	call   *0xc(%ebp)
    324b:	83 c4 10             	add    $0x10,%esp
    324e:	85 c0                	test   %eax,%eax
    3250:	8b 45 d0             	mov    -0x30(%ebp),%eax
    3253:	0f 48 45 e0          	cmovs  -0x20(%ebp),%eax
    3257:	89 45 e4             	mov    %eax,-0x1c(%ebp)
    325a:	8d 04 3b             	lea    (%ebx,%edi,1),%eax
    325d:	83 ec 04             	sub    $0x4,%esp
    3260:	89 f9                	mov    %edi,%ecx
    3262:	89 45 d0             	mov    %eax,-0x30(%ebp)
    3265:	89 d8                	mov    %ebx,%eax
    3267:	f7 d9                	neg    %ecx
    3269:	29 f8                	sub    %edi,%eax
    326b:	53                   	push   %ebx
    326c:	50                   	push   %eax
    326d:	89 c7                	mov    %eax,%edi
    326f:	ff 75 08             	push   0x8(%ebp)
    3272:	89 4d cc             	mov    %ecx,-0x34(%ebp)
    3275:	89 45 c8             	mov    %eax,-0x38(%ebp)
    3278:	ff 55 0c             	call   *0xc(%ebp)
    327b:	83 c4 10             	add    $0x10,%esp
    327e:	85 c0                	test   %eax,%eax
    3280:	0f 88 01 08 00 00    	js     3a87 <_qsort+0x907>
    3286:	8b 7d d0             	mov    -0x30(%ebp),%edi
    3289:	83 ec 04             	sub    $0x4,%esp
    328c:	57                   	push   %edi
    328d:	53                   	push   %ebx
    328e:	ff 75 08             	push   0x8(%ebp)
    3291:	ff 55 0c             	call   *0xc(%ebp)
    3294:	83 c4 10             	add    $0x10,%esp
    3297:	85 c0                	test   %eax,%eax
    3299:	7f 18                	jg     32b3 <_qsort+0x133>
    329b:	83 ec 04             	sub    $0x4,%esp
    329e:	89 fb                	mov    %edi,%ebx
    32a0:	57                   	push   %edi
    32a1:	8b 7d c8             	mov    -0x38(%ebp),%edi
    32a4:	57                   	push   %edi
    32a5:	ff 75 08             	push   0x8(%ebp)
    32a8:	ff 55 0c             	call   *0xc(%ebp)
    32ab:	83 c4 10             	add    $0x10,%esp
    32ae:	85 c0                	test   %eax,%eax
    32b0:	0f 48 df             	cmovs  %edi,%ebx
    32b3:	8b 45 cc             	mov    -0x34(%ebp),%eax
    32b6:	83 ec 04             	sub    $0x4,%esp
    32b9:	8d 3c 06             	lea    (%esi,%eax,1),%edi
    32bc:	01 f8                	add    %edi,%eax
    32be:	57                   	push   %edi
    32bf:	50                   	push   %eax
    32c0:	ff 75 08             	push   0x8(%ebp)
    32c3:	89 45 d0             	mov    %eax,-0x30(%ebp)
    32c6:	ff 55 0c             	call   *0xc(%ebp)
    32c9:	83 c4 10             	add    $0x10,%esp
    32cc:	85 c0                	test   %eax,%eax
    32ce:	0f 88 7e 07 00 00    	js     3a52 <_qsort+0x8d2>
    32d4:	83 ec 04             	sub    $0x4,%esp
    32d7:	56                   	push   %esi
    32d8:	57                   	push   %edi
    32d9:	ff 75 08             	push   0x8(%ebp)
    32dc:	ff 55 0c             	call   *0xc(%ebp)
    32df:	83 c4 10             	add    $0x10,%esp
    32e2:	85 c0                	test   %eax,%eax
    32e4:	7f 16                	jg     32fc <_qsort+0x17c>
    32e6:	8b 7d d0             	mov    -0x30(%ebp),%edi
    32e9:	83 ec 04             	sub    $0x4,%esp
    32ec:	56                   	push   %esi
    32ed:	57                   	push   %edi
    32ee:	ff 75 08             	push   0x8(%ebp)
    32f1:	ff 55 0c             	call   *0xc(%ebp)
    32f4:	83 c4 10             	add    $0x10,%esp
    32f7:	85 c0                	test   %eax,%eax
    32f9:	0f 49 fe             	cmovns %esi,%edi
    32fc:	83 ec 04             	sub    $0x4,%esp
    32ff:	53                   	push   %ebx
    3300:	ff 75 e4             	push   -0x1c(%ebp)
    3303:	ff 75 08             	push   0x8(%ebp)
    3306:	ff 55 0c             	call   *0xc(%ebp)
    3309:	83 c4 10             	add    $0x10,%esp
    330c:	85 c0                	test   %eax,%eax
    330e:	0f 88 29 05 00 00    	js     383d <_qsort+0x6bd>
    3314:	83 ec 04             	sub    $0x4,%esp
    3317:	57                   	push   %edi
    3318:	53                   	push   %ebx
    3319:	ff 75 08             	push   0x8(%ebp)
    331c:	ff 55 0c             	call   *0xc(%ebp)
    331f:	83 c4 10             	add    $0x10,%esp
    3322:	85 c0                	test   %eax,%eax
    3324:	7f 16                	jg     333c <_qsort+0x1bc>
    3326:	8b 5d e4             	mov    -0x1c(%ebp),%ebx
    3329:	83 ec 04             	sub    $0x4,%esp
    332c:	57                   	push   %edi
    332d:	53                   	push   %ebx
    332e:	ff 75 08             	push   0x8(%ebp)
    3331:	ff 55 0c             	call   *0xc(%ebp)
    3334:	83 c4 10             	add    $0x10,%esp
    3337:	85 c0                	test   %eax,%eax
    3339:	0f 49 df             	cmovns %edi,%ebx
    333c:	8b 45 d8             	mov    -0x28(%ebp),%eax
    333f:	85 c0                	test   %eax,%eax
    3341:	0f 85 43 03 00 00    	jne    368a <_qsort+0x50a>
    3347:	8b 7d e0             	mov    -0x20(%ebp),%edi
    334a:	8b 13                	mov    (%ebx),%edx
    334c:	8b 07                	mov    (%edi),%eax
    334e:	89 17                	mov    %edx,(%edi)
    3350:	89 03                	mov    %eax,(%ebx)
    3352:	8b 45 d4             	mov    -0x2c(%ebp),%eax
    3355:	01 f8                	add    %edi,%eax
    3357:	89 45 ac             	mov    %eax,-0x54(%ebp)
    335a:	8b 7d ac             	mov    -0x54(%ebp),%edi
    335d:	8b 45 dc             	mov    -0x24(%ebp),%eax
    3360:	03 45 d4             	add    -0x2c(%ebp),%eax
    3363:	03 45 e0             	add    -0x20(%ebp),%eax
    3366:	89 7d a8             	mov    %edi,-0x58(%ebp)
    3369:	89 45 b4             	mov    %eax,-0x4c(%ebp)
    336c:	39 f7                	cmp    %esi,%edi
    336e:	0f 87 57 03 00 00    	ja     36cb <_qsort+0x54b>
    3374:	8b 4d d4             	mov    -0x2c(%ebp),%ecx
    3377:	8b 45 b4             	mov    -0x4c(%ebp),%eax
    337a:	89 75 d0             	mov    %esi,-0x30(%ebp)
    337d:	29 c8                	sub    %ecx,%eax
    337f:	89 45 bc             	mov    %eax,-0x44(%ebp)
    3382:	8b 45 ac             	mov    -0x54(%ebp),%eax
    3385:	89 c7                	mov    %eax,%edi
    3387:	89 45 dc             	mov    %eax,-0x24(%ebp)
    338a:	89 45 c8             	mov    %eax,-0x38(%ebp)
    338d:	01 cf                	add    %ecx,%edi
    338f:	89 7d cc             	mov    %edi,-0x34(%ebp)
    3392:	31 ff                	xor    %edi,%edi
    3394:	8d b4 26 00 00 00 00 	lea    0x0(%esi,%eiz,1),%esi
    339b:	8d 74 26 00          	lea    0x0(%esi,%eiz,1),%esi
    339f:	90                   	nop
    33a0:	8b 5d dc             	mov    -0x24(%ebp),%ebx
    33a3:	83 ec 04             	sub    $0x4,%esp
    33a6:	ff 75 e0             	push   -0x20(%ebp)
    33a9:	53                   	push   %ebx
    33aa:	ff 75 08             	push   0x8(%ebp)
    33ad:	ff 55 0c             	call   *0xc(%ebp)
    33b0:	83 c4 10             	add    $0x10,%esp
    33b3:	85 c0                	test   %eax,%eax
    33b5:	0f 8e 45 02 00 00    	jle    3600 <_qsort+0x480>
    33bb:	39 f3                	cmp    %esi,%ebx
    33bd:	0f 87 64 07 00 00    	ja     3b27 <_qsort+0x9a7>
    33c3:	8b 45 d4             	mov    -0x2c(%ebp),%eax
    33c6:	89 5d c0             	mov    %ebx,-0x40(%ebp)
    33c9:	8b 5d d0             	mov    -0x30(%ebp),%ebx
    33cc:	f7 d8                	neg    %eax
    33ce:	89 45 e4             	mov    %eax,-0x1c(%ebp)
    33d1:	eb 29                	jmp    33fc <_qsort+0x27c>
    33d3:	8d b4 26 00 00 00 00 	lea    0x0(%esi,%eiz,1),%esi
    33da:	8d b6 00 00 00 00    	lea    0x0(%esi),%esi
    33e0:	8b 06                	mov    (%esi),%eax
    33e2:	8b 13                	mov    (%ebx),%edx
    33e4:	89 16                	mov    %edx,(%esi)
    33e6:	89 03                	mov    %eax,(%ebx)
    33e8:	03 5d e4             	add    -0x1c(%ebp),%ebx
    33eb:	bf 01 00 00 00       	mov    $0x1,%edi
    33f0:	03 75 e4             	add    -0x1c(%ebp),%esi
    33f3:	3b 75 dc             	cmp    -0x24(%ebp),%esi
    33f6:	0f 82 f1 06 00 00    	jb     3aed <_qsort+0x96d>
    33fc:	83 ec 04             	sub    $0x4,%esp
    33ff:	ff 75 e0             	push   -0x20(%ebp)
    3402:	56                   	push   %esi
    3403:	ff 75 08             	push   0x8(%ebp)
    3406:	ff 55 0c             	call   *0xc(%ebp)
    3409:	83 c4 10             	add    $0x10,%esp
    340c:	85 c0                	test   %eax,%eax
    340e:	78 70                	js     3480 <_qsort+0x300>
    3410:	75 de                	jne    33f0 <_qsort+0x270>
    3412:	8b 45 d8             	mov    -0x28(%ebp),%eax
    3415:	85 c0                	test   %eax,%eax
    3417:	74 c7                	je     33e0 <_qsort+0x260>
    3419:	83 7d d8 01          	cmpl   $0x1,-0x28(%ebp)
    341d:	89 da                	mov    %ebx,%edx
    341f:	89 f0                	mov    %esi,%eax
    3421:	74 2d                	je     3450 <_qsort+0x2d0>
    3423:	8b 7d d4             	mov    -0x2c(%ebp),%edi
    3426:	89 5d d0             	mov    %ebx,-0x30(%ebp)
    3429:	01 f7                	add    %esi,%edi
    342b:	8d 74 26 00          	lea    0x0(%esi,%eiz,1),%esi
    342f:	90                   	nop
    3430:	0f b6 08             	movzbl (%eax),%ecx
    3433:	0f b6 1a             	movzbl (%edx),%ebx
    3436:	83 c0 01             	add    $0x1,%eax
    3439:	83 c2 01             	add    $0x1,%edx
    343c:	88 58 ff             	mov    %bl,-0x1(%eax)
    343f:	88 4a ff             	mov    %cl,-0x1(%edx)
    3442:	39 f8                	cmp    %edi,%eax
    3444:	75 ea                	jne    3430 <_qsort+0x2b0>
    3446:	8b 5d d0             	mov    -0x30(%ebp),%ebx
    3449:	eb 9d                	jmp    33e8 <_qsort+0x268>
    344b:	8d 74 26 00          	lea    0x0(%esi,%eiz,1),%esi
    344f:	90                   	nop
    3450:	89 5d d0             	mov    %ebx,-0x30(%ebp)
    3453:	8b 4d c4             	mov    -0x3c(%ebp),%ecx
    3456:	8d b4 26 00 00 00 00 	lea    0x0(%esi,%eiz,1),%esi
    345d:	8d 76 00             	lea    0x0(%esi),%esi
    3460:	8b 38                	mov    (%eax),%edi
    3462:	8b 1a                	mov    (%edx),%ebx
    3464:	83 c2 04             	add    $0x4,%edx
    3467:	83 c0 04             	add    $0x4,%eax
    346a:	89 58 fc             	mov    %ebx,-0x4(%eax)
    346d:	89 7a fc             	mov    %edi,-0x4(%edx)
    3470:	83 e9 01             	sub    $0x1,%ecx
    3473:	75 eb                	jne    3460 <_qsort+0x2e0>
    3475:	8b 5d d0             	mov    -0x30(%ebp),%ebx
    3478:	e9 6b ff ff ff       	jmp    33e8 <_qsort+0x268>
    347d:	8d 76 00             	lea    0x0(%esi),%esi
    3480:	8b 45 d8             	mov    -0x28(%ebp),%eax
    3483:	89 5d d0             	mov    %ebx,-0x30(%ebp)
    3486:	8b 5d c0             	mov    -0x40(%ebp),%ebx
    3489:	85 c0                	test   %eax,%eax
    348b:	0f 85 3f 01 00 00    	jne    35d0 <_qsort+0x450>
    3491:	8b 7d dc             	mov    -0x24(%ebp),%edi
    3494:	8b 16                	mov    (%esi),%edx
    3496:	8b 07                	mov    (%edi),%eax
    3498:	89 17                	mov    %edx,(%edi)
    349a:	89 06                	mov    %eax,(%esi)
    349c:	8b 5d cc             	mov    -0x34(%ebp),%ebx
    349f:	03 75 e4             	add    -0x1c(%ebp),%esi
    34a2:	bf 01 00 00 00       	mov    $0x1,%edi
    34a7:	8b 4d d4             	mov    -0x2c(%ebp),%ecx
    34aa:	01 4d dc             	add    %ecx,-0x24(%ebp)
    34ad:	01 4d cc             	add    %ecx,-0x34(%ebp)
    34b0:	39 de                	cmp    %ebx,%esi
    34b2:	0f 83 e8 fe ff ff    	jae    33a0 <_qsort+0x220>
    34b8:	8b 55 d0             	mov    -0x30(%ebp),%edx
    34bb:	89 d8                	mov    %ebx,%eax
    34bd:	2b 45 c8             	sub    -0x38(%ebp),%eax
    34c0:	89 45 dc             	mov    %eax,-0x24(%ebp)
    34c3:	89 55 cc             	mov    %edx,-0x34(%ebp)
    34c6:	89 d1                	mov    %edx,%ecx
    34c8:	8b 45 bc             	mov    -0x44(%ebp),%eax
    34cb:	29 f1                	sub    %esi,%ecx
    34cd:	89 4d d0             	mov    %ecx,-0x30(%ebp)
    34d0:	29 d0                	sub    %edx,%eax
    34d2:	39 c8                	cmp    %ecx,%eax
    34d4:	89 c2                	mov    %eax,%edx
    34d6:	8b 45 dc             	mov    -0x24(%ebp),%eax
    34d9:	0f 47 d1             	cmova  %ecx,%edx
    34dc:	89 55 e4             	mov    %edx,-0x1c(%ebp)
    34df:	8b 55 c8             	mov    -0x38(%ebp),%edx
    34e2:	2b 55 e0             	sub    -0x20(%ebp),%edx
    34e5:	39 c2                	cmp    %eax,%edx
    34e7:	0f 47 d0             	cmova  %eax,%edx
    34ea:	85 d2                	test   %edx,%edx
    34ec:	74 42                	je     3530 <_qsort+0x3b0>
    34ee:	89 d8                	mov    %ebx,%eax
    34f0:	29 d0                	sub    %edx,%eax
    34f2:	83 7d d8 01          	cmpl   $0x1,-0x28(%ebp)
    34f6:	0f 87 47 04 00 00    	ja     3943 <_qsort+0x7c3>
    34fc:	89 7d c8             	mov    %edi,-0x38(%ebp)
    34ff:	8b 4d e0             	mov    -0x20(%ebp),%ecx
    3502:	c1 ea 02             	shr    $0x2,%edx
    3505:	89 5d c0             	mov    %ebx,-0x40(%ebp)
    3508:	8b 39                	mov    (%ecx),%edi
    350a:	8b 18                	mov    (%eax),%ebx
    350c:	83 c0 04             	add    $0x4,%eax
    350f:	83 c1 04             	add    $0x4,%ecx
    3512:	89 59 fc             	mov    %ebx,-0x4(%ecx)
    3515:	89 78 fc             	mov    %edi,-0x4(%eax)
    3518:	83 ea 01             	sub    $0x1,%edx
    351b:	75 eb                	jne    3508 <_qsort+0x388>
    351d:	8b 7d c8             	mov    -0x38(%ebp),%edi
    3520:	8b 5d c0             	mov    -0x40(%ebp),%ebx
    3523:	8d b4 26 00 00 00 00 	lea    0x0(%esi,%eiz,1),%esi
    352a:	8d b6 00 00 00 00    	lea    0x0(%esi),%esi
    3530:	8b 45 e4             	mov    -0x1c(%ebp),%eax
    3533:	85 c0                	test   %eax,%eax
    3535:	74 32                	je     3569 <_qsort+0x3e9>
    3537:	8b 4d d8             	mov    -0x28(%ebp),%ecx
    353a:	8b 45 b4             	mov    -0x4c(%ebp),%eax
    353d:	2b 45 e4             	sub    -0x1c(%ebp),%eax
    3540:	85 c9                	test   %ecx,%ecx
    3542:	0f 85 6b 04 00 00    	jne    39b3 <_qsort+0x833>
    3548:	8b 4d e4             	mov    -0x1c(%ebp),%ecx
    354b:	89 75 e4             	mov    %esi,-0x1c(%ebp)
    354e:	c1 e9 02             	shr    $0x2,%ecx
    3551:	8b 13                	mov    (%ebx),%edx
    3553:	8b 30                	mov    (%eax),%esi
    3555:	83 c0 04             	add    $0x4,%eax
    3558:	83 c3 04             	add    $0x4,%ebx
    355b:	89 73 fc             	mov    %esi,-0x4(%ebx)
    355e:	89 50 fc             	mov    %edx,-0x4(%eax)
    3561:	83 e9 01             	sub    $0x1,%ecx
    3564:	75 eb                	jne    3551 <_qsort+0x3d1>
    3566:	8b 75 e4             	mov    -0x1c(%ebp),%esi
    3569:	85 ff                	test   %edi,%edi
    356b:	0f 84 6b 01 00 00    	je     36dc <_qsort+0x55c>
    3571:	8b 7d dc             	mov    -0x24(%ebp),%edi
    3574:	39 7d d4             	cmp    %edi,-0x2c(%ebp)
    3577:	0f 82 37 02 00 00    	jb     37b4 <_qsort+0x634>
    357d:	8b 7d d0             	mov    -0x30(%ebp),%edi
    3580:	8b 4d d4             	mov    -0x2c(%ebp),%ecx
    3583:	39 cf                	cmp    %ecx,%edi
    3585:	76 3e                	jbe    35c5 <_qsort+0x445>
    3587:	89 f0                	mov    %esi,%eax
    3589:	2b 45 cc             	sub    -0x34(%ebp),%eax
    358c:	03 45 b4             	add    -0x4c(%ebp),%eax
    358f:	31 d2                	xor    %edx,%edx
    3591:	89 45 e0             	mov    %eax,-0x20(%ebp)
    3594:	89 f8                	mov    %edi,%eax
    3596:	f7 f1                	div    %ecx
    3598:	83 6d b0 01          	subl   $0x1,-0x50(%ebp)
    359c:	89 45 b8             	mov    %eax,-0x48(%ebp)
    359f:	8b 45 b0             	mov    -0x50(%ebp),%eax
    35a2:	83 f8 ff             	cmp    $0xffffffff,%eax
    35a5:	0f 85 fe fb ff ff    	jne    31a9 <_qsort+0x29>
    35ab:	83 ec 0c             	sub    $0xc,%esp
    35ae:	ff 75 0c             	push   0xc(%ebp)
    35b1:	ff 75 08             	push   0x8(%ebp)
    35b4:	ff 75 d4             	push   -0x2c(%ebp)
    35b7:	ff 75 b8             	push   -0x48(%ebp)
    35ba:	ff 75 e0             	push   -0x20(%ebp)
    35bd:	e8 fc ff ff ff       	call   35be <_qsort+0x43e>
			35be: R_386_PC32	heapsort_r
    35c2:	83 c4 20             	add    $0x20,%esp
    35c5:	8d 65 f4             	lea    -0xc(%ebp),%esp
    35c8:	5b                   	pop    %ebx
    35c9:	5e                   	pop    %esi
    35ca:	5f                   	pop    %edi
    35cb:	5d                   	pop    %ebp
    35cc:	c3                   	ret    
    35cd:	8d 76 00             	lea    0x0(%esi),%esi
    35d0:	83 7d d8 01          	cmpl   $0x1,-0x28(%ebp)
    35d4:	8b 7d cc             	mov    -0x34(%ebp),%edi
    35d7:	89 f0                	mov    %esi,%eax
    35d9:	74 55                	je     3630 <_qsort+0x4b0>
    35db:	8d 74 26 00          	lea    0x0(%esi,%eiz,1),%esi
    35df:	90                   	nop
    35e0:	0f b6 13             	movzbl (%ebx),%edx
    35e3:	0f b6 08             	movzbl (%eax),%ecx
    35e6:	83 c3 01             	add    $0x1,%ebx
    35e9:	83 c0 01             	add    $0x1,%eax
    35ec:	88 4b ff             	mov    %cl,-0x1(%ebx)
    35ef:	88 50 ff             	mov    %dl,-0x1(%eax)
    35f2:	39 fb                	cmp    %edi,%ebx
    35f4:	75 ea                	jne    35e0 <_qsort+0x460>
    35f6:	e9 a1 fe ff ff       	jmp    349c <_qsort+0x31c>
    35fb:	8d 74 26 00          	lea    0x0(%esi,%eiz,1),%esi
    35ff:	90                   	nop
    3600:	75 23                	jne    3625 <_qsort+0x4a5>
    3602:	8b 45 d8             	mov    -0x28(%ebp),%eax
    3605:	85 c0                	test   %eax,%eax
    3607:	75 51                	jne    365a <_qsort+0x4da>
    3609:	8b 7d c8             	mov    -0x38(%ebp),%edi
    360c:	8b 4d dc             	mov    -0x24(%ebp),%ecx
    360f:	8b 07                	mov    (%edi),%eax
    3611:	8b 11                	mov    (%ecx),%edx
    3613:	89 17                	mov    %edx,(%edi)
    3615:	89 01                	mov    %eax,(%ecx)
    3617:	8b 45 d4             	mov    -0x2c(%ebp),%eax
    361a:	8d 0c 07             	lea    (%edi,%eax,1),%ecx
    361d:	89 4d c8             	mov    %ecx,-0x38(%ebp)
    3620:	bf 01 00 00 00       	mov    $0x1,%edi
    3625:	8b 5d cc             	mov    -0x34(%ebp),%ebx
    3628:	e9 7a fe ff ff       	jmp    34a7 <_qsort+0x327>
    362d:	8d 76 00             	lea    0x0(%esi),%esi
    3630:	8b 55 c4             	mov    -0x3c(%ebp),%edx
    3633:	8d b4 26 00 00 00 00 	lea    0x0(%esi,%eiz,1),%esi
    363a:	8d b6 00 00 00 00    	lea    0x0(%esi),%esi
    3640:	8b 0b                	mov    (%ebx),%ecx
    3642:	8b 38                	mov    (%eax),%edi
    3644:	83 c0 04             	add    $0x4,%eax
    3647:	83 c3 04             	add    $0x4,%ebx
    364a:	89 7b fc             	mov    %edi,-0x4(%ebx)
    364d:	89 48 fc             	mov    %ecx,-0x4(%eax)
    3650:	83 ea 01             	sub    $0x1,%edx
    3653:	75 eb                	jne    3640 <_qsort+0x4c0>
    3655:	e9 42 fe ff ff       	jmp    349c <_qsort+0x31c>
    365a:	8b 45 c8             	mov    -0x38(%ebp),%eax
    365d:	8b 4d d4             	mov    -0x2c(%ebp),%ecx
    3660:	01 c1                	add    %eax,%ecx
    3662:	83 7d d8 01          	cmpl   $0x1,-0x28(%ebp)
    3666:	89 cf                	mov    %ecx,%edi
    3668:	0f 84 0e 03 00 00    	je     397c <_qsort+0x7fc>
    366e:	66 90                	xchg   %ax,%ax
    3670:	0f b6 10             	movzbl (%eax),%edx
    3673:	0f b6 0b             	movzbl (%ebx),%ecx
    3676:	83 c0 01             	add    $0x1,%eax
    3679:	83 c3 01             	add    $0x1,%ebx
    367c:	88 48 ff             	mov    %cl,-0x1(%eax)
    367f:	88 53 ff             	mov    %dl,-0x1(%ebx)
    3682:	39 c7                	cmp    %eax,%edi
    3684:	75 ea                	jne    3670 <_qsort+0x4f0>
    3686:	89 f9                	mov    %edi,%ecx
    3688:	eb 93                	jmp    361d <_qsort+0x49d>
    368a:	8b 45 e0             	mov    -0x20(%ebp),%eax
    368d:	8b 7d d4             	mov    -0x2c(%ebp),%edi
    3690:	01 c7                	add    %eax,%edi
    3692:	83 7d d8 01          	cmpl   $0x1,-0x28(%ebp)
    3696:	89 7d ac             	mov    %edi,-0x54(%ebp)
    3699:	8b 7d ac             	mov    -0x54(%ebp),%edi
    369c:	0f 84 4a 03 00 00    	je     39ec <_qsort+0x86c>
    36a2:	8d b4 26 00 00 00 00 	lea    0x0(%esi,%eiz,1),%esi
    36a9:	8d b4 26 00 00 00 00 	lea    0x0(%esi,%eiz,1),%esi
    36b0:	0f b6 10             	movzbl (%eax),%edx
    36b3:	0f b6 0b             	movzbl (%ebx),%ecx
    36b6:	83 c0 01             	add    $0x1,%eax
    36b9:	83 c3 01             	add    $0x1,%ebx
    36bc:	88 48 ff             	mov    %cl,-0x1(%eax)
    36bf:	88 53 ff             	mov    %dl,-0x1(%ebx)
    36c2:	39 f8                	cmp    %edi,%eax
    36c4:	75 ea                	jne    36b0 <_qsort+0x530>
    36c6:	e9 8f fc ff ff       	jmp    335a <_qsort+0x1da>
    36cb:	89 75 cc             	mov    %esi,-0x34(%ebp)
    36ce:	c7 45 dc 00 00 00 00 	movl   $0x0,-0x24(%ebp)
    36d5:	c7 45 d0 00 00 00 00 	movl   $0x0,-0x30(%ebp)
    36dc:	8b 45 b8             	mov    -0x48(%ebp),%eax
    36df:	8b 7d b4             	mov    -0x4c(%ebp),%edi
    36e2:	c1 e8 02             	shr    $0x2,%eax
    36e5:	83 c0 01             	add    $0x1,%eax
    36e8:	89 45 c0             	mov    %eax,-0x40(%ebp)
    36eb:	39 7d ac             	cmp    %edi,-0x54(%ebp)
    36ee:	0f 83 d1 fe ff ff    	jae    35c5 <_qsort+0x445>
    36f4:	8b 45 d4             	mov    -0x2c(%ebp),%eax
    36f7:	8b 5d a8             	mov    -0x58(%ebp),%ebx
    36fa:	c7 45 e4 00 00 00 00 	movl   $0x0,-0x1c(%ebp)
    3701:	89 75 ac             	mov    %esi,-0x54(%ebp)
    3704:	f7 d8                	neg    %eax
    3706:	89 45 c8             	mov    %eax,-0x38(%ebp)
    3709:	8b 45 d4             	mov    -0x2c(%ebp),%eax
    370c:	01 d8                	add    %ebx,%eax
    370e:	89 45 b8             	mov    %eax,-0x48(%ebp)
    3711:	89 c7                	mov    %eax,%edi
    3713:	eb 29                	jmp    373e <_qsort+0x5be>
    3715:	8d b4 26 00 00 00 00 	lea    0x0(%esi,%eiz,1),%esi
    371c:	8d 74 26 00          	lea    0x0(%esi,%eiz,1),%esi
    3720:	8b 4d d4             	mov    -0x2c(%ebp),%ecx
    3723:	8b 16                	mov    (%esi),%edx
    3725:	8b 04 0e             	mov    (%esi,%ecx,1),%eax
    3728:	89 14 0e             	mov    %edx,(%esi,%ecx,1)
    372b:	89 06                	mov    %eax,(%esi)
    372d:	83 45 e4 01          	addl   $0x1,-0x1c(%ebp)
    3731:	2b 7d d4             	sub    -0x2c(%ebp),%edi
    3734:	8b 45 e4             	mov    -0x1c(%ebp),%eax
    3737:	39 45 c0             	cmp    %eax,-0x40(%ebp)
    373a:	72 69                	jb     37a5 <_qsort+0x625>
    373c:	89 f3                	mov    %esi,%ebx
    373e:	3b 5d e0             	cmp    -0x20(%ebp),%ebx
    3741:	0f 86 c6 00 00 00    	jbe    380d <_qsort+0x68d>
    3747:	8b 45 c8             	mov    -0x38(%ebp),%eax
    374a:	83 ec 04             	sub    $0x4,%esp
    374d:	53                   	push   %ebx
    374e:	8d 34 03             	lea    (%ebx,%eax,1),%esi
    3751:	56                   	push   %esi
    3752:	ff 75 08             	push   0x8(%ebp)
    3755:	ff 55 0c             	call   *0xc(%ebp)
    3758:	83 c4 10             	add    $0x10,%esp
    375b:	85 c0                	test   %eax,%eax
    375d:	0f 8e aa 00 00 00    	jle    380d <_qsort+0x68d>
    3763:	8b 55 d8             	mov    -0x28(%ebp),%edx
    3766:	85 d2                	test   %edx,%edx
    3768:	74 b6                	je     3720 <_qsort+0x5a0>
    376a:	83 7d d8 01          	cmpl   $0x1,-0x28(%ebp)
    376e:	89 f0                	mov    %esi,%eax
    3770:	74 69                	je     37db <_qsort+0x65b>
    3772:	8d b4 26 00 00 00 00 	lea    0x0(%esi,%eiz,1),%esi
    3779:	8d b4 26 00 00 00 00 	lea    0x0(%esi,%eiz,1),%esi
    3780:	0f b6 13             	movzbl (%ebx),%edx
    3783:	0f b6 08             	movzbl (%eax),%ecx
    3786:	83 c3 01             	add    $0x1,%ebx
    3789:	83 c0 01             	add    $0x1,%eax
    378c:	88 4b ff             	mov    %cl,-0x1(%ebx)
    378f:	88 50 ff             	mov    %dl,-0x1(%eax)
    3792:	39 fb                	cmp    %edi,%ebx
    3794:	75 ea                	jne    3780 <_qsort+0x600>
    3796:	83 45 e4 01          	addl   $0x1,-0x1c(%ebp)
    379a:	2b 7d d4             	sub    -0x2c(%ebp),%edi
    379d:	8b 45 e4             	mov    -0x1c(%ebp),%eax
    37a0:	39 45 c0             	cmp    %eax,-0x40(%ebp)
    37a3:	73 97                	jae    373c <_qsort+0x5bc>
    37a5:	8b 75 ac             	mov    -0x54(%ebp),%esi
    37a8:	8b 7d dc             	mov    -0x24(%ebp),%edi
    37ab:	39 7d d4             	cmp    %edi,-0x2c(%ebp)
    37ae:	0f 83 c9 fd ff ff    	jae    357d <_qsort+0x3fd>
    37b4:	8b 4d d4             	mov    -0x2c(%ebp),%ecx
    37b7:	89 f8                	mov    %edi,%eax
    37b9:	31 d2                	xor    %edx,%edx
    37bb:	83 ec 04             	sub    $0x4,%esp
    37be:	ff 75 b0             	push   -0x50(%ebp)
    37c1:	f7 f1                	div    %ecx
    37c3:	ff 75 0c             	push   0xc(%ebp)
    37c6:	ff 75 08             	push   0x8(%ebp)
    37c9:	89 c2                	mov    %eax,%edx
    37cb:	8b 45 e0             	mov    -0x20(%ebp),%eax
    37ce:	e8 ad f9 ff ff       	call   3180 <_qsort>
    37d3:	83 c4 10             	add    $0x10,%esp
    37d6:	e9 a2 fd ff ff       	jmp    357d <_qsort+0x3fd>
    37db:	89 75 bc             	mov    %esi,-0x44(%ebp)
    37de:	8b 55 c4             	mov    -0x3c(%ebp),%edx
    37e1:	8d b4 26 00 00 00 00 	lea    0x0(%esi,%eiz,1),%esi
    37e8:	8d b4 26 00 00 00 00 	lea    0x0(%esi,%eiz,1),%esi
    37ef:	90                   	nop
    37f0:	8b 0b                	mov    (%ebx),%ecx
    37f2:	8b 30                	mov    (%eax),%esi
    37f4:	83 c0 04             	add    $0x4,%eax
    37f7:	83 c3 04             	add    $0x4,%ebx
    37fa:	89 73 fc             	mov    %esi,-0x4(%ebx)
    37fd:	89 48 fc             	mov    %ecx,-0x4(%eax)
    3800:	83 ea 01             	sub    $0x1,%edx
    3803:	75 eb                	jne    37f0 <_qsort+0x670>
    3805:	8b 75 bc             	mov    -0x44(%ebp),%esi
    3808:	e9 20 ff ff ff       	jmp    372d <_qsort+0x5ad>
    380d:	8b 5d b8             	mov    -0x48(%ebp),%ebx
    3810:	3b 5d b4             	cmp    -0x4c(%ebp),%ebx
    3813:	0f 82 f0 fe ff ff    	jb     3709 <_qsort+0x589>
    3819:	8d 65 f4             	lea    -0xc(%ebp),%esp
    381c:	5b                   	pop    %ebx
    381d:	5e                   	pop    %esi
    381e:	5f                   	pop    %edi
    381f:	5d                   	pop    %ebp
    3820:	c3                   	ret    
    3821:	8d b4 26 00 00 00 00 	lea    0x0(%esi,%eiz,1),%esi
    3828:	8d b4 26 00 00 00 00 	lea    0x0(%esi,%eiz,1),%esi
    382f:	90                   	nop
    3830:	8b 45 e0             	mov    -0x20(%ebp),%eax
    3833:	89 f7                	mov    %esi,%edi
    3835:	89 45 e4             	mov    %eax,-0x1c(%ebp)
    3838:	e9 bf fa ff ff       	jmp    32fc <_qsort+0x17c>
    383d:	83 ec 04             	sub    $0x4,%esp
    3840:	57                   	push   %edi
    3841:	53                   	push   %ebx
    3842:	ff 75 08             	push   0x8(%ebp)
    3845:	ff 55 0c             	call   *0xc(%ebp)
    3848:	83 c4 10             	add    $0x10,%esp
    384b:	85 c0                	test   %eax,%eax
    384d:	0f 88 e9 fa ff ff    	js     333c <_qsort+0x1bc>
    3853:	8b 5d e4             	mov    -0x1c(%ebp),%ebx
    3856:	83 ec 04             	sub    $0x4,%esp
    3859:	57                   	push   %edi
    385a:	53                   	push   %ebx
    385b:	ff 75 08             	push   0x8(%ebp)
    385e:	ff 55 0c             	call   *0xc(%ebp)
    3861:	83 c4 10             	add    $0x10,%esp
    3864:	85 c0                	test   %eax,%eax
    3866:	0f 48 df             	cmovs  %edi,%ebx
    3869:	e9 ce fa ff ff       	jmp    333c <_qsort+0x1bc>
    386e:	31 c0                	xor    %eax,%eax
    3870:	83 7d d4 04          	cmpl   $0x4,-0x2c(%ebp)
    3874:	0f 95 c0             	setne  %al
    3877:	83 7d b8 06          	cmpl   $0x6,-0x48(%ebp)
    387b:	89 45 d8             	mov    %eax,-0x28(%ebp)
    387e:	0f 87 44 f9 ff ff    	ja     31c8 <_qsort+0x48>
    3884:	8b 4d d4             	mov    -0x2c(%ebp),%ecx
    3887:	8b 45 b8             	mov    -0x48(%ebp),%eax
    388a:	8b 7d e0             	mov    -0x20(%ebp),%edi
    388d:	0f af c1             	imul   %ecx,%eax
    3890:	89 fe                	mov    %edi,%esi
    3892:	01 ce                	add    %ecx,%esi
    3894:	01 f8                	add    %edi,%eax
    3896:	89 cf                	mov    %ecx,%edi
    3898:	89 75 d0             	mov    %esi,-0x30(%ebp)
    389b:	89 45 cc             	mov    %eax,-0x34(%ebp)
    389e:	f7 df                	neg    %edi
    38a0:	39 c6                	cmp    %eax,%esi
    38a2:	0f 83 1d fd ff ff    	jae    35c5 <_qsort+0x445>
    38a8:	89 7d dc             	mov    %edi,-0x24(%ebp)
    38ab:	8b 7d d4             	mov    -0x2c(%ebp),%edi
    38ae:	8b 45 d0             	mov    -0x30(%ebp),%eax
    38b1:	39 45 e0             	cmp    %eax,-0x20(%ebp)
    38b4:	73 76                	jae    392c <_qsort+0x7ac>
    38b6:	89 c6                	mov    %eax,%esi
    38b8:	eb 18                	jmp    38d2 <_qsort+0x752>
    38ba:	8d b6 00 00 00 00    	lea    0x0(%esi),%esi
    38c0:	8b 4d dc             	mov    -0x24(%ebp),%ecx
    38c3:	8b 03                	mov    (%ebx),%eax
    38c5:	8b 14 0b             	mov    (%ebx,%ecx,1),%edx
    38c8:	89 13                	mov    %edx,(%ebx)
    38ca:	89 04 0b             	mov    %eax,(%ebx,%ecx,1)
    38cd:	3b 75 e0             	cmp    -0x20(%ebp),%esi
    38d0:	76 5a                	jbe    392c <_qsort+0x7ac>
    38d2:	83 ec 04             	sub    $0x4,%esp
    38d5:	89 f3                	mov    %esi,%ebx
    38d7:	29 fe                	sub    %edi,%esi
    38d9:	53                   	push   %ebx
    38da:	56                   	push   %esi
    38db:	ff 75 08             	push   0x8(%ebp)
    38de:	ff 55 0c             	call   *0xc(%ebp)
    38e1:	83 c4 10             	add    $0x10,%esp
    38e4:	85 c0                	test   %eax,%eax
    38e6:	7e 44                	jle    392c <_qsort+0x7ac>
    38e8:	8b 45 d8             	mov    -0x28(%ebp),%eax
    38eb:	85 c0                	test   %eax,%eax
    38ed:	74 d1                	je     38c0 <_qsort+0x740>
    38ef:	83 7d d8 01          	cmpl   $0x1,-0x28(%ebp)
    38f3:	89 f0                	mov    %esi,%eax
    38f5:	8d 0c 1f             	lea    (%edi,%ebx,1),%ecx
    38f8:	0f 84 be 01 00 00    	je     3abc <_qsort+0x93c>
    38fe:	89 4d e4             	mov    %ecx,-0x1c(%ebp)
    3901:	8d b4 26 00 00 00 00 	lea    0x0(%esi,%eiz,1),%esi
    3908:	8d b4 26 00 00 00 00 	lea    0x0(%esi,%eiz,1),%esi
    390f:	90                   	nop
    3910:	0f b6 13             	movzbl (%ebx),%edx
    3913:	0f b6 08             	movzbl (%eax),%ecx
    3916:	83 c0 01             	add    $0x1,%eax
    3919:	83 c3 01             	add    $0x1,%ebx
    391c:	88 4b ff             	mov    %cl,-0x1(%ebx)
    391f:	88 50 ff             	mov    %dl,-0x1(%eax)
    3922:	3b 5d e4             	cmp    -0x1c(%ebp),%ebx
    3925:	75 e9                	jne    3910 <_qsort+0x790>
    3927:	3b 75 e0             	cmp    -0x20(%ebp),%esi
    392a:	77 a6                	ja     38d2 <_qsort+0x752>
    392c:	01 7d d0             	add    %edi,-0x30(%ebp)
    392f:	8b 45 d0             	mov    -0x30(%ebp),%eax
    3932:	3b 45 cc             	cmp    -0x34(%ebp),%eax
    3935:	0f 82 73 ff ff ff    	jb     38ae <_qsort+0x72e>
    393b:	8d 65 f4             	lea    -0xc(%ebp),%esp
    393e:	5b                   	pop    %ebx
    393f:	5e                   	pop    %esi
    3940:	5f                   	pop    %edi
    3941:	5d                   	pop    %ebp
    3942:	c3                   	ret    
    3943:	89 d1                	mov    %edx,%ecx
    3945:	8b 55 e0             	mov    -0x20(%ebp),%edx
    3948:	89 5d c0             	mov    %ebx,-0x40(%ebp)
    394b:	01 d1                	add    %edx,%ecx
    394d:	89 4d c8             	mov    %ecx,-0x38(%ebp)
    3950:	0f b6 0a             	movzbl (%edx),%ecx
    3953:	0f b6 18             	movzbl (%eax),%ebx
    3956:	83 c0 01             	add    $0x1,%eax
    3959:	83 c2 01             	add    $0x1,%edx
    395c:	88 5a ff             	mov    %bl,-0x1(%edx)
    395f:	88 48 ff             	mov    %cl,-0x1(%eax)
    3962:	39 55 c8             	cmp    %edx,-0x38(%ebp)
    3965:	75 e9                	jne    3950 <_qsort+0x7d0>
    3967:	8b 4d e4             	mov    -0x1c(%ebp),%ecx
    396a:	8b 5d c0             	mov    -0x40(%ebp),%ebx
    396d:	85 c9                	test   %ecx,%ecx
    396f:	0f 84 f4 fb ff ff    	je     3569 <_qsort+0x3e9>
    3975:	8b 45 b4             	mov    -0x4c(%ebp),%eax
    3978:	29 c8                	sub    %ecx,%eax
    397a:	eb 41                	jmp    39bd <_qsort+0x83d>
    397c:	8b 4d c4             	mov    -0x3c(%ebp),%ecx
    397f:	89 c2                	mov    %eax,%edx
    3981:	8d b4 26 00 00 00 00 	lea    0x0(%esi,%eiz,1),%esi
    3988:	8d b4 26 00 00 00 00 	lea    0x0(%esi,%eiz,1),%esi
    398f:	90                   	nop
    3990:	8b 02                	mov    (%edx),%eax
    3992:	8b 3b                	mov    (%ebx),%edi
    3994:	83 c3 04             	add    $0x4,%ebx
    3997:	83 c2 04             	add    $0x4,%edx
    399a:	89 7a fc             	mov    %edi,-0x4(%edx)
    399d:	89 43 fc             	mov    %eax,-0x4(%ebx)
    39a0:	83 e9 01             	sub    $0x1,%ecx
    39a3:	75 eb                	jne    3990 <_qsort+0x810>
    39a5:	8b 45 c8             	mov    -0x38(%ebp),%eax
    39a8:	8b 7d d4             	mov    -0x2c(%ebp),%edi
    39ab:	8d 0c 38             	lea    (%eax,%edi,1),%ecx
    39ae:	e9 6a fc ff ff       	jmp    361d <_qsort+0x49d>
    39b3:	83 7d d8 01          	cmpl   $0x1,-0x28(%ebp)
    39b7:	0f 84 8b fb ff ff    	je     3548 <_qsort+0x3c8>
    39bd:	8b 4d e4             	mov    -0x1c(%ebp),%ecx
    39c0:	01 d9                	add    %ebx,%ecx
    39c2:	89 4d e4             	mov    %ecx,-0x1c(%ebp)
    39c5:	8d b4 26 00 00 00 00 	lea    0x0(%esi,%eiz,1),%esi
    39cc:	8d 74 26 00          	lea    0x0(%esi,%eiz,1),%esi
    39d0:	0f b6 13             	movzbl (%ebx),%edx
    39d3:	0f b6 08             	movzbl (%eax),%ecx
    39d6:	83 c0 01             	add    $0x1,%eax
    39d9:	83 c3 01             	add    $0x1,%ebx
    39dc:	88 4b ff             	mov    %cl,-0x1(%ebx)
    39df:	88 50 ff             	mov    %dl,-0x1(%eax)
    39e2:	39 5d e4             	cmp    %ebx,-0x1c(%ebp)
    39e5:	75 e9                	jne    39d0 <_qsort+0x850>
    39e7:	e9 7d fb ff ff       	jmp    3569 <_qsort+0x3e9>
    39ec:	8b 55 c4             	mov    -0x3c(%ebp),%edx
    39ef:	90                   	nop
    39f0:	8b 08                	mov    (%eax),%ecx
    39f2:	8b 3b                	mov    (%ebx),%edi
    39f4:	83 c3 04             	add    $0x4,%ebx
    39f7:	83 c0 04             	add    $0x4,%eax
    39fa:	89 78 fc             	mov    %edi,-0x4(%eax)
    39fd:	89 4b fc             	mov    %ecx,-0x4(%ebx)
    3a00:	83 ea 01             	sub    $0x1,%edx
    3a03:	75 eb                	jne    39f0 <_qsort+0x870>
    3a05:	8b 45 e0             	mov    -0x20(%ebp),%eax
    3a08:	8b 7d d4             	mov    -0x2c(%ebp),%edi
    3a0b:	01 f8                	add    %edi,%eax
    3a0d:	89 45 ac             	mov    %eax,-0x54(%ebp)
    3a10:	e9 45 f9 ff ff       	jmp    335a <_qsort+0x1da>
    3a15:	83 ec 04             	sub    $0x4,%esp
    3a18:	ff 75 d0             	push   -0x30(%ebp)
    3a1b:	ff 75 e4             	push   -0x1c(%ebp)
    3a1e:	ff 75 08             	push   0x8(%ebp)
    3a21:	ff 55 0c             	call   *0xc(%ebp)
    3a24:	83 c4 10             	add    $0x10,%esp
    3a27:	85 c0                	test   %eax,%eax
    3a29:	0f 88 2b f8 ff ff    	js     325a <_qsort+0xda>
    3a2f:	83 ec 04             	sub    $0x4,%esp
    3a32:	ff 75 d0             	push   -0x30(%ebp)
    3a35:	ff 75 e0             	push   -0x20(%ebp)
    3a38:	ff 75 08             	push   0x8(%ebp)
    3a3b:	ff 55 0c             	call   *0xc(%ebp)
    3a3e:	83 c4 10             	add    $0x10,%esp
    3a41:	85 c0                	test   %eax,%eax
    3a43:	8b 45 d0             	mov    -0x30(%ebp),%eax
    3a46:	0f 49 45 e0          	cmovns -0x20(%ebp),%eax
    3a4a:	89 45 e4             	mov    %eax,-0x1c(%ebp)
    3a4d:	e9 08 f8 ff ff       	jmp    325a <_qsort+0xda>
    3a52:	83 ec 04             	sub    $0x4,%esp
    3a55:	56                   	push   %esi
    3a56:	57                   	push   %edi
    3a57:	ff 75 08             	push   0x8(%ebp)
    3a5a:	ff 55 0c             	call   *0xc(%ebp)
    3a5d:	83 c4 10             	add    $0x10,%esp
    3a60:	85 c0                	test   %eax,%eax
    3a62:	0f 88 94 f8 ff ff    	js     32fc <_qsort+0x17c>
    3a68:	8b 7d d0             	mov    -0x30(%ebp),%edi
    3a6b:	83 ec 04             	sub    $0x4,%esp
    3a6e:	56                   	push   %esi
    3a6f:	57                   	push   %edi
    3a70:	ff 75 08             	push   0x8(%ebp)
    3a73:	ff 55 0c             	call   *0xc(%ebp)
    3a76:	83 c4 10             	add    $0x10,%esp
    3a79:	85 c0                	test   %eax,%eax
    3a7b:	89 f8                	mov    %edi,%eax
    3a7d:	0f 48 c6             	cmovs  %esi,%eax
    3a80:	89 c7                	mov    %eax,%edi
    3a82:	e9 75 f8 ff ff       	jmp    32fc <_qsort+0x17c>
    3a87:	83 ec 04             	sub    $0x4,%esp
    3a8a:	ff 75 d0             	push   -0x30(%ebp)
    3a8d:	53                   	push   %ebx
    3a8e:	ff 75 08             	push   0x8(%ebp)
    3a91:	ff 55 0c             	call   *0xc(%ebp)
    3a94:	83 c4 10             	add    $0x10,%esp
    3a97:	85 c0                	test   %eax,%eax
    3a99:	0f 88 14 f8 ff ff    	js     32b3 <_qsort+0x133>
    3a9f:	8b 5d d0             	mov    -0x30(%ebp),%ebx
    3aa2:	83 ec 04             	sub    $0x4,%esp
    3aa5:	53                   	push   %ebx
    3aa6:	57                   	push   %edi
    3aa7:	ff 75 08             	push   0x8(%ebp)
    3aaa:	ff 55 0c             	call   *0xc(%ebp)
    3aad:	83 c4 10             	add    $0x10,%esp
    3ab0:	85 c0                	test   %eax,%eax
    3ab2:	0f 48 fb             	cmovs  %ebx,%edi
    3ab5:	89 fb                	mov    %edi,%ebx
    3ab7:	e9 f7 f7 ff ff       	jmp    32b3 <_qsort+0x133>
    3abc:	89 75 e4             	mov    %esi,-0x1c(%ebp)
    3abf:	8b 55 c4             	mov    -0x3c(%ebp),%edx
    3ac2:	8d b4 26 00 00 00 00 	lea    0x0(%esi,%eiz,1),%esi
    3ac9:	8d b4 26 00 00 00 00 	lea    0x0(%esi,%eiz,1),%esi
    3ad0:	8b 0b                	mov    (%ebx),%ecx
    3ad2:	8b 30                	mov    (%eax),%esi
    3ad4:	83 c0 04             	add    $0x4,%eax
    3ad7:	83 c3 04             	add    $0x4,%ebx
    3ada:	89 73 fc             	mov    %esi,-0x4(%ebx)
    3add:	89 48 fc             	mov    %ecx,-0x4(%eax)
    3ae0:	83 ea 01             	sub    $0x1,%edx
    3ae3:	75 eb                	jne    3ad0 <_qsort+0x950>
    3ae5:	8b 75 e4             	mov    -0x1c(%ebp),%esi
    3ae8:	e9 e0 fd ff ff       	jmp    38cd <_qsort+0x74d>
    3aed:	89 d8                	mov    %ebx,%eax
    3aef:	8b 4d dc             	mov    -0x24(%ebp),%ecx
    3af2:	2b 4d c8             	sub    -0x38(%ebp),%ecx
    3af5:	89 c2                	mov    %eax,%edx
    3af7:	89 45 cc             	mov    %eax,-0x34(%ebp)
    3afa:	29 f0                	sub    %esi,%eax
    3afc:	8b 5d c0             	mov    -0x40(%ebp),%ebx
    3aff:	89 4d dc             	mov    %ecx,-0x24(%ebp)
    3b02:	89 c1                	mov    %eax,%ecx
    3b04:	89 45 d0             	mov    %eax,-0x30(%ebp)
    3b07:	8b 45 bc             	mov    -0x44(%ebp),%eax
    3b0a:	29 d0                	sub    %edx,%eax
    3b0c:	8b 55 c8             	mov    -0x38(%ebp),%edx
    3b0f:	39 c8                	cmp    %ecx,%eax
    3b11:	0f 47 c1             	cmova  %ecx,%eax
    3b14:	8b 4d dc             	mov    -0x24(%ebp),%ecx
    3b17:	2b 55 e0             	sub    -0x20(%ebp),%edx
    3b1a:	39 ca                	cmp    %ecx,%edx
    3b1c:	89 45 e4             	mov    %eax,-0x1c(%ebp)
    3b1f:	0f 47 d1             	cmova  %ecx,%edx
    3b22:	e9 c3 f9 ff ff       	jmp    34ea <_qsort+0x36a>
    3b27:	8b 4d d0             	mov    -0x30(%ebp),%ecx
    3b2a:	89 d8                	mov    %ebx,%eax
    3b2c:	2b 45 c8             	sub    -0x38(%ebp),%eax
    3b2f:	89 45 dc             	mov    %eax,-0x24(%ebp)
    3b32:	89 4d cc             	mov    %ecx,-0x34(%ebp)
    3b35:	89 ca                	mov    %ecx,%edx
    3b37:	e9 8c f9 ff ff       	jmp    34c8 <_qsort+0x348>
    3b3c:	8d 74 26 00          	lea    0x0(%esi,%eiz,1),%esi

00003b40 <qsort_r>:
    3b40:	55                   	push   %ebp
    3b41:	89 e5                	mov    %esp,%ebp
    3b43:	57                   	push   %edi
    3b44:	56                   	push   %esi
    3b45:	53                   	push   %ebx
    3b46:	83 ec 28             	sub    $0x28,%esp
    3b49:	8b 5d 0c             	mov    0xc(%ebp),%ebx
    3b4c:	8b 55 14             	mov    0x14(%ebp),%edx
    3b4f:	8b 4d 18             	mov    0x18(%ebp),%ecx
    3b52:	8b 75 08             	mov    0x8(%ebp),%esi
    3b55:	53                   	push   %ebx
    3b56:	8b 7d 10             	mov    0x10(%ebp),%edi
    3b59:	89 55 e0             	mov    %edx,-0x20(%ebp)
    3b5c:	89 4d e4             	mov    %ecx,-0x1c(%ebp)
    3b5f:	e8 fc ff ff ff       	call   3b60 <qsort_r+0x20>
			3b60: R_386_PC32	fls
    3b64:	8b 4d e4             	mov    -0x1c(%ebp),%ecx
    3b67:	8b 55 e0             	mov    -0x20(%ebp),%edx
    3b6a:	83 c4 10             	add    $0x10,%esp
    3b6d:	8d 44 00 fe          	lea    -0x2(%eax,%eax,1),%eax
    3b71:	89 45 10             	mov    %eax,0x10(%ebp)
    3b74:	89 f0                	mov    %esi,%eax
    3b76:	89 4d 0c             	mov    %ecx,0xc(%ebp)
    3b79:	89 f9                	mov    %edi,%ecx
    3b7b:	89 55 08             	mov    %edx,0x8(%ebp)
    3b7e:	8d 65 f4             	lea    -0xc(%ebp),%esp
    3b81:	89 da                	mov    %ebx,%edx
    3b83:	5b                   	pop    %ebx
    3b84:	5e                   	pop    %esi
    3b85:	5f                   	pop    %edi
    3b86:	5d                   	pop    %ebp
    3b87:	e9 f4 f5 ff ff       	jmp    3180 <_qsort>
    3b8c:	66 90                	xchg   %ax,%ax
    3b8e:	66 90                	xchg   %ax,%ax

00003b90 <rand_r>:
    3b90:	55                   	push   %ebp
    3b91:	89 e5                	mov    %esp,%ebp
    3b93:	53                   	push   %ebx
    3b94:	8b 5d 08             	mov    0x8(%ebp),%ebx
    3b97:	8b 0b                	mov    (%ebx),%ecx
    3b99:	85 c9                	test   %ecx,%ecx
    3b9b:	74 43                	je     3be0 <rand_r+0x50>
    3b9d:	89 c8                	mov    %ecx,%eax
    3b9f:	ba bd 16 9c 06       	mov    $0x69c16bd,%edx
    3ba4:	f7 e2                	mul    %edx
    3ba6:	89 c8                	mov    %ecx,%eax
    3ba8:	29 d0                	sub    %edx,%eax
    3baa:	d1 e8                	shr    %eax
    3bac:	01 c2                	add    %eax,%edx
    3bae:	c1 ea 10             	shr    $0x10,%edx
    3bb1:	69 c2 1d f3 01 00    	imul   $0x1f31d,%edx,%eax
    3bb7:	69 d2 ec f4 ff ff    	imul   $0xfffff4ec,%edx,%edx
    3bbd:	29 c1                	sub    %eax,%ecx
    3bbf:	69 c1 a7 41 00 00    	imul   $0x41a7,%ecx,%eax
    3bc5:	01 d0                	add    %edx,%eax
    3bc7:	79 05                	jns    3bce <rand_r+0x3e>
    3bc9:	05 ff ff ff 7f       	add    $0x7fffffff,%eax
    3bce:	89 c2                	mov    %eax,%edx
    3bd0:	89 13                	mov    %edx,(%ebx)
    3bd2:	8b 5d fc             	mov    -0x4(%ebp),%ebx
    3bd5:	c9                   	leave  
    3bd6:	c3                   	ret    
    3bd7:	8d b4 26 00 00 00 00 	lea    0x0(%esi,%eiz,1),%esi
    3bde:	66 90                	xchg   %ax,%ax
    3be0:	ba 42 ce 0c 1f       	mov    $0x1f0cce42,%edx
    3be5:	b8 42 ce 0c 1f       	mov    $0x1f0cce42,%eax
    3bea:	89 13                	mov    %edx,(%ebx)
    3bec:	8b 5d fc             	mov    -0x4(%ebp),%ebx
    3bef:	c9                   	leave  
    3bf0:	c3                   	ret    
    3bf1:	8d b4 26 00 00 00 00 	lea    0x0(%esi,%eiz,1),%esi
    3bf8:	8d b4 26 00 00 00 00 	lea    0x0(%esi,%eiz,1),%esi
    3bff:	90                   	nop

00003c00 <rand>:
    3c00:	8b 0d 00 00 00 00    	mov    0x0,%ecx
			3c02: R_386_32	.data
    3c06:	85 c9                	test   %ecx,%ecx
    3c08:	74 46                	je     3c50 <rand+0x50>
    3c0a:	89 c8                	mov    %ecx,%eax
    3c0c:	ba bd 16 9c 06       	mov    $0x69c16bd,%edx
    3c11:	f7 e2                	mul    %edx
    3c13:	89 c8                	mov    %ecx,%eax
    3c15:	29 d0                	sub    %edx,%eax
    3c17:	d1 e8                	shr    %eax
    3c19:	01 c2                	add    %eax,%edx
    3c1b:	c1 ea 10             	shr    $0x10,%edx
    3c1e:	69 c2 1d f3 01 00    	imul   $0x1f31d,%edx,%eax
    3c24:	69 d2 ec f4 ff ff    	imul   $0xfffff4ec,%edx,%edx
    3c2a:	29 c1                	sub    %eax,%ecx
    3c2c:	69 c1 a7 41 00 00    	imul   $0x41a7,%ecx,%eax
    3c32:	01 d0                	add    %edx,%eax
    3c34:	79 05                	jns    3c3b <rand+0x3b>
    3c36:	05 ff ff ff 7f       	add    $0x7fffffff,%eax
    3c3b:	89 c2                	mov    %eax,%edx
    3c3d:	89 15 00 00 00 00    	mov    %edx,0x0
			3c3f: R_386_32	.data
    3c43:	c3                   	ret    
    3c44:	8d b4 26 00 00 00 00 	lea    0x0(%esi,%eiz,1),%esi
    3c4b:	8d 74 26 00          	lea    0x0(%esi,%eiz,1),%esi
    3c4f:	90                   	nop
    3c50:	ba 42 ce 0c 1f       	mov    $0x1f0cce42,%edx
    3c55:	b8 42 ce 0c 1f       	mov    $0x1f0cce42,%eax
    3c5a:	89 15 00 00 00 00    	mov    %edx,0x0
			3c5c: R_386_32	.data
    3c60:	c3                   	ret    
    3c61:	8d b4 26 00 00 00 00 	lea    0x0(%esi,%eiz,1),%esi
    3c68:	8d b4 26 00 00 00 00 	lea    0x0(%esi,%eiz,1),%esi
    3c6f:	90                   	nop

00003c70 <srand>:
    3c70:	55                   	push   %ebp
    3c71:	89 e5                	mov    %esp,%ebp
    3c73:	8b 45 08             	mov    0x8(%ebp),%eax
    3c76:	5d                   	pop    %ebp
    3c77:	a3 00 00 00 00       	mov    %eax,0x0
			3c78: R_386_32	.data
    3c7c:	c3                   	ret    
    3c7d:	66 90                	xchg   %ax,%ax
    3c7f:	90                   	nop

00003c80 <realloc>:
    3c80:	55                   	push   %ebp
    3c81:	89 e5                	mov    %esp,%ebp
    3c83:	57                   	push   %edi
    3c84:	56                   	push   %esi
    3c85:	53                   	push   %ebx
    3c86:	83 ec 0c             	sub    $0xc,%esp
    3c89:	8b 75 0c             	mov    0xc(%ebp),%esi
    3c8c:	8b 7d 08             	mov    0x8(%ebp),%edi
    3c8f:	85 f6                	test   %esi,%esi
    3c91:	74 3d                	je     3cd0 <realloc+0x50>
    3c93:	85 ff                	test   %edi,%edi
    3c95:	74 49                	je     3ce0 <realloc+0x60>
    3c97:	83 ec 0c             	sub    $0xc,%esp
    3c9a:	56                   	push   %esi
    3c9b:	e8 fc ff ff ff       	call   3c9c <realloc+0x1c>
			3c9c: R_386_PC32	malloc
    3ca0:	83 c4 10             	add    $0x10,%esp
    3ca3:	89 c3                	mov    %eax,%ebx
    3ca5:	85 c0                	test   %eax,%eax
    3ca7:	74 16                	je     3cbf <realloc+0x3f>
    3ca9:	83 ec 04             	sub    $0x4,%esp
    3cac:	56                   	push   %esi
    3cad:	57                   	push   %edi
    3cae:	50                   	push   %eax
    3caf:	e8 fc ff ff ff       	call   3cb0 <realloc+0x30>
			3cb0: R_386_PC32	memcpy
    3cb4:	89 3c 24             	mov    %edi,(%esp)
    3cb7:	e8 fc ff ff ff       	call   3cb8 <realloc+0x38>
			3cb8: R_386_PC32	free
    3cbc:	83 c4 10             	add    $0x10,%esp
    3cbf:	8d 65 f4             	lea    -0xc(%ebp),%esp
    3cc2:	89 d8                	mov    %ebx,%eax
    3cc4:	5b                   	pop    %ebx
    3cc5:	5e                   	pop    %esi
    3cc6:	5f                   	pop    %edi
    3cc7:	5d                   	pop    %ebp
    3cc8:	c3                   	ret    
    3cc9:	8d b4 26 00 00 00 00 	lea    0x0(%esi,%eiz,1),%esi
    3cd0:	8d 65 f4             	lea    -0xc(%ebp),%esp
    3cd3:	31 db                	xor    %ebx,%ebx
    3cd5:	89 d8                	mov    %ebx,%eax
    3cd7:	5b                   	pop    %ebx
    3cd8:	5e                   	pop    %esi
    3cd9:	5f                   	pop    %edi
    3cda:	5d                   	pop    %ebp
    3cdb:	c3                   	ret    
    3cdc:	8d 74 26 00          	lea    0x0(%esi,%eiz,1),%esi
    3ce0:	89 75 08             	mov    %esi,0x8(%ebp)
    3ce3:	8d 65 f4             	lea    -0xc(%ebp),%esp
    3ce6:	5b                   	pop    %ebx
    3ce7:	5e                   	pop    %esi
    3ce8:	5f                   	pop    %edi
    3ce9:	5d                   	pop    %ebp
    3cea:	e9 fc ff ff ff       	jmp    3ceb <realloc+0x6b>
			3ceb: R_386_PC32	malloc
    3cef:	90                   	nop

00003cf0 <reallocf>:
    3cf0:	55                   	push   %ebp
    3cf1:	89 e5                	mov    %esp,%ebp
    3cf3:	57                   	push   %edi
    3cf4:	56                   	push   %esi
    3cf5:	53                   	push   %ebx
    3cf6:	83 ec 0c             	sub    $0xc,%esp
    3cf9:	8b 7d 0c             	mov    0xc(%ebp),%edi
    3cfc:	8b 75 08             	mov    0x8(%ebp),%esi
    3cff:	85 ff                	test   %edi,%edi
    3d01:	74 3d                	je     3d40 <reallocf+0x50>
    3d03:	85 f6                	test   %esi,%esi
    3d05:	74 69                	je     3d70 <reallocf+0x80>
    3d07:	83 ec 0c             	sub    $0xc,%esp
    3d0a:	57                   	push   %edi
    3d0b:	e8 fc ff ff ff       	call   3d0c <reallocf+0x1c>
			3d0c: R_386_PC32	malloc
    3d10:	83 c4 10             	add    $0x10,%esp
    3d13:	89 c3                	mov    %eax,%ebx
    3d15:	85 c0                	test   %eax,%eax
    3d17:	74 2b                	je     3d44 <reallocf+0x54>
    3d19:	83 ec 04             	sub    $0x4,%esp
    3d1c:	57                   	push   %edi
    3d1d:	56                   	push   %esi
    3d1e:	50                   	push   %eax
    3d1f:	e8 fc ff ff ff       	call   3d20 <reallocf+0x30>
			3d20: R_386_PC32	memcpy
    3d24:	89 34 24             	mov    %esi,(%esp)
    3d27:	e8 fc ff ff ff       	call   3d28 <reallocf+0x38>
			3d28: R_386_PC32	free
    3d2c:	83 c4 10             	add    $0x10,%esp
    3d2f:	8d 65 f4             	lea    -0xc(%ebp),%esp
    3d32:	89 d8                	mov    %ebx,%eax
    3d34:	5b                   	pop    %ebx
    3d35:	5e                   	pop    %esi
    3d36:	5f                   	pop    %edi
    3d37:	5d                   	pop    %ebp
    3d38:	c3                   	ret    
    3d39:	8d b4 26 00 00 00 00 	lea    0x0(%esi,%eiz,1),%esi
    3d40:	85 f6                	test   %esi,%esi
    3d42:	74 1c                	je     3d60 <reallocf+0x70>
    3d44:	83 ec 0c             	sub    $0xc,%esp
    3d47:	31 db                	xor    %ebx,%ebx
    3d49:	56                   	push   %esi
    3d4a:	e8 fc ff ff ff       	call   3d4b <reallocf+0x5b>
			3d4b: R_386_PC32	free
    3d4f:	83 c4 10             	add    $0x10,%esp
    3d52:	8d 65 f4             	lea    -0xc(%ebp),%esp
    3d55:	89 d8                	mov    %ebx,%eax
    3d57:	5b                   	pop    %ebx
    3d58:	5e                   	pop    %esi
    3d59:	5f                   	pop    %edi
    3d5a:	5d                   	pop    %ebp
    3d5b:	c3                   	ret    
    3d5c:	8d 74 26 00          	lea    0x0(%esi,%eiz,1),%esi
    3d60:	8d 65 f4             	lea    -0xc(%ebp),%esp
    3d63:	31 db                	xor    %ebx,%ebx
    3d65:	89 d8                	mov    %ebx,%eax
    3d67:	5b                   	pop    %ebx
    3d68:	5e                   	pop    %esi
    3d69:	5f                   	pop    %edi
    3d6a:	5d                   	pop    %ebp
    3d6b:	c3                   	ret    
    3d6c:	8d 74 26 00          	lea    0x0(%esi,%eiz,1),%esi
    3d70:	89 7d 08             	mov    %edi,0x8(%ebp)
    3d73:	8d 65 f4             	lea    -0xc(%ebp),%esp
    3d76:	5b                   	pop    %ebx
    3d77:	5e                   	pop    %esi
    3d78:	5f                   	pop    %edi
    3d79:	5d                   	pop    %ebp
    3d7a:	e9 fc ff ff ff       	jmp    3d7b <reallocf+0x8b>
			3d7b: R_386_PC32	malloc
    3d7f:	90                   	nop

00003d80 <strtol>:
    3d80:	55                   	push   %ebp
    3d81:	89 e5                	mov    %esp,%ebp
    3d83:	57                   	push   %edi
    3d84:	56                   	push   %esi
    3d85:	53                   	push   %ebx
    3d86:	83 ec 2c             	sub    $0x2c,%esp
    3d89:	8b 45 10             	mov    0x10(%ebp),%eax
    3d8c:	8b 75 08             	mov    0x8(%ebp),%esi
    3d8f:	89 45 dc             	mov    %eax,-0x24(%ebp)
    3d92:	83 f8 24             	cmp    $0x24,%eax
    3d95:	0f 87 c5 01 00 00    	ja     3f60 <strtol+0x1e0>
    3d9b:	8d 74 26 00          	lea    0x0(%esi,%eiz,1),%esi
    3d9f:	90                   	nop
    3da0:	89 f7                	mov    %esi,%edi
    3da2:	0f be 1e             	movsbl (%esi),%ebx
    3da5:	83 ec 0c             	sub    $0xc,%esp
    3da8:	83 c6 01             	add    $0x1,%esi
    3dab:	53                   	push   %ebx
    3dac:	e8 fc ff ff ff       	call   3dad <strtol+0x2d>
			3dad: R_386_PC32	isspace
    3db1:	83 c4 10             	add    $0x10,%esp
    3db4:	85 c0                	test   %eax,%eax
    3db6:	75 e8                	jne    3da0 <strtol+0x20>
    3db8:	89 fa                	mov    %edi,%edx
    3dba:	89 c7                	mov    %eax,%edi
    3dbc:	83 fb 2d             	cmp    $0x2d,%ebx
    3dbf:	0f 84 0b 01 00 00    	je     3ed0 <strtol+0x150>
    3dc5:	c7 45 d0 00 00 00 00 	movl   $0x0,-0x30(%ebp)
    3dcc:	c7 45 d4 ff ff ff 7f 	movl   $0x7fffffff,-0x2c(%ebp)
    3dd3:	83 fb 2b             	cmp    $0x2b,%ebx
    3dd6:	0f 85 08 01 00 00    	jne    3ee4 <strtol+0x164>
    3ddc:	0f be 1e             	movsbl (%esi),%ebx
    3ddf:	8d 72 02             	lea    0x2(%edx),%esi
    3de2:	f7 45 10 ef ff ff ff 	testl  $0xffffffef,0x10(%ebp)
    3de9:	0f 84 02 01 00 00    	je     3ef1 <strtol+0x171>
    3def:	83 7d 10 02          	cmpl   $0x2,0x10(%ebp)
    3df3:	0f 84 a7 01 00 00    	je     3fa0 <strtol+0x220>
    3df9:	8b 45 d4             	mov    -0x2c(%ebp),%eax
    3dfc:	31 d2                	xor    %edx,%edx
    3dfe:	c7 45 e4 00 00 00 00 	movl   $0x0,-0x1c(%ebp)
    3e05:	f7 75 dc             	divl   -0x24(%ebp)
    3e08:	89 55 d8             	mov    %edx,-0x28(%ebp)
    3e0b:	89 45 e0             	mov    %eax,-0x20(%ebp)
    3e0e:	eb 35                	jmp    3e45 <strtol+0xc5>
    3e10:	39 55 10             	cmp    %edx,0x10(%ebp)
    3e13:	7e 73                	jle    3e88 <strtol+0x108>
    3e15:	85 ff                	test   %edi,%edi
    3e17:	0f 88 13 01 00 00    	js     3f30 <strtol+0x1b0>
    3e1d:	8b 45 e4             	mov    -0x1c(%ebp),%eax
    3e20:	8b 4d e0             	mov    -0x20(%ebp),%ecx
    3e23:	39 c8                	cmp    %ecx,%eax
    3e25:	0f 87 05 01 00 00    	ja     3f30 <strtol+0x1b0>
    3e2b:	0f 85 0f 01 00 00    	jne    3f40 <strtol+0x1c0>
    3e31:	bf ff ff ff ff       	mov    $0xffffffff,%edi
    3e36:	3b 55 d8             	cmp    -0x28(%ebp),%edx
    3e39:	0f 8e 01 01 00 00    	jle    3f40 <strtol+0x1c0>
    3e3f:	0f be 1e             	movsbl (%esi),%ebx
    3e42:	83 c6 01             	add    $0x1,%esi
    3e45:	83 ec 0c             	sub    $0xc,%esp
    3e48:	53                   	push   %ebx
    3e49:	e8 fc ff ff ff       	call   3e4a <strtol+0xca>
			3e4a: R_386_PC32	isdigit
    3e4e:	83 c4 10             	add    $0x10,%esp
    3e51:	8d 53 d0             	lea    -0x30(%ebx),%edx
    3e54:	85 c0                	test   %eax,%eax
    3e56:	75 b8                	jne    3e10 <strtol+0x90>
    3e58:	83 ec 0c             	sub    $0xc,%esp
    3e5b:	53                   	push   %ebx
    3e5c:	e8 fc ff ff ff       	call   3e5d <strtol+0xdd>
			3e5d: R_386_PC32	isalpha
    3e61:	83 c4 10             	add    $0x10,%esp
    3e64:	85 c0                	test   %eax,%eax
    3e66:	74 20                	je     3e88 <strtol+0x108>
    3e68:	83 ec 0c             	sub    $0xc,%esp
    3e6b:	53                   	push   %ebx
    3e6c:	e8 fc ff ff ff       	call   3e6d <strtol+0xed>
			3e6d: R_386_PC32	isupper
    3e71:	83 c4 10             	add    $0x10,%esp
    3e74:	89 da                	mov    %ebx,%edx
    3e76:	83 f8 01             	cmp    $0x1,%eax
    3e79:	19 c0                	sbb    %eax,%eax
    3e7b:	83 e0 20             	and    $0x20,%eax
    3e7e:	83 c0 37             	add    $0x37,%eax
    3e81:	29 c2                	sub    %eax,%edx
    3e83:	39 55 10             	cmp    %edx,0x10(%ebp)
    3e86:	7f 8d                	jg     3e15 <strtol+0x95>
    3e88:	83 ff ff             	cmp    $0xffffffff,%edi
    3e8b:	0f 84 ef 00 00 00    	je     3f80 <strtol+0x200>
    3e91:	8b 55 e4             	mov    -0x1c(%ebp),%edx
    3e94:	8b 4d d0             	mov    -0x30(%ebp),%ecx
    3e97:	8b 5d 0c             	mov    0xc(%ebp),%ebx
    3e9a:	89 d0                	mov    %edx,%eax
    3e9c:	f7 d8                	neg    %eax
    3e9e:	85 c9                	test   %ecx,%ecx
    3ea0:	0f 44 c2             	cmove  %edx,%eax
    3ea3:	89 45 e4             	mov    %eax,-0x1c(%ebp)
    3ea6:	85 db                	test   %ebx,%ebx
    3ea8:	74 10                	je     3eba <strtol+0x13a>
    3eaa:	85 ff                	test   %edi,%edi
    3eac:	0f 85 57 01 00 00    	jne    4009 <strtol+0x289>
    3eb2:	8b 45 0c             	mov    0xc(%ebp),%eax
    3eb5:	8b 7d 08             	mov    0x8(%ebp),%edi
    3eb8:	89 38                	mov    %edi,(%eax)
    3eba:	8b 45 e4             	mov    -0x1c(%ebp),%eax
    3ebd:	8d 65 f4             	lea    -0xc(%ebp),%esp
    3ec0:	5b                   	pop    %ebx
    3ec1:	5e                   	pop    %esi
    3ec2:	5f                   	pop    %edi
    3ec3:	5d                   	pop    %ebp
    3ec4:	c3                   	ret    
    3ec5:	8d b4 26 00 00 00 00 	lea    0x0(%esi,%eiz,1),%esi
    3ecc:	8d 74 26 00          	lea    0x0(%esi,%eiz,1),%esi
    3ed0:	c7 45 d4 00 00 00 80 	movl   $0x80000000,-0x2c(%ebp)
    3ed7:	0f be 1e             	movsbl (%esi),%ebx
    3eda:	8d 72 02             	lea    0x2(%edx),%esi
    3edd:	c7 45 d0 01 00 00 00 	movl   $0x1,-0x30(%ebp)
    3ee4:	f7 45 10 ef ff ff ff 	testl  $0xffffffef,0x10(%ebp)
    3eeb:	0f 85 fe fe ff ff    	jne    3def <strtol+0x6f>
    3ef1:	8b 45 10             	mov    0x10(%ebp),%eax
    3ef4:	83 e0 fd             	and    $0xfffffffd,%eax
    3ef7:	83 fb 30             	cmp    $0x30,%ebx
    3efa:	0f 84 c0 00 00 00    	je     3fc0 <strtol+0x240>
    3f00:	85 c0                	test   %eax,%eax
    3f02:	0f 85 f1 fe ff ff    	jne    3df9 <strtol+0x79>
    3f08:	8b 55 10             	mov    0x10(%ebp),%edx
    3f0b:	85 d2                	test   %edx,%edx
    3f0d:	0f 85 e6 fe ff ff    	jne    3df9 <strtol+0x79>
    3f13:	c7 45 dc 0a 00 00 00 	movl   $0xa,-0x24(%ebp)
    3f1a:	c7 45 10 0a 00 00 00 	movl   $0xa,0x10(%ebp)
    3f21:	e9 d3 fe ff ff       	jmp    3df9 <strtol+0x79>
    3f26:	8d b4 26 00 00 00 00 	lea    0x0(%esi,%eiz,1),%esi
    3f2d:	8d 76 00             	lea    0x0(%esi),%esi
    3f30:	bf ff ff ff ff       	mov    $0xffffffff,%edi
    3f35:	e9 05 ff ff ff       	jmp    3e3f <strtol+0xbf>
    3f3a:	8d b6 00 00 00 00    	lea    0x0(%esi),%esi
    3f40:	8b 5d e4             	mov    -0x1c(%ebp),%ebx
    3f43:	0f af 5d dc          	imul   -0x24(%ebp),%ebx
    3f47:	bf 01 00 00 00       	mov    $0x1,%edi
    3f4c:	8d 04 1a             	lea    (%edx,%ebx,1),%eax
    3f4f:	89 45 e4             	mov    %eax,-0x1c(%ebp)
    3f52:	e9 e8 fe ff ff       	jmp    3e3f <strtol+0xbf>
    3f57:	8d b4 26 00 00 00 00 	lea    0x0(%esi,%eiz,1),%esi
    3f5e:	66 90                	xchg   %ax,%ax
    3f60:	8b 55 0c             	mov    0xc(%ebp),%edx
    3f63:	31 c0                	xor    %eax,%eax
    3f65:	85 d2                	test   %edx,%edx
    3f67:	0f 84 50 ff ff ff    	je     3ebd <strtol+0x13d>
    3f6d:	8b 7d 0c             	mov    0xc(%ebp),%edi
    3f70:	89 37                	mov    %esi,(%edi)
    3f72:	8d 65 f4             	lea    -0xc(%ebp),%esp
    3f75:	5b                   	pop    %ebx
    3f76:	5e                   	pop    %esi
    3f77:	5f                   	pop    %edi
    3f78:	5d                   	pop    %ebp
    3f79:	c3                   	ret    
    3f7a:	8d b6 00 00 00 00    	lea    0x0(%esi),%esi
    3f80:	8b 45 0c             	mov    0xc(%ebp),%eax
    3f83:	85 c0                	test   %eax,%eax
    3f85:	74 2a                	je     3fb1 <strtol+0x231>
    3f87:	8d 46 ff             	lea    -0x1(%esi),%eax
    3f8a:	89 45 08             	mov    %eax,0x8(%ebp)
    3f8d:	8b 45 d4             	mov    -0x2c(%ebp),%eax
    3f90:	89 45 e4             	mov    %eax,-0x1c(%ebp)
    3f93:	e9 1a ff ff ff       	jmp    3eb2 <strtol+0x132>
    3f98:	8d b4 26 00 00 00 00 	lea    0x0(%esi,%eiz,1),%esi
    3f9f:	90                   	nop
    3fa0:	83 fb 30             	cmp    $0x30,%ebx
    3fa3:	74 40                	je     3fe5 <strtol+0x265>
    3fa5:	c7 45 dc 02 00 00 00 	movl   $0x2,-0x24(%ebp)
    3fac:	e9 48 fe ff ff       	jmp    3df9 <strtol+0x79>
    3fb1:	8b 45 d4             	mov    -0x2c(%ebp),%eax
    3fb4:	89 45 e4             	mov    %eax,-0x1c(%ebp)
    3fb7:	e9 fe fe ff ff       	jmp    3eba <strtol+0x13a>
    3fbc:	8d 74 26 00          	lea    0x0(%esi,%eiz,1),%esi
    3fc0:	0f b6 16             	movzbl (%esi),%edx
    3fc3:	83 e2 df             	and    $0xffffffdf,%edx
    3fc6:	80 fa 58             	cmp    $0x58,%dl
    3fc9:	75 46                	jne    4011 <strtol+0x291>
    3fcb:	0f be 5e 01          	movsbl 0x1(%esi),%ebx
    3fcf:	c7 45 dc 10 00 00 00 	movl   $0x10,-0x24(%ebp)
    3fd6:	83 c6 02             	add    $0x2,%esi
    3fd9:	c7 45 10 10 00 00 00 	movl   $0x10,0x10(%ebp)
    3fe0:	e9 14 fe ff ff       	jmp    3df9 <strtol+0x79>
    3fe5:	0f b6 06             	movzbl (%esi),%eax
    3fe8:	83 e0 df             	and    $0xffffffdf,%eax
    3feb:	3c 42                	cmp    $0x42,%al
    3fed:	75 b6                	jne    3fa5 <strtol+0x225>
    3fef:	0f be 5e 01          	movsbl 0x1(%esi),%ebx
    3ff3:	c7 45 dc 02 00 00 00 	movl   $0x2,-0x24(%ebp)
    3ffa:	83 c6 02             	add    $0x2,%esi
    3ffd:	c7 45 10 02 00 00 00 	movl   $0x2,0x10(%ebp)
    4004:	e9 f0 fd ff ff       	jmp    3df9 <strtol+0x79>
    4009:	89 45 d4             	mov    %eax,-0x2c(%ebp)
    400c:	e9 76 ff ff ff       	jmp    3f87 <strtol+0x207>
    4011:	85 c0                	test   %eax,%eax
    4013:	0f 85 e0 fd ff ff    	jne    3df9 <strtol+0x79>
    4019:	80 fa 42             	cmp    $0x42,%dl
    401c:	74 d1                	je     3fef <strtol+0x26f>
    401e:	8b 45 10             	mov    0x10(%ebp),%eax
    4021:	85 c0                	test   %eax,%eax
    4023:	0f 85 d0 fd ff ff    	jne    3df9 <strtol+0x79>
    4029:	c7 45 dc 08 00 00 00 	movl   $0x8,-0x24(%ebp)
    4030:	c7 45 10 08 00 00 00 	movl   $0x8,0x10(%ebp)
    4037:	e9 bd fd ff ff       	jmp    3df9 <strtol+0x79>
    403c:	66 90                	xchg   %ax,%ax
    403e:	66 90                	xchg   %ax,%ax

00004040 <strtoll>:
    4040:	55                   	push   %ebp
    4041:	89 e5                	mov    %esp,%ebp
    4043:	57                   	push   %edi
    4044:	56                   	push   %esi
    4045:	53                   	push   %ebx
    4046:	83 ec 3c             	sub    $0x3c,%esp
    4049:	83 7d 10 24          	cmpl   $0x24,0x10(%ebp)
    404d:	8b 75 08             	mov    0x8(%ebp),%esi
    4050:	0f 87 fa 02 00 00    	ja     4350 <strtoll+0x310>
    4056:	8d b4 26 00 00 00 00 	lea    0x0(%esi,%eiz,1),%esi
    405d:	8d 76 00             	lea    0x0(%esi),%esi
    4060:	89 f3                	mov    %esi,%ebx
    4062:	0f b6 3e             	movzbl (%esi),%edi
    4065:	83 ec 0c             	sub    $0xc,%esp
    4068:	83 c6 01             	add    $0x1,%esi
    406b:	57                   	push   %edi
    406c:	e8 fc ff ff ff       	call   406d <strtoll+0x2d>
			406d: R_386_PC32	isspace
    4071:	83 c4 10             	add    $0x10,%esp
    4074:	85 c0                	test   %eax,%eax
    4076:	75 e8                	jne    4060 <strtoll+0x20>
    4078:	89 d9                	mov    %ebx,%ecx
    407a:	89 c3                	mov    %eax,%ebx
    407c:	83 ff 2d             	cmp    $0x2d,%edi
    407f:	0f 84 9b 01 00 00    	je     4220 <strtoll+0x1e0>
    4085:	c7 45 d8 00 00 00 00 	movl   $0x0,-0x28(%ebp)
    408c:	83 ff 2b             	cmp    $0x2b,%edi
    408f:	0f 85 98 01 00 00    	jne    422d <strtoll+0x1ed>
    4095:	0f be 3e             	movsbl (%esi),%edi
    4098:	8d 71 02             	lea    0x2(%ecx),%esi
    409b:	f7 45 10 ef ff ff ff 	testl  $0xffffffef,0x10(%ebp)
    40a2:	0f 84 92 01 00 00    	je     423a <strtoll+0x1fa>
    40a8:	8d b4 26 00 00 00 00 	lea    0x0(%esi,%eiz,1),%esi
    40af:	90                   	nop
    40b0:	8b 45 10             	mov    0x10(%ebp),%eax
    40b3:	89 45 d0             	mov    %eax,-0x30(%ebp)
    40b6:	c1 f8 1f             	sar    $0x1f,%eax
    40b9:	89 45 d4             	mov    %eax,-0x2c(%ebp)
    40bc:	8b 45 d8             	mov    -0x28(%ebp),%eax
    40bf:	85 c0                	test   %eax,%eax
    40c1:	0f 84 a9 01 00 00    	je     4270 <strtoll+0x230>
    40c7:	ff 75 d4             	push   -0x2c(%ebp)
    40ca:	ff 75 d0             	push   -0x30(%ebp)
    40cd:	68 00 00 00 80       	push   $0x80000000
    40d2:	6a 00                	push   $0x0
    40d4:	e8 fc ff ff ff       	call   40d5 <strtoll+0x95>
			40d5: R_386_PC32	__moddi3
    40d9:	83 c4 10             	add    $0x10,%esp
    40dc:	ff 75 d4             	push   -0x2c(%ebp)
    40df:	ff 75 d0             	push   -0x30(%ebp)
    40e2:	68 00 00 00 80       	push   $0x80000000
    40e7:	6a 00                	push   $0x0
    40e9:	89 45 e0             	mov    %eax,-0x20(%ebp)
    40ec:	e8 fc ff ff ff       	call   40ed <strtoll+0xad>
			40ed: R_386_PC32	__divdi3
    40f1:	83 c4 10             	add    $0x10,%esp
    40f4:	89 45 cc             	mov    %eax,-0x34(%ebp)
    40f7:	8b 45 e0             	mov    -0x20(%ebp),%eax
    40fa:	89 55 c8             	mov    %edx,-0x38(%ebp)
    40fd:	f7 d8                	neg    %eax
    40ff:	89 45 c4             	mov    %eax,-0x3c(%ebp)
    4102:	c7 45 e0 00 00 00 00 	movl   $0x0,-0x20(%ebp)
    4109:	c7 45 e4 00 00 00 00 	movl   $0x0,-0x1c(%ebp)
    4110:	89 75 dc             	mov    %esi,-0x24(%ebp)
    4113:	eb 76                	jmp    418b <strtoll+0x14b>
    4115:	8d b4 26 00 00 00 00 	lea    0x0(%esi,%eiz,1),%esi
    411c:	8d 74 26 00          	lea    0x0(%esi,%eiz,1),%esi
    4120:	8b 7d c8             	mov    -0x38(%ebp),%edi
    4123:	39 d8                	cmp    %ebx,%eax
    4125:	89 d6                	mov    %edx,%esi
    4127:	19 fe                	sbb    %edi,%esi
    4129:	0f 8c 01 02 00 00    	jl     4330 <strtoll+0x2f0>
    412f:	3b 4d c4             	cmp    -0x3c(%ebp),%ecx
    4132:	7e 0f                	jle    4143 <strtoll+0x103>
    4134:	8b 55 e4             	mov    -0x1c(%ebp),%edx
    4137:	31 d8                	xor    %ebx,%eax
    4139:	31 fa                	xor    %edi,%edx
    413b:	09 d0                	or     %edx,%eax
    413d:	0f 84 ed 01 00 00    	je     4330 <strtoll+0x2f0>
    4143:	8b 5d e4             	mov    -0x1c(%ebp),%ebx
    4146:	8b 75 d0             	mov    -0x30(%ebp),%esi
    4149:	8b 7d d4             	mov    -0x2c(%ebp),%edi
    414c:	8b 45 e0             	mov    -0x20(%ebp),%eax
    414f:	0f af de             	imul   %esi,%ebx
    4152:	8b 75 e0             	mov    -0x20(%ebp),%esi
    4155:	f7 65 d0             	mull   -0x30(%ebp)
    4158:	0f af f7             	imul   %edi,%esi
    415b:	01 f3                	add    %esi,%ebx
    415d:	01 da                	add    %ebx,%edx
    415f:	89 cb                	mov    %ecx,%ebx
    4161:	c1 fb 1f             	sar    $0x1f,%ebx
    4164:	29 c8                	sub    %ecx,%eax
    4166:	19 da                	sbb    %ebx,%edx
    4168:	89 45 e0             	mov    %eax,-0x20(%ebp)
    416b:	8b 5d d8             	mov    -0x28(%ebp),%ebx
    416e:	89 55 e4             	mov    %edx,-0x1c(%ebp)
    4171:	8d b4 26 00 00 00 00 	lea    0x0(%esi,%eiz,1),%esi
    4178:	8d b4 26 00 00 00 00 	lea    0x0(%esi,%eiz,1),%esi
    417f:	90                   	nop
    4180:	83 45 dc 01          	addl   $0x1,-0x24(%ebp)
    4184:	8b 45 dc             	mov    -0x24(%ebp),%eax
    4187:	0f b6 78 ff          	movzbl -0x1(%eax),%edi
    418b:	83 ec 0c             	sub    $0xc,%esp
    418e:	57                   	push   %edi
    418f:	e8 fc ff ff ff       	call   4190 <strtoll+0x150>
			4190: R_386_PC32	isdigit
    4194:	83 c4 10             	add    $0x10,%esp
    4197:	8d 4f d0             	lea    -0x30(%edi),%ecx
    419a:	85 c0                	test   %eax,%eax
    419c:	0f 84 0e 01 00 00    	je     42b0 <strtoll+0x270>
    41a2:	39 4d 10             	cmp    %ecx,0x10(%ebp)
    41a5:	0f 8e 39 01 00 00    	jle    42e4 <strtoll+0x2a4>
    41ab:	83 fb ff             	cmp    $0xffffffff,%ebx
    41ae:	74 d0                	je     4180 <strtoll+0x140>
    41b0:	8b 75 d8             	mov    -0x28(%ebp),%esi
    41b3:	8b 5d cc             	mov    -0x34(%ebp),%ebx
    41b6:	8b 45 e0             	mov    -0x20(%ebp),%eax
    41b9:	8b 55 e4             	mov    -0x1c(%ebp),%edx
    41bc:	85 f6                	test   %esi,%esi
    41be:	0f 85 5c ff ff ff    	jne    4120 <strtoll+0xe0>
    41c4:	8b 7d c8             	mov    -0x38(%ebp),%edi
    41c7:	39 c3                	cmp    %eax,%ebx
    41c9:	89 fe                	mov    %edi,%esi
    41cb:	19 d6                	sbb    %edx,%esi
    41cd:	0f 8c 3d 01 00 00    	jl     4310 <strtoll+0x2d0>
    41d3:	3b 4d c4             	cmp    -0x3c(%ebp),%ecx
    41d6:	7e 0f                	jle    41e7 <strtoll+0x1a7>
    41d8:	8b 55 e4             	mov    -0x1c(%ebp),%edx
    41db:	31 d8                	xor    %ebx,%eax
    41dd:	31 fa                	xor    %edi,%edx
    41df:	09 d0                	or     %edx,%eax
    41e1:	0f 84 29 01 00 00    	je     4310 <strtoll+0x2d0>
    41e7:	8b 5d e4             	mov    -0x1c(%ebp),%ebx
    41ea:	8b 75 d0             	mov    -0x30(%ebp),%esi
    41ed:	8b 7d d4             	mov    -0x2c(%ebp),%edi
    41f0:	8b 45 e0             	mov    -0x20(%ebp),%eax
    41f3:	0f af de             	imul   %esi,%ebx
    41f6:	8b 75 e0             	mov    -0x20(%ebp),%esi
    41f9:	f7 65 d0             	mull   -0x30(%ebp)
    41fc:	0f af f7             	imul   %edi,%esi
    41ff:	01 f3                	add    %esi,%ebx
    4201:	01 da                	add    %ebx,%edx
    4203:	89 cb                	mov    %ecx,%ebx
    4205:	c1 fb 1f             	sar    $0x1f,%ebx
    4208:	01 c8                	add    %ecx,%eax
    420a:	11 da                	adc    %ebx,%edx
    420c:	89 45 e0             	mov    %eax,-0x20(%ebp)
    420f:	bb 01 00 00 00       	mov    $0x1,%ebx
    4214:	89 55 e4             	mov    %edx,-0x1c(%ebp)
    4217:	e9 64 ff ff ff       	jmp    4180 <strtoll+0x140>
    421c:	8d 74 26 00          	lea    0x0(%esi,%eiz,1),%esi
    4220:	c7 45 d8 01 00 00 00 	movl   $0x1,-0x28(%ebp)
    4227:	0f be 3e             	movsbl (%esi),%edi
    422a:	8d 71 02             	lea    0x2(%ecx),%esi
    422d:	f7 45 10 ef ff ff ff 	testl  $0xffffffef,0x10(%ebp)
    4234:	0f 85 76 fe ff ff    	jne    40b0 <strtoll+0x70>
    423a:	83 ff 30             	cmp    $0x30,%edi
    423d:	0f 84 3d 01 00 00    	je     4380 <strtoll+0x340>
    4243:	8b 45 10             	mov    0x10(%ebp),%eax
    4246:	85 c0                	test   %eax,%eax
    4248:	0f 85 62 fe ff ff    	jne    40b0 <strtoll+0x70>
    424e:	8b 45 d8             	mov    -0x28(%ebp),%eax
    4251:	c7 45 d0 0a 00 00 00 	movl   $0xa,-0x30(%ebp)
    4258:	c7 45 d4 00 00 00 00 	movl   $0x0,-0x2c(%ebp)
    425f:	c7 45 10 0a 00 00 00 	movl   $0xa,0x10(%ebp)
    4266:	85 c0                	test   %eax,%eax
    4268:	0f 85 59 fe ff ff    	jne    40c7 <strtoll+0x87>
    426e:	66 90                	xchg   %ax,%ax
    4270:	ff 75 d4             	push   -0x2c(%ebp)
    4273:	ff 75 d0             	push   -0x30(%ebp)
    4276:	68 ff ff ff 7f       	push   $0x7fffffff
    427b:	6a ff                	push   $0xffffffff
    427d:	e8 fc ff ff ff       	call   427e <strtoll+0x23e>
			427e: R_386_PC32	__moddi3
    4282:	83 c4 10             	add    $0x10,%esp
    4285:	ff 75 d4             	push   -0x2c(%ebp)
    4288:	ff 75 d0             	push   -0x30(%ebp)
    428b:	68 ff ff ff 7f       	push   $0x7fffffff
    4290:	6a ff                	push   $0xffffffff
    4292:	89 45 c4             	mov    %eax,-0x3c(%ebp)
    4295:	e8 fc ff ff ff       	call   4296 <strtoll+0x256>
			4296: R_386_PC32	__divdi3
    429a:	83 c4 10             	add    $0x10,%esp
    429d:	89 45 cc             	mov    %eax,-0x34(%ebp)
    42a0:	89 55 c8             	mov    %edx,-0x38(%ebp)
    42a3:	e9 5a fe ff ff       	jmp    4102 <strtoll+0xc2>
    42a8:	8d b4 26 00 00 00 00 	lea    0x0(%esi,%eiz,1),%esi
    42af:	90                   	nop
    42b0:	83 ec 0c             	sub    $0xc,%esp
    42b3:	57                   	push   %edi
    42b4:	e8 fc ff ff ff       	call   42b5 <strtoll+0x275>
			42b5: R_386_PC32	isalpha
    42b9:	83 c4 10             	add    $0x10,%esp
    42bc:	85 c0                	test   %eax,%eax
    42be:	74 24                	je     42e4 <strtoll+0x2a4>
    42c0:	83 ec 0c             	sub    $0xc,%esp
    42c3:	57                   	push   %edi
    42c4:	e8 fc ff ff ff       	call   42c5 <strtoll+0x285>
			42c5: R_386_PC32	isupper
    42c9:	83 c4 10             	add    $0x10,%esp
    42cc:	89 f9                	mov    %edi,%ecx
    42ce:	83 f8 01             	cmp    $0x1,%eax
    42d1:	19 c0                	sbb    %eax,%eax
    42d3:	83 e0 20             	and    $0x20,%eax
    42d6:	83 c0 37             	add    $0x37,%eax
    42d9:	29 c1                	sub    %eax,%ecx
    42db:	39 4d 10             	cmp    %ecx,0x10(%ebp)
    42de:	0f 8f c7 fe ff ff    	jg     41ab <strtoll+0x16b>
    42e4:	8b 55 0c             	mov    0xc(%ebp),%edx
    42e7:	8b 75 dc             	mov    -0x24(%ebp),%esi
    42ea:	85 d2                	test   %edx,%edx
    42ec:	74 14                	je     4302 <strtoll+0x2c2>
    42ee:	8d 46 ff             	lea    -0x1(%esi),%eax
    42f1:	85 db                	test   %ebx,%ebx
    42f3:	0f 44 45 08          	cmove  0x8(%ebp),%eax
    42f7:	89 45 08             	mov    %eax,0x8(%ebp)
    42fa:	8b 45 0c             	mov    0xc(%ebp),%eax
    42fd:	8b 4d 08             	mov    0x8(%ebp),%ecx
    4300:	89 08                	mov    %ecx,(%eax)
    4302:	8b 45 e0             	mov    -0x20(%ebp),%eax
    4305:	8b 55 e4             	mov    -0x1c(%ebp),%edx
    4308:	8d 65 f4             	lea    -0xc(%ebp),%esp
    430b:	5b                   	pop    %ebx
    430c:	5e                   	pop    %esi
    430d:	5f                   	pop    %edi
    430e:	5d                   	pop    %ebp
    430f:	c3                   	ret    
    4310:	c7 45 e0 ff ff ff ff 	movl   $0xffffffff,-0x20(%ebp)
    4317:	bb ff ff ff ff       	mov    $0xffffffff,%ebx
    431c:	c7 45 e4 ff ff ff 7f 	movl   $0x7fffffff,-0x1c(%ebp)
    4323:	e9 58 fe ff ff       	jmp    4180 <strtoll+0x140>
    4328:	8d b4 26 00 00 00 00 	lea    0x0(%esi,%eiz,1),%esi
    432f:	90                   	nop
    4330:	c7 45 e0 00 00 00 00 	movl   $0x0,-0x20(%ebp)
    4337:	bb ff ff ff ff       	mov    $0xffffffff,%ebx
    433c:	c7 45 e4 00 00 00 80 	movl   $0x80000000,-0x1c(%ebp)
    4343:	e9 38 fe ff ff       	jmp    4180 <strtoll+0x140>
    4348:	8d b4 26 00 00 00 00 	lea    0x0(%esi,%eiz,1),%esi
    434f:	90                   	nop
    4350:	8b 45 0c             	mov    0xc(%ebp),%eax
    4353:	c7 45 e0 00 00 00 00 	movl   $0x0,-0x20(%ebp)
    435a:	c7 45 e4 00 00 00 00 	movl   $0x0,-0x1c(%ebp)
    4361:	85 c0                	test   %eax,%eax
    4363:	74 9d                	je     4302 <strtoll+0x2c2>
    4365:	8b 45 0c             	mov    0xc(%ebp),%eax
    4368:	8b 55 e4             	mov    -0x1c(%ebp),%edx
    436b:	89 30                	mov    %esi,(%eax)
    436d:	8b 45 e0             	mov    -0x20(%ebp),%eax
    4370:	8d 65 f4             	lea    -0xc(%ebp),%esp
    4373:	5b                   	pop    %ebx
    4374:	5e                   	pop    %esi
    4375:	5f                   	pop    %edi
    4376:	5d                   	pop    %ebp
    4377:	c3                   	ret    
    4378:	8d b4 26 00 00 00 00 	lea    0x0(%esi,%eiz,1),%esi
    437f:	90                   	nop
    4380:	0f b6 06             	movzbl (%esi),%eax
    4383:	83 e0 df             	and    $0xffffffdf,%eax
    4386:	3c 58                	cmp    $0x58,%al
    4388:	75 21                	jne    43ab <strtoll+0x36b>
    438a:	0f be 7e 01          	movsbl 0x1(%esi),%edi
    438e:	c7 45 d0 10 00 00 00 	movl   $0x10,-0x30(%ebp)
    4395:	83 c6 02             	add    $0x2,%esi
    4398:	c7 45 d4 00 00 00 00 	movl   $0x0,-0x2c(%ebp)
    439f:	c7 45 10 10 00 00 00 	movl   $0x10,0x10(%ebp)
    43a6:	e9 11 fd ff ff       	jmp    40bc <strtoll+0x7c>
    43ab:	8b 45 10             	mov    0x10(%ebp),%eax
    43ae:	85 c0                	test   %eax,%eax
    43b0:	0f 85 fa fc ff ff    	jne    40b0 <strtoll+0x70>
    43b6:	c7 45 d0 08 00 00 00 	movl   $0x8,-0x30(%ebp)
    43bd:	c7 45 d4 00 00 00 00 	movl   $0x0,-0x2c(%ebp)
    43c4:	c7 45 10 08 00 00 00 	movl   $0x8,0x10(%ebp)
    43cb:	e9 ec fc ff ff       	jmp    40bc <strtoll+0x7c>

000043d0 <strtoul>:
    43d0:	55                   	push   %ebp
    43d1:	89 e5                	mov    %esp,%ebp
    43d3:	57                   	push   %edi
    43d4:	56                   	push   %esi
    43d5:	53                   	push   %ebx
    43d6:	83 ec 2c             	sub    $0x2c,%esp
    43d9:	8b 75 08             	mov    0x8(%ebp),%esi
    43dc:	8d 74 26 00          	lea    0x0(%esi,%eiz,1),%esi
    43e0:	89 f7                	mov    %esi,%edi
    43e2:	0f be 1e             	movsbl (%esi),%ebx
    43e5:	83 ec 0c             	sub    $0xc,%esp
    43e8:	83 c6 01             	add    $0x1,%esi
    43eb:	53                   	push   %ebx
    43ec:	e8 fc ff ff ff       	call   43ed <strtoul+0x1d>
			43ed: R_386_PC32	isspace
    43f1:	83 c4 10             	add    $0x10,%esp
    43f4:	85 c0                	test   %eax,%eax
    43f6:	75 e8                	jne    43e0 <strtoul+0x10>
    43f8:	89 fa                	mov    %edi,%edx
    43fa:	89 c7                	mov    %eax,%edi
    43fc:	83 fb 2d             	cmp    $0x2d,%ebx
    43ff:	0f 84 db 01 00 00    	je     45e0 <strtoul+0x210>
    4405:	c7 45 d4 00 00 00 00 	movl   $0x0,-0x2c(%ebp)
    440c:	83 fb 2b             	cmp    $0x2b,%ebx
    440f:	0f 84 6b 01 00 00    	je     4580 <strtoul+0x1b0>
    4415:	f7 45 10 ef ff ff ff 	testl  $0xffffffef,0x10(%ebp)
    441c:	75 42                	jne    4460 <strtoul+0x90>
    441e:	8b 45 10             	mov    0x10(%ebp),%eax
    4421:	83 e0 fd             	and    $0xfffffffd,%eax
    4424:	83 fb 30             	cmp    $0x30,%ebx
    4427:	0f 84 d3 01 00 00    	je     4600 <strtoul+0x230>
    442d:	85 c0                	test   %eax,%eax
    442f:	75 39                	jne    446a <strtoul+0x9a>
    4431:	8b 55 10             	mov    0x10(%ebp),%edx
    4434:	85 d2                	test   %edx,%edx
    4436:	75 32                	jne    446a <strtoul+0x9a>
    4438:	c7 45 dc 05 00 00 00 	movl   $0x5,-0x24(%ebp)
    443f:	c7 45 e0 99 99 99 19 	movl   $0x19999999,-0x20(%ebp)
    4446:	c7 45 d8 0a 00 00 00 	movl   $0xa,-0x28(%ebp)
    444d:	c7 45 10 0a 00 00 00 	movl   $0xa,0x10(%ebp)
    4454:	eb 2a                	jmp    4480 <strtoul+0xb0>
    4456:	8d b4 26 00 00 00 00 	lea    0x0(%esi,%eiz,1),%esi
    445d:	8d 76 00             	lea    0x0(%esi),%esi
    4460:	83 7d 10 02          	cmpl   $0x2,0x10(%ebp)
    4464:	0f 84 e6 00 00 00    	je     4550 <strtoul+0x180>
    446a:	8b 45 10             	mov    0x10(%ebp),%eax
    446d:	31 d2                	xor    %edx,%edx
    446f:	89 45 d8             	mov    %eax,-0x28(%ebp)
    4472:	b8 ff ff ff ff       	mov    $0xffffffff,%eax
    4477:	f7 75 10             	divl   0x10(%ebp)
    447a:	89 55 dc             	mov    %edx,-0x24(%ebp)
    447d:	89 45 e0             	mov    %eax,-0x20(%ebp)
    4480:	c7 45 e4 00 00 00 00 	movl   $0x0,-0x1c(%ebp)
    4487:	eb 3c                	jmp    44c5 <strtoul+0xf5>
    4489:	8d b4 26 00 00 00 00 	lea    0x0(%esi,%eiz,1),%esi
    4490:	39 55 10             	cmp    %edx,0x10(%ebp)
    4493:	7e 73                	jle    4508 <strtoul+0x138>
    4495:	85 ff                	test   %edi,%edi
    4497:	0f 88 f3 00 00 00    	js     4590 <strtoul+0x1c0>
    449d:	8b 45 e4             	mov    -0x1c(%ebp),%eax
    44a0:	8b 4d e0             	mov    -0x20(%ebp),%ecx
    44a3:	39 c8                	cmp    %ecx,%eax
    44a5:	0f 87 e5 00 00 00    	ja     4590 <strtoul+0x1c0>
    44ab:	0f 85 ef 00 00 00    	jne    45a0 <strtoul+0x1d0>
    44b1:	bf ff ff ff ff       	mov    $0xffffffff,%edi
    44b6:	3b 55 dc             	cmp    -0x24(%ebp),%edx
    44b9:	0f 8e e1 00 00 00    	jle    45a0 <strtoul+0x1d0>
    44bf:	0f be 1e             	movsbl (%esi),%ebx
    44c2:	83 c6 01             	add    $0x1,%esi
    44c5:	83 ec 0c             	sub    $0xc,%esp
    44c8:	53                   	push   %ebx
    44c9:	e8 fc ff ff ff       	call   44ca <strtoul+0xfa>
			44ca: R_386_PC32	isdigit
    44ce:	83 c4 10             	add    $0x10,%esp
    44d1:	8d 53 d0             	lea    -0x30(%ebx),%edx
    44d4:	85 c0                	test   %eax,%eax
    44d6:	75 b8                	jne    4490 <strtoul+0xc0>
    44d8:	83 ec 0c             	sub    $0xc,%esp
    44db:	53                   	push   %ebx
    44dc:	e8 fc ff ff ff       	call   44dd <strtoul+0x10d>
			44dd: R_386_PC32	isalpha
    44e1:	83 c4 10             	add    $0x10,%esp
    44e4:	85 c0                	test   %eax,%eax
    44e6:	74 20                	je     4508 <strtoul+0x138>
    44e8:	83 ec 0c             	sub    $0xc,%esp
    44eb:	53                   	push   %ebx
    44ec:	e8 fc ff ff ff       	call   44ed <strtoul+0x11d>
			44ed: R_386_PC32	isupper
    44f1:	83 c4 10             	add    $0x10,%esp
    44f4:	89 da                	mov    %ebx,%edx
    44f6:	83 f8 01             	cmp    $0x1,%eax
    44f9:	19 c0                	sbb    %eax,%eax
    44fb:	83 e0 20             	and    $0x20,%eax
    44fe:	83 c0 37             	add    $0x37,%eax
    4501:	29 c2                	sub    %eax,%edx
    4503:	39 55 10             	cmp    %edx,0x10(%ebp)
    4506:	7f 8d                	jg     4495 <strtoul+0xc5>
    4508:	83 ff ff             	cmp    $0xffffffff,%edi
    450b:	0f 84 af 00 00 00    	je     45c0 <strtoul+0x1f0>
    4511:	8b 55 e4             	mov    -0x1c(%ebp),%edx
    4514:	8b 4d d4             	mov    -0x2c(%ebp),%ecx
    4517:	8b 5d 0c             	mov    0xc(%ebp),%ebx
    451a:	89 d0                	mov    %edx,%eax
    451c:	f7 d8                	neg    %eax
    451e:	85 c9                	test   %ecx,%ecx
    4520:	0f 44 c2             	cmove  %edx,%eax
    4523:	89 45 e4             	mov    %eax,-0x1c(%ebp)
    4526:	85 db                	test   %ebx,%ebx
    4528:	74 10                	je     453a <strtoul+0x16a>
    452a:	85 ff                	test   %edi,%edi
    452c:	0f 85 a0 00 00 00    	jne    45d2 <strtoul+0x202>
    4532:	8b 45 0c             	mov    0xc(%ebp),%eax
    4535:	8b 7d 08             	mov    0x8(%ebp),%edi
    4538:	89 38                	mov    %edi,(%eax)
    453a:	8b 45 e4             	mov    -0x1c(%ebp),%eax
    453d:	8d 65 f4             	lea    -0xc(%ebp),%esp
    4540:	5b                   	pop    %ebx
    4541:	5e                   	pop    %esi
    4542:	5f                   	pop    %edi
    4543:	5d                   	pop    %ebp
    4544:	c3                   	ret    
    4545:	8d b4 26 00 00 00 00 	lea    0x0(%esi,%eiz,1),%esi
    454c:	8d 74 26 00          	lea    0x0(%esi,%eiz,1),%esi
    4550:	83 fb 30             	cmp    $0x30,%ebx
    4553:	0f 84 da 00 00 00    	je     4633 <strtoul+0x263>
    4559:	c7 45 dc 01 00 00 00 	movl   $0x1,-0x24(%ebp)
    4560:	c7 45 e0 ff ff ff 7f 	movl   $0x7fffffff,-0x20(%ebp)
    4567:	c7 45 d8 02 00 00 00 	movl   $0x2,-0x28(%ebp)
    456e:	e9 0d ff ff ff       	jmp    4480 <strtoul+0xb0>
    4573:	8d b4 26 00 00 00 00 	lea    0x0(%esi,%eiz,1),%esi
    457a:	8d b6 00 00 00 00    	lea    0x0(%esi),%esi
    4580:	0f be 1e             	movsbl (%esi),%ebx
    4583:	8d 72 02             	lea    0x2(%edx),%esi
    4586:	e9 8a fe ff ff       	jmp    4415 <strtoul+0x45>
    458b:	8d 74 26 00          	lea    0x0(%esi,%eiz,1),%esi
    458f:	90                   	nop
    4590:	bf ff ff ff ff       	mov    $0xffffffff,%edi
    4595:	e9 25 ff ff ff       	jmp    44bf <strtoul+0xef>
    459a:	8d b6 00 00 00 00    	lea    0x0(%esi),%esi
    45a0:	8b 5d e4             	mov    -0x1c(%ebp),%ebx
    45a3:	0f af 5d d8          	imul   -0x28(%ebp),%ebx
    45a7:	bf 01 00 00 00       	mov    $0x1,%edi
    45ac:	8d 04 1a             	lea    (%edx,%ebx,1),%eax
    45af:	89 45 e4             	mov    %eax,-0x1c(%ebp)
    45b2:	e9 08 ff ff ff       	jmp    44bf <strtoul+0xef>
    45b7:	8d b4 26 00 00 00 00 	lea    0x0(%esi,%eiz,1),%esi
    45be:	66 90                	xchg   %ax,%ax
    45c0:	8b 45 0c             	mov    0xc(%ebp),%eax
    45c3:	c7 45 e4 ff ff ff ff 	movl   $0xffffffff,-0x1c(%ebp)
    45ca:	85 c0                	test   %eax,%eax
    45cc:	0f 84 68 ff ff ff    	je     453a <strtoul+0x16a>
    45d2:	8d 46 ff             	lea    -0x1(%esi),%eax
    45d5:	89 45 08             	mov    %eax,0x8(%ebp)
    45d8:	e9 55 ff ff ff       	jmp    4532 <strtoul+0x162>
    45dd:	8d 76 00             	lea    0x0(%esi),%esi
    45e0:	0f be 1e             	movsbl (%esi),%ebx
    45e3:	c7 45 d4 01 00 00 00 	movl   $0x1,-0x2c(%ebp)
    45ea:	8d 72 02             	lea    0x2(%edx),%esi
    45ed:	e9 23 fe ff ff       	jmp    4415 <strtoul+0x45>
    45f2:	8d b4 26 00 00 00 00 	lea    0x0(%esi,%eiz,1),%esi
    45f9:	8d b4 26 00 00 00 00 	lea    0x0(%esi,%eiz,1),%esi
    4600:	0f b6 16             	movzbl (%esi),%edx
    4603:	83 e2 df             	and    $0xffffffdf,%edx
    4606:	80 fa 58             	cmp    $0x58,%dl
    4609:	75 5e                	jne    4669 <strtoul+0x299>
    460b:	0f be 5e 01          	movsbl 0x1(%esi),%ebx
    460f:	c7 45 dc 0f 00 00 00 	movl   $0xf,-0x24(%ebp)
    4616:	83 c6 02             	add    $0x2,%esi
    4619:	c7 45 e0 ff ff ff 0f 	movl   $0xfffffff,-0x20(%ebp)
    4620:	c7 45 d8 10 00 00 00 	movl   $0x10,-0x28(%ebp)
    4627:	c7 45 10 10 00 00 00 	movl   $0x10,0x10(%ebp)
    462e:	e9 4d fe ff ff       	jmp    4480 <strtoul+0xb0>
    4633:	0f b6 06             	movzbl (%esi),%eax
    4636:	83 e0 df             	and    $0xffffffdf,%eax
    4639:	3c 42                	cmp    $0x42,%al
    463b:	0f 85 18 ff ff ff    	jne    4559 <strtoul+0x189>
    4641:	0f be 5e 01          	movsbl 0x1(%esi),%ebx
    4645:	c7 45 dc 01 00 00 00 	movl   $0x1,-0x24(%ebp)
    464c:	83 c6 02             	add    $0x2,%esi
    464f:	c7 45 e0 ff ff ff 7f 	movl   $0x7fffffff,-0x20(%ebp)
    4656:	c7 45 d8 02 00 00 00 	movl   $0x2,-0x28(%ebp)
    465d:	c7 45 10 02 00 00 00 	movl   $0x2,0x10(%ebp)
    4664:	e9 17 fe ff ff       	jmp    4480 <strtoul+0xb0>
    4669:	85 c0                	test   %eax,%eax
    466b:	0f 85 f9 fd ff ff    	jne    446a <strtoul+0x9a>
    4671:	80 fa 42             	cmp    $0x42,%dl
    4674:	74 cb                	je     4641 <strtoul+0x271>
    4676:	8b 45 10             	mov    0x10(%ebp),%eax
    4679:	85 c0                	test   %eax,%eax
    467b:	0f 85 e9 fd ff ff    	jne    446a <strtoul+0x9a>
    4681:	c7 45 dc 07 00 00 00 	movl   $0x7,-0x24(%ebp)
    4688:	c7 45 e0 ff ff ff 1f 	movl   $0x1fffffff,-0x20(%ebp)
    468f:	c7 45 d8 08 00 00 00 	movl   $0x8,-0x28(%ebp)
    4696:	c7 45 10 08 00 00 00 	movl   $0x8,0x10(%ebp)
    469d:	e9 de fd ff ff       	jmp    4480 <strtoul+0xb0>
    46a2:	66 90                	xchg   %ax,%ax
    46a4:	66 90                	xchg   %ax,%ax
    46a6:	66 90                	xchg   %ax,%ax
    46a8:	66 90                	xchg   %ax,%ax
    46aa:	66 90                	xchg   %ax,%ax
    46ac:	66 90                	xchg   %ax,%ax
    46ae:	66 90                	xchg   %ax,%ax

000046b0 <strtoull>:
    46b0:	55                   	push   %ebp
    46b1:	89 e5                	mov    %esp,%ebp
    46b3:	57                   	push   %edi
    46b4:	56                   	push   %esi
    46b5:	53                   	push   %ebx
    46b6:	83 ec 2c             	sub    $0x2c,%esp
    46b9:	8b 75 08             	mov    0x8(%ebp),%esi
    46bc:	8d 74 26 00          	lea    0x0(%esi,%eiz,1),%esi
    46c0:	89 f7                	mov    %esi,%edi
    46c2:	0f b6 06             	movzbl (%esi),%eax
    46c5:	83 ec 0c             	sub    $0xc,%esp
    46c8:	83 c6 01             	add    $0x1,%esi
    46cb:	50                   	push   %eax
    46cc:	89 c3                	mov    %eax,%ebx
    46ce:	e8 fc ff ff ff       	call   46cf <strtoull+0x1f>
			46cf: R_386_PC32	isspace
    46d3:	83 c4 10             	add    $0x10,%esp
    46d6:	85 c0                	test   %eax,%eax
    46d8:	75 e6                	jne    46c0 <strtoull+0x10>
    46da:	89 d9                	mov    %ebx,%ecx
    46dc:	89 c3                	mov    %eax,%ebx
    46de:	80 f9 2d             	cmp    $0x2d,%cl
    46e1:	0f 84 a9 01 00 00    	je     4890 <strtoull+0x1e0>
    46e7:	c7 45 c8 00 00 00 00 	movl   $0x0,-0x38(%ebp)
    46ee:	80 f9 2b             	cmp    $0x2b,%cl
    46f1:	0f 84 09 01 00 00    	je     4800 <strtoull+0x150>
    46f7:	f7 45 10 ef ff ff ff 	testl  $0xffffffef,0x10(%ebp)
    46fe:	74 30                	je     4730 <strtoull+0x80>
    4700:	8b 45 10             	mov    0x10(%ebp),%eax
    4703:	83 e8 02             	sub    $0x2,%eax
    4706:	83 f8 22             	cmp    $0x22,%eax
    4709:	0f 86 e1 01 00 00    	jbe    48f0 <strtoull+0x240>
    470f:	8b 4d 0c             	mov    0xc(%ebp),%ecx
    4712:	31 c0                	xor    %eax,%eax
    4714:	31 d2                	xor    %edx,%edx
    4716:	85 c9                	test   %ecx,%ecx
    4718:	74 08                	je     4722 <strtoull+0x72>
    471a:	8b 75 0c             	mov    0xc(%ebp),%esi
    471d:	8b 7d 08             	mov    0x8(%ebp),%edi
    4720:	89 3e                	mov    %edi,(%esi)
    4722:	8d 65 f4             	lea    -0xc(%ebp),%esp
    4725:	5b                   	pop    %ebx
    4726:	5e                   	pop    %esi
    4727:	5f                   	pop    %edi
    4728:	5d                   	pop    %ebp
    4729:	c3                   	ret    
    472a:	8d b6 00 00 00 00    	lea    0x0(%esi),%esi
    4730:	80 f9 30             	cmp    $0x30,%cl
    4733:	0f 84 77 01 00 00    	je     48b0 <strtoull+0x200>
    4739:	8b 45 10             	mov    0x10(%ebp),%eax
    473c:	85 c0                	test   %eax,%eax
    473e:	75 c0                	jne    4700 <strtoull+0x50>
    4740:	c7 45 cc 05 00 00 00 	movl   $0x5,-0x34(%ebp)
    4747:	c7 45 d4 99 99 99 99 	movl   $0x99999999,-0x2c(%ebp)
    474e:	c7 45 d0 99 99 99 19 	movl   $0x19999999,-0x30(%ebp)
    4755:	c7 45 d8 0a 00 00 00 	movl   $0xa,-0x28(%ebp)
    475c:	c7 45 dc 00 00 00 00 	movl   $0x0,-0x24(%ebp)
    4763:	c7 45 10 0a 00 00 00 	movl   $0xa,0x10(%ebp)
    476a:	31 c0                	xor    %eax,%eax
    476c:	31 d2                	xor    %edx,%edx
    476e:	89 cf                	mov    %ecx,%edi
    4770:	89 45 e0             	mov    %eax,-0x20(%ebp)
    4773:	89 55 e4             	mov    %edx,-0x1c(%ebp)
    4776:	eb 52                	jmp    47ca <strtoull+0x11a>
    4778:	8d b4 26 00 00 00 00 	lea    0x0(%esi,%eiz,1),%esi
    477f:	90                   	nop
    4780:	33 55 e4             	xor    -0x1c(%ebp),%edx
    4783:	33 45 e0             	xor    -0x20(%ebp),%eax
    4786:	89 d3                	mov    %edx,%ebx
    4788:	09 c3                	or     %eax,%ebx
    478a:	75 0a                	jne    4796 <strtoull+0xe6>
    478c:	bb ff ff ff ff       	mov    $0xffffffff,%ebx
    4791:	3b 4d cc             	cmp    -0x34(%ebp),%ecx
    4794:	7f 2e                	jg     47c4 <strtoull+0x114>
    4796:	8b 45 d8             	mov    -0x28(%ebp),%eax
    4799:	8b 5d e4             	mov    -0x1c(%ebp),%ebx
    479c:	8b 55 dc             	mov    -0x24(%ebp),%edx
    479f:	0f af 55 e0          	imul   -0x20(%ebp),%edx
    47a3:	0f af d8             	imul   %eax,%ebx
    47a6:	8b 45 e0             	mov    -0x20(%ebp),%eax
    47a9:	01 d3                	add    %edx,%ebx
    47ab:	f7 65 d8             	mull   -0x28(%ebp)
    47ae:	01 da                	add    %ebx,%edx
    47b0:	89 cb                	mov    %ecx,%ebx
    47b2:	c1 fb 1f             	sar    $0x1f,%ebx
    47b5:	01 c8                	add    %ecx,%eax
    47b7:	11 da                	adc    %ebx,%edx
    47b9:	89 45 e0             	mov    %eax,-0x20(%ebp)
    47bc:	bb 01 00 00 00       	mov    $0x1,%ebx
    47c1:	89 55 e4             	mov    %edx,-0x1c(%ebp)
    47c4:	0f b6 3e             	movzbl (%esi),%edi
    47c7:	83 c6 01             	add    $0x1,%esi
    47ca:	8d 4f d0             	lea    -0x30(%edi),%ecx
    47cd:	80 f9 09             	cmp    $0x9,%cl
    47d0:	76 0b                	jbe    47dd <strtoull+0x12d>
    47d2:	8d 4f bf             	lea    -0x41(%edi),%ecx
    47d5:	80 f9 19             	cmp    $0x19,%cl
    47d8:	77 36                	ja     4810 <strtoull+0x160>
    47da:	8d 4f b5             	lea    -0x4b(%edi),%ecx
    47dd:	0f be c9             	movsbl %cl,%ecx
    47e0:	3b 4d 10             	cmp    0x10(%ebp),%ecx
    47e3:	7d 4b                	jge    4830 <strtoull+0x180>
    47e5:	85 db                	test   %ebx,%ebx
    47e7:	78 10                	js     47f9 <strtoull+0x149>
    47e9:	8b 55 d0             	mov    -0x30(%ebp),%edx
    47ec:	8b 45 d4             	mov    -0x2c(%ebp),%eax
    47ef:	3b 45 e0             	cmp    -0x20(%ebp),%eax
    47f2:	89 d7                	mov    %edx,%edi
    47f4:	1b 7d e4             	sbb    -0x1c(%ebp),%edi
    47f7:	73 87                	jae    4780 <strtoull+0xd0>
    47f9:	bb ff ff ff ff       	mov    $0xffffffff,%ebx
    47fe:	eb c4                	jmp    47c4 <strtoull+0x114>
    4800:	0f b6 0e             	movzbl (%esi),%ecx
    4803:	8d 77 02             	lea    0x2(%edi),%esi
    4806:	e9 ec fe ff ff       	jmp    46f7 <strtoull+0x47>
    480b:	8d 74 26 00          	lea    0x0(%esi,%eiz,1),%esi
    480f:	90                   	nop
    4810:	8d 4f 9f             	lea    -0x61(%edi),%ecx
    4813:	80 f9 19             	cmp    $0x19,%cl
    4816:	77 18                	ja     4830 <strtoull+0x180>
    4818:	8d 4f 95             	lea    -0x6b(%edi),%ecx
    481b:	0f be c9             	movsbl %cl,%ecx
    481e:	3b 4d 10             	cmp    0x10(%ebp),%ecx
    4821:	7c c2                	jl     47e5 <strtoull+0x135>
    4823:	8d b4 26 00 00 00 00 	lea    0x0(%esi,%eiz,1),%esi
    482a:	8d b6 00 00 00 00    	lea    0x0(%esi),%esi
    4830:	8b 45 e0             	mov    -0x20(%ebp),%eax
    4833:	8b 55 e4             	mov    -0x1c(%ebp),%edx
    4836:	83 fb ff             	cmp    $0xffffffff,%ebx
    4839:	74 35                	je     4870 <strtoull+0x1c0>
    483b:	85 db                	test   %ebx,%ebx
    483d:	0f 84 cc fe ff ff    	je     470f <strtoull+0x5f>
    4843:	8b 7d c8             	mov    -0x38(%ebp),%edi
    4846:	85 ff                	test   %edi,%edi
    4848:	74 30                	je     487a <strtoull+0x1ca>
    484a:	f7 d8                	neg    %eax
    484c:	8b 5d 0c             	mov    0xc(%ebp),%ebx
    484f:	83 d2 00             	adc    $0x0,%edx
    4852:	f7 da                	neg    %edx
    4854:	85 db                	test   %ebx,%ebx
    4856:	0f 84 c6 fe ff ff    	je     4722 <strtoull+0x72>
    485c:	83 ee 01             	sub    $0x1,%esi
    485f:	89 75 08             	mov    %esi,0x8(%ebp)
    4862:	e9 b3 fe ff ff       	jmp    471a <strtoull+0x6a>
    4867:	8d b4 26 00 00 00 00 	lea    0x0(%esi,%eiz,1),%esi
    486e:	66 90                	xchg   %ax,%ax
    4870:	b8 ff ff ff ff       	mov    $0xffffffff,%eax
    4875:	ba ff ff ff ff       	mov    $0xffffffff,%edx
    487a:	8b 4d 0c             	mov    0xc(%ebp),%ecx
    487d:	85 c9                	test   %ecx,%ecx
    487f:	0f 84 9d fe ff ff    	je     4722 <strtoull+0x72>
    4885:	83 ee 01             	sub    $0x1,%esi
    4888:	89 75 08             	mov    %esi,0x8(%ebp)
    488b:	e9 8a fe ff ff       	jmp    471a <strtoull+0x6a>
    4890:	0f b6 0e             	movzbl (%esi),%ecx
    4893:	c7 45 c8 01 00 00 00 	movl   $0x1,-0x38(%ebp)
    489a:	8d 77 02             	lea    0x2(%edi),%esi
    489d:	e9 55 fe ff ff       	jmp    46f7 <strtoull+0x47>
    48a2:	8d b4 26 00 00 00 00 	lea    0x0(%esi,%eiz,1),%esi
    48a9:	8d b4 26 00 00 00 00 	lea    0x0(%esi,%eiz,1),%esi
    48b0:	0f b6 06             	movzbl (%esi),%eax
    48b3:	83 e0 df             	and    $0xffffffdf,%eax
    48b6:	3c 58                	cmp    $0x58,%al
    48b8:	75 75                	jne    492f <strtoull+0x27f>
    48ba:	0f b6 4e 01          	movzbl 0x1(%esi),%ecx
    48be:	c7 45 cc 0f 00 00 00 	movl   $0xf,-0x34(%ebp)
    48c5:	83 c6 02             	add    $0x2,%esi
    48c8:	c7 45 d4 ff ff ff ff 	movl   $0xffffffff,-0x2c(%ebp)
    48cf:	c7 45 d0 ff ff ff 0f 	movl   $0xfffffff,-0x30(%ebp)
    48d6:	c7 45 d8 10 00 00 00 	movl   $0x10,-0x28(%ebp)
    48dd:	c7 45 dc 00 00 00 00 	movl   $0x0,-0x24(%ebp)
    48e4:	c7 45 10 10 00 00 00 	movl   $0x10,0x10(%ebp)
    48eb:	e9 7a fe ff ff       	jmp    476a <strtoull+0xba>
    48f0:	8b 45 10             	mov    0x10(%ebp),%eax
    48f3:	88 4d e0             	mov    %cl,-0x20(%ebp)
    48f6:	99                   	cltd   
    48f7:	89 45 d8             	mov    %eax,-0x28(%ebp)
    48fa:	52                   	push   %edx
    48fb:	50                   	push   %eax
    48fc:	6a ff                	push   $0xffffffff
    48fe:	6a ff                	push   $0xffffffff
    4900:	89 55 dc             	mov    %edx,-0x24(%ebp)
    4903:	e8 fc ff ff ff       	call   4904 <strtoull+0x254>
			4904: R_386_PC32	__udivdi3
    4908:	83 c4 10             	add    $0x10,%esp
    490b:	ff 75 dc             	push   -0x24(%ebp)
    490e:	ff 75 d8             	push   -0x28(%ebp)
    4911:	6a ff                	push   $0xffffffff
    4913:	6a ff                	push   $0xffffffff
    4915:	89 45 d4             	mov    %eax,-0x2c(%ebp)
    4918:	89 55 d0             	mov    %edx,-0x30(%ebp)
    491b:	e8 fc ff ff ff       	call   491c <strtoull+0x26c>
			491c: R_386_PC32	__umoddi3
    4920:	0f b6 4d e0          	movzbl -0x20(%ebp),%ecx
    4924:	83 c4 10             	add    $0x10,%esp
    4927:	89 45 cc             	mov    %eax,-0x34(%ebp)
    492a:	e9 3b fe ff ff       	jmp    476a <strtoull+0xba>
    492f:	8b 7d 10             	mov    0x10(%ebp),%edi
    4932:	85 ff                	test   %edi,%edi
    4934:	0f 85 c6 fd ff ff    	jne    4700 <strtoull+0x50>
    493a:	c7 45 cc 07 00 00 00 	movl   $0x7,-0x34(%ebp)
    4941:	c7 45 d4 ff ff ff ff 	movl   $0xffffffff,-0x2c(%ebp)
    4948:	c7 45 d0 ff ff ff 1f 	movl   $0x1fffffff,-0x30(%ebp)
    494f:	c7 45 d8 08 00 00 00 	movl   $0x8,-0x28(%ebp)
    4956:	c7 45 dc 00 00 00 00 	movl   $0x0,-0x24(%ebp)
    495d:	c7 45 10 08 00 00 00 	movl   $0x8,0x10(%ebp)
    4964:	e9 01 fe ff ff       	jmp    476a <strtoull+0xba>
    4969:	66 90                	xchg   %ax,%ax
    496b:	66 90                	xchg   %ax,%ax
    496d:	66 90                	xchg   %ax,%ax
    496f:	90                   	nop

00004970 <memchr>:
    4970:	55                   	push   %ebp
    4971:	89 e5                	mov    %esp,%ebp
    4973:	57                   	push   %edi
    4974:	8b 45 08             	mov    0x8(%ebp),%eax
    4977:	8b 55 10             	mov    0x10(%ebp),%edx
    497a:	56                   	push   %esi
    497b:	53                   	push   %ebx
    497c:	0f b6 5d 0c          	movzbl 0xc(%ebp),%ebx
    4980:	a8 03                	test   $0x3,%al
    4982:	75 1d                	jne    49a1 <memchr+0x31>
    4984:	eb 2a                	jmp    49b0 <memchr+0x40>
    4986:	8d b4 26 00 00 00 00 	lea    0x0(%esi,%eiz,1),%esi
    498d:	8d 76 00             	lea    0x0(%esi),%esi
    4990:	0f b6 08             	movzbl (%eax),%ecx
    4993:	39 d9                	cmp    %ebx,%ecx
    4995:	74 5a                	je     49f1 <memchr+0x81>
    4997:	83 c0 01             	add    $0x1,%eax
    499a:	83 ea 01             	sub    $0x1,%edx
    499d:	a8 03                	test   $0x3,%al
    499f:	74 0f                	je     49b0 <memchr+0x40>
    49a1:	85 d2                	test   %edx,%edx
    49a3:	75 eb                	jne    4990 <memchr+0x20>
    49a5:	31 c9                	xor    %ecx,%ecx
    49a7:	5b                   	pop    %ebx
    49a8:	89 c8                	mov    %ecx,%eax
    49aa:	5e                   	pop    %esi
    49ab:	5f                   	pop    %edi
    49ac:	5d                   	pop    %ebp
    49ad:	c3                   	ret    
    49ae:	66 90                	xchg   %ax,%ax
    49b0:	31 c9                	xor    %ecx,%ecx
    49b2:	85 d2                	test   %edx,%edx
    49b4:	74 f1                	je     49a7 <memchr+0x37>
    49b6:	0f b6 08             	movzbl (%eax),%ecx
    49b9:	39 d9                	cmp    %ebx,%ecx
    49bb:	74 34                	je     49f1 <memchr+0x81>
    49bd:	69 fb 01 01 01 01    	imul   $0x1010101,%ebx,%edi
    49c3:	83 fa 03             	cmp    $0x3,%edx
    49c6:	77 13                	ja     49db <memchr+0x6b>
    49c8:	eb 27                	jmp    49f1 <memchr+0x81>
    49ca:	8d b6 00 00 00 00    	lea    0x0(%esi),%esi
    49d0:	83 ea 04             	sub    $0x4,%edx
    49d3:	83 c0 04             	add    $0x4,%eax
    49d6:	83 fa 03             	cmp    $0x3,%edx
    49d9:	76 35                	jbe    4a10 <memchr+0xa0>
    49db:	8b 08                	mov    (%eax),%ecx
    49dd:	31 f9                	xor    %edi,%ecx
    49df:	8d b1 ff fe fe fe    	lea    -0x1010101(%ecx),%esi
    49e5:	f7 d1                	not    %ecx
    49e7:	21 ce                	and    %ecx,%esi
    49e9:	81 e6 80 80 80 80    	and    $0x80808080,%esi
    49ef:	74 df                	je     49d0 <memchr+0x60>
    49f1:	89 c1                	mov    %eax,%ecx
    49f3:	01 d0                	add    %edx,%eax
    49f5:	8d b4 26 00 00 00 00 	lea    0x0(%esi,%eiz,1),%esi
    49fc:	8d 74 26 00          	lea    0x0(%esi,%eiz,1),%esi
    4a00:	0f b6 11             	movzbl (%ecx),%edx
    4a03:	39 da                	cmp    %ebx,%edx
    4a05:	74 a0                	je     49a7 <memchr+0x37>
    4a07:	83 c1 01             	add    $0x1,%ecx
    4a0a:	39 c8                	cmp    %ecx,%eax
    4a0c:	75 f2                	jne    4a00 <memchr+0x90>
    4a0e:	eb 95                	jmp    49a5 <memchr+0x35>
    4a10:	31 c9                	xor    %ecx,%ecx
    4a12:	85 d2                	test   %edx,%edx
    4a14:	74 91                	je     49a7 <memchr+0x37>
    4a16:	eb d9                	jmp    49f1 <memchr+0x81>
    4a18:	66 90                	xchg   %ax,%ax
    4a1a:	66 90                	xchg   %ax,%ax
    4a1c:	66 90                	xchg   %ax,%ax
    4a1e:	66 90                	xchg   %ax,%ax

00004a20 <memcmp>:
    4a20:	55                   	push   %ebp
    4a21:	89 e5                	mov    %esp,%ebp
    4a23:	57                   	push   %edi
    4a24:	56                   	push   %esi
    4a25:	53                   	push   %ebx
    4a26:	83 ec 04             	sub    $0x4,%esp
    4a29:	8b 4d 08             	mov    0x8(%ebp),%ecx
    4a2c:	8b 55 0c             	mov    0xc(%ebp),%edx
    4a2f:	39 d1                	cmp    %edx,%ecx
    4a31:	74 7d                	je     4ab0 <memcmp+0x90>
    4a33:	85 c9                	test   %ecx,%ecx
    4a35:	0f 84 85 00 00 00    	je     4ac0 <memcmp+0xa0>
    4a3b:	85 d2                	test   %edx,%edx
    4a3d:	0f 84 8a 00 00 00    	je     4acd <memcmp+0xad>
    4a43:	8b 45 10             	mov    0x10(%ebp),%eax
    4a46:	85 c0                	test   %eax,%eax
    4a48:	74 66                	je     4ab0 <memcmp+0x90>
    4a4a:	8b 45 10             	mov    0x10(%ebp),%eax
    4a4d:	be 01 00 00 00       	mov    $0x1,%esi
    4a52:	29 d6                	sub    %edx,%esi
    4a54:	01 d0                	add    %edx,%eax
    4a56:	89 45 f0             	mov    %eax,-0x10(%ebp)
    4a59:	eb 17                	jmp    4a72 <memcmp+0x52>
    4a5b:	8d 74 26 00          	lea    0x0(%esi,%eiz,1),%esi
    4a5f:	90                   	nop
    4a60:	8d 3c 32             	lea    (%edx,%esi,1),%edi
    4a63:	8d 59 01             	lea    0x1(%ecx),%ebx
    4a66:	8d 42 01             	lea    0x1(%edx),%eax
    4a69:	39 45 f0             	cmp    %eax,-0x10(%ebp)
    4a6c:	74 22                	je     4a90 <memcmp+0x70>
    4a6e:	89 c2                	mov    %eax,%edx
    4a70:	89 d9                	mov    %ebx,%ecx
    4a72:	0f b6 01             	movzbl (%ecx),%eax
    4a75:	0f b6 1a             	movzbl (%edx),%ebx
    4a78:	38 d8                	cmp    %bl,%al
    4a7a:	74 e4                	je     4a60 <memcmp+0x40>
    4a7c:	29 d8                	sub    %ebx,%eax
    4a7e:	83 c4 04             	add    $0x4,%esp
    4a81:	5b                   	pop    %ebx
    4a82:	5e                   	pop    %esi
    4a83:	5f                   	pop    %edi
    4a84:	5d                   	pop    %ebp
    4a85:	c3                   	ret    
    4a86:	8d b4 26 00 00 00 00 	lea    0x0(%esi,%eiz,1),%esi
    4a8d:	8d 76 00             	lea    0x0(%esi),%esi
    4a90:	31 c0                	xor    %eax,%eax
    4a92:	3b 7d 10             	cmp    0x10(%ebp),%edi
    4a95:	74 e7                	je     4a7e <memcmp+0x5e>
    4a97:	0f b6 41 01          	movzbl 0x1(%ecx),%eax
    4a9b:	0f b6 5a 01          	movzbl 0x1(%edx),%ebx
    4a9f:	eb db                	jmp    4a7c <memcmp+0x5c>
    4aa1:	8d b4 26 00 00 00 00 	lea    0x0(%esi,%eiz,1),%esi
    4aa8:	8d b4 26 00 00 00 00 	lea    0x0(%esi,%eiz,1),%esi
    4aaf:	90                   	nop
    4ab0:	83 c4 04             	add    $0x4,%esp
    4ab3:	31 c0                	xor    %eax,%eax
    4ab5:	5b                   	pop    %ebx
    4ab6:	5e                   	pop    %esi
    4ab7:	5f                   	pop    %edi
    4ab8:	5d                   	pop    %ebp
    4ab9:	c3                   	ret    
    4aba:	8d b6 00 00 00 00    	lea    0x0(%esi),%esi
    4ac0:	83 c4 04             	add    $0x4,%esp
    4ac3:	b8 01 00 00 00       	mov    $0x1,%eax
    4ac8:	5b                   	pop    %ebx
    4ac9:	5e                   	pop    %esi
    4aca:	5f                   	pop    %edi
    4acb:	5d                   	pop    %ebp
    4acc:	c3                   	ret    
    4acd:	b8 ff ff ff ff       	mov    $0xffffffff,%eax
    4ad2:	eb aa                	jmp    4a7e <memcmp+0x5e>
    4ad4:	66 90                	xchg   %ax,%ax
    4ad6:	66 90                	xchg   %ax,%ax
    4ad8:	66 90                	xchg   %ax,%ax
    4ada:	66 90                	xchg   %ax,%ax
    4adc:	66 90                	xchg   %ax,%ax
    4ade:	66 90                	xchg   %ax,%ax

00004ae0 <memcpy>:
    4ae0:	55                   	push   %ebp
    4ae1:	89 e5                	mov    %esp,%ebp
    4ae3:	57                   	push   %edi
    4ae4:	56                   	push   %esi
    4ae5:	53                   	push   %ebx
    4ae6:	83 ec 10             	sub    $0x10,%esp
    4ae9:	8b 55 10             	mov    0x10(%ebp),%edx
    4aec:	8b 45 0c             	mov    0xc(%ebp),%eax
    4aef:	85 d2                	test   %edx,%edx
    4af1:	0f 84 b7 00 00 00    	je     4bae <memcpy+0xce>
    4af7:	39 45 08             	cmp    %eax,0x8(%ebp)
    4afa:	0f 84 ae 00 00 00    	je     4bae <memcpy+0xce>
    4b00:	39 45 08             	cmp    %eax,0x8(%ebp)
    4b03:	0f 83 b7 00 00 00    	jae    4bc0 <memcpy+0xe0>
    4b09:	8b 4d 08             	mov    0x8(%ebp),%ecx
    4b0c:	09 c1                	or     %eax,%ecx
    4b0e:	83 e1 03             	and    $0x3,%ecx
    4b11:	74 3d                	je     4b50 <memcpy+0x70>
    4b13:	8b 4d 08             	mov    0x8(%ebp),%ecx
    4b16:	31 c1                	xor    %eax,%ecx
    4b18:	83 e1 03             	and    $0x3,%ecx
    4b1b:	75 09                	jne    4b26 <memcpy+0x46>
    4b1d:	83 fa 03             	cmp    $0x3,%edx
    4b20:	0f 87 6a 01 00 00    	ja     4c90 <memcpy+0x1b0>
    4b26:	c7 45 ec 00 00 00 00 	movl   $0x0,-0x14(%ebp)
    4b2d:	31 db                	xor    %ebx,%ebx
    4b2f:	c7 45 f0 00 00 00 00 	movl   $0x0,-0x10(%ebp)
    4b36:	8b 4d 08             	mov    0x8(%ebp),%ecx
    4b39:	8b 7d 08             	mov    0x8(%ebp),%edi
    4b3c:	89 c6                	mov    %eax,%esi
    4b3e:	01 d1                	add    %edx,%ecx
    4b40:	a4                   	movsb  %ds:(%esi),%es:(%edi)
    4b41:	39 cf                	cmp    %ecx,%edi
    4b43:	75 fb                	jne    4b40 <memcpy+0x60>
    4b45:	01 d0                	add    %edx,%eax
    4b47:	eb 1c                	jmp    4b65 <memcpy+0x85>
    4b49:	8d b4 26 00 00 00 00 	lea    0x0(%esi,%eiz,1),%esi
    4b50:	89 d6                	mov    %edx,%esi
    4b52:	89 d3                	mov    %edx,%ebx
    4b54:	8b 4d 08             	mov    0x8(%ebp),%ecx
    4b57:	83 e6 03             	and    $0x3,%esi
    4b5a:	c1 eb 02             	shr    $0x2,%ebx
    4b5d:	89 75 ec             	mov    %esi,-0x14(%ebp)
    4b60:	89 5d f0             	mov    %ebx,-0x10(%ebp)
    4b63:	89 d3                	mov    %edx,%ebx
    4b65:	83 fb 03             	cmp    $0x3,%ebx
    4b68:	76 30                	jbe    4b9a <memcpy+0xba>
    4b6a:	8b 75 f0             	mov    -0x10(%ebp),%esi
    4b6d:	89 c3                	mov    %eax,%ebx
    4b6f:	89 ca                	mov    %ecx,%edx
    4b71:	8d b4 26 00 00 00 00 	lea    0x0(%esi,%eiz,1),%esi
    4b78:	8d b4 26 00 00 00 00 	lea    0x0(%esi,%eiz,1),%esi
    4b7f:	90                   	nop
    4b80:	8b 3b                	mov    (%ebx),%edi
    4b82:	83 c2 04             	add    $0x4,%edx
    4b85:	83 c3 04             	add    $0x4,%ebx
    4b88:	89 7a fc             	mov    %edi,-0x4(%edx)
    4b8b:	83 ee 01             	sub    $0x1,%esi
    4b8e:	75 f0                	jne    4b80 <memcpy+0xa0>
    4b90:	8b 55 f0             	mov    -0x10(%ebp),%edx
    4b93:	c1 e2 02             	shl    $0x2,%edx
    4b96:	01 d0                	add    %edx,%eax
    4b98:	01 d1                	add    %edx,%ecx
    4b9a:	8b 75 ec             	mov    -0x14(%ebp),%esi
    4b9d:	85 f6                	test   %esi,%esi
    4b9f:	74 0d                	je     4bae <memcpy+0xce>
    4ba1:	89 f2                	mov    %esi,%edx
    4ba3:	89 cf                	mov    %ecx,%edi
    4ba5:	89 c6                	mov    %eax,%esi
    4ba7:	01 ca                	add    %ecx,%edx
    4ba9:	a4                   	movsb  %ds:(%esi),%es:(%edi)
    4baa:	39 d7                	cmp    %edx,%edi
    4bac:	75 fb                	jne    4ba9 <memcpy+0xc9>
    4bae:	8b 45 08             	mov    0x8(%ebp),%eax
    4bb1:	83 c4 10             	add    $0x10,%esp
    4bb4:	5b                   	pop    %ebx
    4bb5:	5e                   	pop    %esi
    4bb6:	5f                   	pop    %edi
    4bb7:	5d                   	pop    %ebp
    4bb8:	c3                   	ret    
    4bb9:	8d b4 26 00 00 00 00 	lea    0x0(%esi,%eiz,1),%esi
    4bc0:	8b 75 08             	mov    0x8(%ebp),%esi
    4bc3:	8d 3c 10             	lea    (%eax,%edx,1),%edi
    4bc6:	89 f8                	mov    %edi,%eax
    4bc8:	89 7d f0             	mov    %edi,-0x10(%ebp)
    4bcb:	01 d6                	add    %edx,%esi
    4bcd:	09 f0                	or     %esi,%eax
    4bcf:	a8 03                	test   $0x3,%al
    4bd1:	74 7d                	je     4c50 <memcpy+0x170>
    4bd3:	89 f8                	mov    %edi,%eax
    4bd5:	31 f0                	xor    %esi,%eax
    4bd7:	a8 03                	test   $0x3,%al
    4bd9:	75 09                	jne    4be4 <memcpy+0x104>
    4bdb:	83 fa 04             	cmp    $0x4,%edx
    4bde:	0f 87 dc 00 00 00    	ja     4cc0 <memcpy+0x1e0>
    4be4:	c7 45 e8 00 00 00 00 	movl   $0x0,-0x18(%ebp)
    4beb:	31 c0                	xor    %eax,%eax
    4bed:	c7 45 ec 00 00 00 00 	movl   $0x0,-0x14(%ebp)
    4bf4:	89 45 e4             	mov    %eax,-0x1c(%ebp)
    4bf7:	89 d7                	mov    %edx,%edi
    4bf9:	f7 df                	neg    %edi
    4bfb:	8d 74 26 00          	lea    0x0(%esi,%eiz,1),%esi
    4bff:	90                   	nop
    4c00:	8b 45 f0             	mov    -0x10(%ebp),%eax
    4c03:	8d 1c 3e             	lea    (%esi,%edi,1),%ebx
    4c06:	8d 0c 38             	lea    (%eax,%edi,1),%ecx
    4c09:	0f b6 44 11 ff       	movzbl -0x1(%ecx,%edx,1),%eax
    4c0e:	88 44 13 ff          	mov    %al,-0x1(%ebx,%edx,1)
    4c12:	83 ea 01             	sub    $0x1,%edx
    4c15:	75 e9                	jne    4c00 <memcpy+0x120>
    4c17:	83 7d ec 03          	cmpl   $0x3,-0x14(%ebp)
    4c1b:	8b 45 e4             	mov    -0x1c(%ebp),%eax
    4c1e:	77 4b                	ja     4c6b <memcpy+0x18b>
    4c20:	8b 45 e8             	mov    -0x18(%ebp),%eax
    4c23:	85 c0                	test   %eax,%eax
    4c25:	74 87                	je     4bae <memcpy+0xce>
    4c27:	89 c2                	mov    %eax,%edx
    4c29:	29 c1                	sub    %eax,%ecx
    4c2b:	f7 da                	neg    %edx
    4c2d:	89 d7                	mov    %edx,%edi
    4c2f:	0f b6 54 01 ff       	movzbl -0x1(%ecx,%eax,1),%edx
    4c34:	8d 34 3b             	lea    (%ebx,%edi,1),%esi
    4c37:	88 54 06 ff          	mov    %dl,-0x1(%esi,%eax,1)
    4c3b:	83 e8 01             	sub    $0x1,%eax
    4c3e:	75 ef                	jne    4c2f <memcpy+0x14f>
    4c40:	8b 45 08             	mov    0x8(%ebp),%eax
    4c43:	83 c4 10             	add    $0x10,%esp
    4c46:	5b                   	pop    %ebx
    4c47:	5e                   	pop    %esi
    4c48:	5f                   	pop    %edi
    4c49:	5d                   	pop    %ebp
    4c4a:	c3                   	ret    
    4c4b:	8d 74 26 00          	lea    0x0(%esi,%eiz,1),%esi
    4c4f:	90                   	nop
    4c50:	89 d0                	mov    %edx,%eax
    4c52:	89 d3                	mov    %edx,%ebx
    4c54:	89 55 ec             	mov    %edx,-0x14(%ebp)
    4c57:	8b 4d f0             	mov    -0x10(%ebp),%ecx
    4c5a:	83 e3 03             	and    $0x3,%ebx
    4c5d:	c1 e8 02             	shr    $0x2,%eax
    4c60:	83 7d ec 03          	cmpl   $0x3,-0x14(%ebp)
    4c64:	89 5d e8             	mov    %ebx,-0x18(%ebp)
    4c67:	89 f3                	mov    %esi,%ebx
    4c69:	76 b5                	jbe    4c20 <memcpy+0x140>
    4c6b:	8d 14 85 00 00 00 00 	lea    0x0(,%eax,4),%edx
    4c72:	29 d1                	sub    %edx,%ecx
    4c74:	29 d3                	sub    %edx,%ebx
    4c76:	8d b4 26 00 00 00 00 	lea    0x0(%esi,%eiz,1),%esi
    4c7d:	8d 76 00             	lea    0x0(%esi),%esi
    4c80:	8b 54 81 fc          	mov    -0x4(%ecx,%eax,4),%edx
    4c84:	89 54 83 fc          	mov    %edx,-0x4(%ebx,%eax,4)
    4c88:	83 e8 01             	sub    $0x1,%eax
    4c8b:	75 f3                	jne    4c80 <memcpy+0x1a0>
    4c8d:	eb 91                	jmp    4c20 <memcpy+0x140>
    4c8f:	90                   	nop
    4c90:	89 c1                	mov    %eax,%ecx
    4c92:	83 e1 03             	and    $0x3,%ecx
    4c95:	8d 5c 11 fc          	lea    -0x4(%ecx,%edx,1),%ebx
    4c99:	ba 04 00 00 00       	mov    $0x4,%edx
    4c9e:	89 de                	mov    %ebx,%esi
    4ca0:	29 ca                	sub    %ecx,%edx
    4ca2:	c1 ee 02             	shr    $0x2,%esi
    4ca5:	89 75 f0             	mov    %esi,-0x10(%ebp)
    4ca8:	89 de                	mov    %ebx,%esi
    4caa:	83 e6 03             	and    $0x3,%esi
    4cad:	89 75 ec             	mov    %esi,-0x14(%ebp)
    4cb0:	e9 81 fe ff ff       	jmp    4b36 <memcpy+0x56>
    4cb5:	8d b4 26 00 00 00 00 	lea    0x0(%esi,%eiz,1),%esi
    4cbc:	8d 74 26 00          	lea    0x0(%esi,%eiz,1),%esi
    4cc0:	89 f9                	mov    %edi,%ecx
    4cc2:	83 e1 03             	and    $0x3,%ecx
    4cc5:	29 ca                	sub    %ecx,%edx
    4cc7:	89 d3                	mov    %edx,%ebx
    4cc9:	89 d0                	mov    %edx,%eax
    4ccb:	89 55 ec             	mov    %edx,-0x14(%ebp)
    4cce:	89 ca                	mov    %ecx,%edx
    4cd0:	83 e3 03             	and    $0x3,%ebx
    4cd3:	c1 e8 02             	shr    $0x2,%eax
    4cd6:	89 5d e8             	mov    %ebx,-0x18(%ebp)
    4cd9:	e9 16 ff ff ff       	jmp    4bf4 <memcpy+0x114>
    4cde:	66 90                	xchg   %ax,%ax

00004ce0 <memmem>:
    4ce0:	55                   	push   %ebp
    4ce1:	89 e5                	mov    %esp,%ebp
    4ce3:	57                   	push   %edi
    4ce4:	56                   	push   %esi
    4ce5:	53                   	push   %ebx
    4ce6:	83 ec 1c             	sub    $0x1c,%esp
    4ce9:	8b 75 0c             	mov    0xc(%ebp),%esi
    4cec:	8b 55 14             	mov    0x14(%ebp),%edx
    4cef:	8b 5d 08             	mov    0x8(%ebp),%ebx
    4cf2:	8b 7d 10             	mov    0x10(%ebp),%edi
    4cf5:	85 f6                	test   %esi,%esi
    4cf7:	0f 94 c0             	sete   %al
    4cfa:	39 d6                	cmp    %edx,%esi
    4cfc:	0f 92 c1             	setb   %cl
    4cff:	08 c8                	or     %cl,%al
    4d01:	75 4d                	jne    4d50 <memmem+0x70>
    4d03:	85 d2                	test   %edx,%edx
    4d05:	74 49                	je     4d50 <memmem+0x70>
    4d07:	83 fa 01             	cmp    $0x1,%edx
    4d0a:	74 4e                	je     4d5a <memmem+0x7a>
    4d0c:	29 d6                	sub    %edx,%esi
    4d0e:	01 de                	add    %ebx,%esi
    4d10:	73 15                	jae    4d27 <memmem+0x47>
    4d12:	eb 3c                	jmp    4d50 <memmem+0x70>
    4d14:	8d b4 26 00 00 00 00 	lea    0x0(%esi,%eiz,1),%esi
    4d1b:	8d 74 26 00          	lea    0x0(%esi,%eiz,1),%esi
    4d1f:	90                   	nop
    4d20:	83 c3 01             	add    $0x1,%ebx
    4d23:	39 de                	cmp    %ebx,%esi
    4d25:	72 29                	jb     4d50 <memmem+0x70>
    4d27:	0f b6 07             	movzbl (%edi),%eax
    4d2a:	38 03                	cmp    %al,(%ebx)
    4d2c:	75 f2                	jne    4d20 <memmem+0x40>
    4d2e:	83 ec 04             	sub    $0x4,%esp
    4d31:	89 55 e4             	mov    %edx,-0x1c(%ebp)
    4d34:	52                   	push   %edx
    4d35:	57                   	push   %edi
    4d36:	53                   	push   %ebx
    4d37:	e8 fc ff ff ff       	call   4d38 <memmem+0x58>
			4d38: R_386_PC32	memcmp
    4d3c:	83 c4 10             	add    $0x10,%esp
    4d3f:	8b 55 e4             	mov    -0x1c(%ebp),%edx
    4d42:	85 c0                	test   %eax,%eax
    4d44:	75 da                	jne    4d20 <memmem+0x40>
    4d46:	89 d8                	mov    %ebx,%eax
    4d48:	eb 08                	jmp    4d52 <memmem+0x72>
    4d4a:	8d b6 00 00 00 00    	lea    0x0(%esi),%esi
    4d50:	31 c0                	xor    %eax,%eax
    4d52:	8d 65 f4             	lea    -0xc(%ebp),%esp
    4d55:	5b                   	pop    %ebx
    4d56:	5e                   	pop    %esi
    4d57:	5f                   	pop    %edi
    4d58:	5d                   	pop    %ebp
    4d59:	c3                   	ret    
    4d5a:	89 75 10             	mov    %esi,0x10(%ebp)
    4d5d:	0f be 07             	movsbl (%edi),%eax
    4d60:	89 45 0c             	mov    %eax,0xc(%ebp)
    4d63:	8d 65 f4             	lea    -0xc(%ebp),%esp
    4d66:	5b                   	pop    %ebx
    4d67:	5e                   	pop    %esi
    4d68:	5f                   	pop    %edi
    4d69:	5d                   	pop    %ebp
    4d6a:	e9 fc ff ff ff       	jmp    4d6b <memmem+0x8b>
			4d6b: R_386_PC32	memchr
    4d6f:	90                   	nop

00004d70 <memmove>:
    4d70:	e9 fc ff ff ff       	jmp    4d71 <memmove+0x1>
			4d71: R_386_PC32	memcpy
    4d75:	66 90                	xchg   %ax,%ax
    4d77:	66 90                	xchg   %ax,%ax
    4d79:	66 90                	xchg   %ax,%ax
    4d7b:	66 90                	xchg   %ax,%ax
    4d7d:	66 90                	xchg   %ax,%ax
    4d7f:	90                   	nop

00004d80 <__memrchr>:
    4d80:	55                   	push   %ebp
    4d81:	89 e5                	mov    %esp,%ebp
    4d83:	56                   	push   %esi
    4d84:	8b 45 10             	mov    0x10(%ebp),%eax
    4d87:	0f b6 75 0c          	movzbl 0xc(%ebp),%esi
    4d8b:	53                   	push   %ebx
    4d8c:	8b 5d 08             	mov    0x8(%ebp),%ebx
    4d8f:	8d 44 03 ff          	lea    -0x1(%ebx,%eax,1),%eax
    4d93:	83 eb 01             	sub    $0x1,%ebx
    4d96:	eb 14                	jmp    4dac <__memrchr+0x2c>
    4d98:	8d b4 26 00 00 00 00 	lea    0x0(%esi,%eiz,1),%esi
    4d9f:	90                   	nop
    4da0:	89 c2                	mov    %eax,%edx
    4da2:	83 e8 01             	sub    $0x1,%eax
    4da5:	0f b6 0a             	movzbl (%edx),%ecx
    4da8:	39 f1                	cmp    %esi,%ecx
    4daa:	74 06                	je     4db2 <__memrchr+0x32>
    4dac:	39 d8                	cmp    %ebx,%eax
    4dae:	75 f0                	jne    4da0 <__memrchr+0x20>
    4db0:	31 d2                	xor    %edx,%edx
    4db2:	5b                   	pop    %ebx
    4db3:	89 d0                	mov    %edx,%eax
    4db5:	5e                   	pop    %esi
    4db6:	5d                   	pop    %ebp
    4db7:	c3                   	ret    
    4db8:	66 90                	xchg   %ax,%ax
    4dba:	66 90                	xchg   %ax,%ax
    4dbc:	66 90                	xchg   %ax,%ax
    4dbe:	66 90                	xchg   %ax,%ax

00004dc0 <memset>:
    4dc0:	55                   	push   %ebp
    4dc1:	89 e5                	mov    %esp,%ebp
    4dc3:	57                   	push   %edi
    4dc4:	56                   	push   %esi
    4dc5:	53                   	push   %ebx
    4dc6:	83 ec 04             	sub    $0x4,%esp
    4dc9:	8b 5d 10             	mov    0x10(%ebp),%ebx
    4dcc:	8b 4d 08             	mov    0x8(%ebp),%ecx
    4dcf:	8b 45 0c             	mov    0xc(%ebp),%eax
    4dd2:	85 db                	test   %ebx,%ebx
    4dd4:	74 63                	je     4e39 <memset+0x79>
    4dd6:	88 44 19 ff          	mov    %al,-0x1(%ecx,%ebx,1)
    4dda:	88 01                	mov    %al,(%ecx)
    4ddc:	83 fb 02             	cmp    $0x2,%ebx
    4ddf:	76 58                	jbe    4e39 <memset+0x79>
    4de1:	88 44 19 fe          	mov    %al,-0x2(%ecx,%ebx,1)
    4de5:	88 41 01             	mov    %al,0x1(%ecx)
    4de8:	88 44 19 fd          	mov    %al,-0x3(%ecx,%ebx,1)
    4dec:	88 41 02             	mov    %al,0x2(%ecx)
    4def:	83 fb 06             	cmp    $0x6,%ebx
    4df2:	76 45                	jbe    4e39 <memset+0x79>
    4df4:	88 44 19 fc          	mov    %al,-0x4(%ecx,%ebx,1)
    4df8:	88 41 03             	mov    %al,0x3(%ecx)
    4dfb:	83 fb 08             	cmp    $0x8,%ebx
    4dfe:	76 39                	jbe    4e39 <memset+0x79>
    4e00:	89 ce                	mov    %ecx,%esi
    4e02:	f7 de                	neg    %esi
    4e04:	83 e6 03             	and    $0x3,%esi
    4e07:	29 f3                	sub    %esi,%ebx
    4e09:	8d 14 31             	lea    (%ecx,%esi,1),%edx
    4e0c:	0f b6 f0             	movzbl %al,%esi
    4e0f:	c1 e0 18             	shl    $0x18,%eax
    4e12:	89 f7                	mov    %esi,%edi
    4e14:	89 5d f0             	mov    %ebx,-0x10(%ebp)
    4e17:	c1 e7 08             	shl    $0x8,%edi
    4e1a:	89 fb                	mov    %edi,%ebx
    4e1c:	89 f7                	mov    %esi,%edi
    4e1e:	c1 e7 10             	shl    $0x10,%edi
    4e21:	09 fb                	or     %edi,%ebx
    4e23:	09 f3                	or     %esi,%ebx
    4e25:	8b 75 f0             	mov    -0x10(%ebp),%esi
    4e28:	09 d8                	or     %ebx,%eax
    4e2a:	83 e6 fc             	and    $0xfffffffc,%esi
    4e2d:	01 d6                	add    %edx,%esi
    4e2f:	90                   	nop
    4e30:	89 02                	mov    %eax,(%edx)
    4e32:	83 c2 04             	add    $0x4,%edx
    4e35:	39 d6                	cmp    %edx,%esi
    4e37:	75 f7                	jne    4e30 <memset+0x70>
    4e39:	83 c4 04             	add    $0x4,%esp
    4e3c:	89 c8                	mov    %ecx,%eax
    4e3e:	5b                   	pop    %ebx
    4e3f:	5e                   	pop    %esi
    4e40:	5f                   	pop    %edi
    4e41:	5d                   	pop    %ebp
    4e42:	c3                   	ret    
    4e43:	66 90                	xchg   %ax,%ax
    4e45:	66 90                	xchg   %ax,%ax
    4e47:	66 90                	xchg   %ax,%ax
    4e49:	66 90                	xchg   %ax,%ax
    4e4b:	66 90                	xchg   %ax,%ax
    4e4d:	66 90                	xchg   %ax,%ax
    4e4f:	90                   	nop

00004e50 <strcat>:
    4e50:	55                   	push   %ebp
    4e51:	89 e5                	mov    %esp,%ebp
    4e53:	57                   	push   %edi
    4e54:	56                   	push   %esi
    4e55:	53                   	push   %ebx
    4e56:	83 ec 18             	sub    $0x18,%esp
    4e59:	8b 75 08             	mov    0x8(%ebp),%esi
    4e5c:	8b 7d 0c             	mov    0xc(%ebp),%edi
    4e5f:	56                   	push   %esi
    4e60:	e8 fc ff ff ff       	call   4e61 <strcat+0x11>
			4e61: R_386_PC32	strlen
    4e65:	89 3c 24             	mov    %edi,(%esp)
    4e68:	89 c3                	mov    %eax,%ebx
    4e6a:	e8 fc ff ff ff       	call   4e6b <strcat+0x1b>
			4e6b: R_386_PC32	strlen
    4e6f:	01 f3                	add    %esi,%ebx
    4e71:	83 c4 0c             	add    $0xc,%esp
    4e74:	83 c0 01             	add    $0x1,%eax
    4e77:	50                   	push   %eax
    4e78:	57                   	push   %edi
    4e79:	53                   	push   %ebx
    4e7a:	e8 fc ff ff ff       	call   4e7b <strcat+0x2b>
			4e7b: R_386_PC32	memcpy
    4e7f:	8d 65 f4             	lea    -0xc(%ebp),%esp
    4e82:	89 f0                	mov    %esi,%eax
    4e84:	5b                   	pop    %ebx
    4e85:	5e                   	pop    %esi
    4e86:	5f                   	pop    %edi
    4e87:	5d                   	pop    %ebp
    4e88:	c3                   	ret    
    4e89:	66 90                	xchg   %ax,%ax
    4e8b:	66 90                	xchg   %ax,%ax
    4e8d:	66 90                	xchg   %ax,%ax
    4e8f:	90                   	nop

00004e90 <strchr>:
    4e90:	55                   	push   %ebp
    4e91:	89 e5                	mov    %esp,%ebp
    4e93:	53                   	push   %ebx
    4e94:	83 ec 0c             	sub    $0xc,%esp
    4e97:	8b 5d 0c             	mov    0xc(%ebp),%ebx
    4e9a:	53                   	push   %ebx
    4e9b:	ff 75 08             	push   0x8(%ebp)
    4e9e:	e8 fc ff ff ff       	call   4e9f <strchr+0xf>
			4e9f: R_386_PC32	__strchrnul
    4ea3:	83 c4 10             	add    $0x10,%esp
    4ea6:	31 d2                	xor    %edx,%edx
    4ea8:	38 18                	cmp    %bl,(%eax)
    4eaa:	8b 5d fc             	mov    -0x4(%ebp),%ebx
    4ead:	c9                   	leave  
    4eae:	0f 45 c2             	cmovne %edx,%eax
    4eb1:	c3                   	ret    
    4eb2:	66 90                	xchg   %ax,%ax
    4eb4:	66 90                	xchg   %ax,%ax
    4eb6:	66 90                	xchg   %ax,%ax
    4eb8:	66 90                	xchg   %ax,%ax
    4eba:	66 90                	xchg   %ax,%ax
    4ebc:	66 90                	xchg   %ax,%ax
    4ebe:	66 90                	xchg   %ax,%ax

00004ec0 <__strchrnul>:
    4ec0:	55                   	push   %ebp
    4ec1:	89 e5                	mov    %esp,%ebp
    4ec3:	57                   	push   %edi
    4ec4:	56                   	push   %esi
    4ec5:	53                   	push   %ebx
    4ec6:	83 ec 0c             	sub    $0xc,%esp
    4ec9:	0f b6 55 0c          	movzbl 0xc(%ebp),%edx
    4ecd:	8b 5d 08             	mov    0x8(%ebp),%ebx
    4ed0:	85 d2                	test   %edx,%edx
    4ed2:	75 1a                	jne    4eee <__strchrnul+0x2e>
    4ed4:	e9 87 00 00 00       	jmp    4f60 <__strchrnul+0xa0>
    4ed9:	8d b4 26 00 00 00 00 	lea    0x0(%esi,%eiz,1),%esi
    4ee0:	0f b6 03             	movzbl (%ebx),%eax
    4ee3:	84 c0                	test   %al,%al
    4ee5:	74 68                	je     4f4f <__strchrnul+0x8f>
    4ee7:	39 d0                	cmp    %edx,%eax
    4ee9:	74 64                	je     4f4f <__strchrnul+0x8f>
    4eeb:	83 c3 01             	add    $0x1,%ebx
    4eee:	f6 c3 03             	test   $0x3,%bl
    4ef1:	75 ed                	jne    4ee0 <__strchrnul+0x20>
    4ef3:	69 f2 01 01 01 01    	imul   $0x1010101,%edx,%esi
    4ef9:	8b 03                	mov    (%ebx),%eax
    4efb:	89 f1                	mov    %esi,%ecx
    4efd:	31 c1                	xor    %eax,%ecx
    4eff:	eb 19                	jmp    4f1a <__strchrnul+0x5a>
    4f01:	8d b4 26 00 00 00 00 	lea    0x0(%esi,%eiz,1),%esi
    4f08:	8d b4 26 00 00 00 00 	lea    0x0(%esi,%eiz,1),%esi
    4f0f:	90                   	nop
    4f10:	8b 43 04             	mov    0x4(%ebx),%eax
    4f13:	83 c3 04             	add    $0x4,%ebx
    4f16:	89 c1                	mov    %eax,%ecx
    4f18:	31 f1                	xor    %esi,%ecx
    4f1a:	8d b8 ff fe fe fe    	lea    -0x1010101(%eax),%edi
    4f20:	f7 d0                	not    %eax
    4f22:	21 f8                	and    %edi,%eax
    4f24:	8d b9 ff fe fe fe    	lea    -0x1010101(%ecx),%edi
    4f2a:	f7 d1                	not    %ecx
    4f2c:	21 cf                	and    %ecx,%edi
    4f2e:	09 f8                	or     %edi,%eax
    4f30:	a9 80 80 80 80       	test   $0x80808080,%eax
    4f35:	74 d9                	je     4f10 <__strchrnul+0x50>
    4f37:	0f b6 03             	movzbl (%ebx),%eax
    4f3a:	84 c0                	test   %al,%al
    4f3c:	74 11                	je     4f4f <__strchrnul+0x8f>
    4f3e:	66 90                	xchg   %ax,%ax
    4f40:	39 d0                	cmp    %edx,%eax
    4f42:	74 0b                	je     4f4f <__strchrnul+0x8f>
    4f44:	0f b6 43 01          	movzbl 0x1(%ebx),%eax
    4f48:	83 c3 01             	add    $0x1,%ebx
    4f4b:	84 c0                	test   %al,%al
    4f4d:	75 f1                	jne    4f40 <__strchrnul+0x80>
    4f4f:	8d 65 f4             	lea    -0xc(%ebp),%esp
    4f52:	89 d8                	mov    %ebx,%eax
    4f54:	5b                   	pop    %ebx
    4f55:	5e                   	pop    %esi
    4f56:	5f                   	pop    %edi
    4f57:	5d                   	pop    %ebp
    4f58:	c3                   	ret    
    4f59:	8d b4 26 00 00 00 00 	lea    0x0(%esi,%eiz,1),%esi
    4f60:	83 ec 0c             	sub    $0xc,%esp
    4f63:	53                   	push   %ebx
    4f64:	e8 fc ff ff ff       	call   4f65 <__strchrnul+0xa5>
			4f65: R_386_PC32	strlen
    4f69:	83 c4 10             	add    $0x10,%esp
    4f6c:	8d 65 f4             	lea    -0xc(%ebp),%esp
    4f6f:	01 c3                	add    %eax,%ebx
    4f71:	89 d8                	mov    %ebx,%eax
    4f73:	5b                   	pop    %ebx
    4f74:	5e                   	pop    %esi
    4f75:	5f                   	pop    %edi
    4f76:	5d                   	pop    %ebp
    4f77:	c3                   	ret    
    4f78:	66 90                	xchg   %ax,%ax
    4f7a:	66 90                	xchg   %ax,%ax
    4f7c:	66 90                	xchg   %ax,%ax
    4f7e:	66 90                	xchg   %ax,%ax

00004f80 <strcmp>:
    4f80:	55                   	push   %ebp
    4f81:	89 e5                	mov    %esp,%ebp
    4f83:	53                   	push   %ebx
    4f84:	8b 55 08             	mov    0x8(%ebp),%edx
    4f87:	8b 4d 0c             	mov    0xc(%ebp),%ecx
    4f8a:	39 ca                	cmp    %ecx,%edx
    4f8c:	74 38                	je     4fc6 <strcmp+0x46>
    4f8e:	85 d2                	test   %edx,%edx
    4f90:	74 45                	je     4fd7 <strcmp+0x57>
    4f92:	85 c9                	test   %ecx,%ecx
    4f94:	74 41                	je     4fd7 <strcmp+0x57>
    4f96:	0f be 02             	movsbl (%edx),%eax
    4f99:	0f be 19             	movsbl (%ecx),%ebx
    4f9c:	38 d8                	cmp    %bl,%al
    4f9e:	74 22                	je     4fc2 <strcmp+0x42>
    4fa0:	eb 2e                	jmp    4fd0 <strcmp+0x50>
    4fa2:	8d b4 26 00 00 00 00 	lea    0x0(%esi,%eiz,1),%esi
    4fa9:	8d b4 26 00 00 00 00 	lea    0x0(%esi,%eiz,1),%esi
    4fb0:	0f be 42 01          	movsbl 0x1(%edx),%eax
    4fb4:	0f be 59 01          	movsbl 0x1(%ecx),%ebx
    4fb8:	83 c2 01             	add    $0x1,%edx
    4fbb:	83 c1 01             	add    $0x1,%ecx
    4fbe:	38 d8                	cmp    %bl,%al
    4fc0:	75 0e                	jne    4fd0 <strcmp+0x50>
    4fc2:	84 c0                	test   %al,%al
    4fc4:	75 ea                	jne    4fb0 <strcmp+0x30>
    4fc6:	31 c0                	xor    %eax,%eax
    4fc8:	8b 5d fc             	mov    -0x4(%ebp),%ebx
    4fcb:	c9                   	leave  
    4fcc:	c3                   	ret    
    4fcd:	8d 76 00             	lea    0x0(%esi),%esi
    4fd0:	29 d8                	sub    %ebx,%eax
    4fd2:	8b 5d fc             	mov    -0x4(%ebp),%ebx
    4fd5:	c9                   	leave  
    4fd6:	c3                   	ret    
    4fd7:	b8 ff ff ff ff       	mov    $0xffffffff,%eax
    4fdc:	eb ea                	jmp    4fc8 <strcmp+0x48>
    4fde:	66 90                	xchg   %ax,%ax

00004fe0 <strcoll>:
    4fe0:	e9 fc ff ff ff       	jmp    4fe1 <strcoll+0x1>
			4fe1: R_386_PC32	strcmp
    4fe5:	66 90                	xchg   %ax,%ax
    4fe7:	66 90                	xchg   %ax,%ax
    4fe9:	66 90                	xchg   %ax,%ax
    4feb:	66 90                	xchg   %ax,%ax
    4fed:	66 90                	xchg   %ax,%ax
    4fef:	90                   	nop

00004ff0 <strcpy>:
    4ff0:	55                   	push   %ebp
    4ff1:	89 e5                	mov    %esp,%ebp
    4ff3:	56                   	push   %esi
    4ff4:	53                   	push   %ebx
    4ff5:	8b 75 0c             	mov    0xc(%ebp),%esi
    4ff8:	8b 5d 08             	mov    0x8(%ebp),%ebx
    4ffb:	83 ec 0c             	sub    $0xc,%esp
    4ffe:	56                   	push   %esi
    4fff:	e8 fc ff ff ff       	call   5000 <strcpy+0x10>
			5000: R_386_PC32	strlen
    5004:	83 c4 0c             	add    $0xc,%esp
    5007:	83 c0 01             	add    $0x1,%eax
    500a:	50                   	push   %eax
    500b:	56                   	push   %esi
    500c:	53                   	push   %ebx
    500d:	e8 fc ff ff ff       	call   500e <strcpy+0x1e>
			500e: R_386_PC32	memcpy
    5012:	8d 65 f8             	lea    -0x8(%ebp),%esp
    5015:	89 d8                	mov    %ebx,%eax
    5017:	5b                   	pop    %ebx
    5018:	5e                   	pop    %esi
    5019:	5d                   	pop    %ebp
    501a:	c3                   	ret    
    501b:	66 90                	xchg   %ax,%ax
    501d:	66 90                	xchg   %ax,%ax
    501f:	90                   	nop

00005020 <strcspn>:
    5020:	55                   	push   %ebp
    5021:	89 e5                	mov    %esp,%ebp
    5023:	57                   	push   %edi
    5024:	56                   	push   %esi
    5025:	53                   	push   %ebx
    5026:	83 ec 2c             	sub    $0x2c,%esp
    5029:	8b 75 0c             	mov    0xc(%ebp),%esi
    502c:	8b 5d 08             	mov    0x8(%ebp),%ebx
    502f:	0f be 06             	movsbl (%esi),%eax
    5032:	84 c0                	test   %al,%al
    5034:	74 06                	je     503c <strcspn+0x1c>
    5036:	80 7e 01 00          	cmpb   $0x0,0x1(%esi)
    503a:	75 24                	jne    5060 <strcspn+0x40>
    503c:	83 ec 08             	sub    $0x8,%esp
    503f:	50                   	push   %eax
    5040:	53                   	push   %ebx
    5041:	e8 fc ff ff ff       	call   5042 <strcspn+0x22>
			5042: R_386_PC32	__strchrnul
    5046:	83 c4 10             	add    $0x10,%esp
    5049:	8d 65 f4             	lea    -0xc(%ebp),%esp
    504c:	29 d8                	sub    %ebx,%eax
    504e:	5b                   	pop    %ebx
    504f:	5e                   	pop    %esi
    5050:	5f                   	pop    %edi
    5051:	5d                   	pop    %ebp
    5052:	c3                   	ret    
    5053:	8d b4 26 00 00 00 00 	lea    0x0(%esi,%eiz,1),%esi
    505a:	8d b6 00 00 00 00    	lea    0x0(%esi),%esi
    5060:	83 ec 04             	sub    $0x4,%esp
    5063:	8d 45 c8             	lea    -0x38(%ebp),%eax
    5066:	6a 20                	push   $0x20
    5068:	6a 00                	push   $0x0
    506a:	50                   	push   %eax
    506b:	e8 fc ff ff ff       	call   506c <strcspn+0x4c>
			506c: R_386_PC32	memset
    5070:	0f b6 0e             	movzbl (%esi),%ecx
    5073:	83 c4 10             	add    $0x10,%esp
    5076:	ba 01 00 00 00       	mov    $0x1,%edx
    507b:	84 c9                	test   %cl,%cl
    507d:	74 1b                	je     509a <strcspn+0x7a>
    507f:	90                   	nop
    5080:	89 c8                	mov    %ecx,%eax
    5082:	89 d7                	mov    %edx,%edi
    5084:	83 c6 01             	add    $0x1,%esi
    5087:	d3 e7                	shl    %cl,%edi
    5089:	c0 e8 05             	shr    $0x5,%al
    508c:	0f b6 0e             	movzbl (%esi),%ecx
    508f:	0f b6 c0             	movzbl %al,%eax
    5092:	09 7c 85 c8          	or     %edi,-0x38(%ebp,%eax,4)
    5096:	84 c9                	test   %cl,%cl
    5098:	75 e6                	jne    5080 <strcspn+0x60>
    509a:	0f b6 0b             	movzbl (%ebx),%ecx
    509d:	89 d8                	mov    %ebx,%eax
    509f:	84 c9                	test   %cl,%cl
    50a1:	75 18                	jne    50bb <strcspn+0x9b>
    50a3:	eb 29                	jmp    50ce <strcspn+0xae>
    50a5:	8d b4 26 00 00 00 00 	lea    0x0(%esi,%eiz,1),%esi
    50ac:	8d 74 26 00          	lea    0x0(%esi,%eiz,1),%esi
    50b0:	0f b6 48 01          	movzbl 0x1(%eax),%ecx
    50b4:	83 c0 01             	add    $0x1,%eax
    50b7:	84 c9                	test   %cl,%cl
    50b9:	74 13                	je     50ce <strcspn+0xae>
    50bb:	89 ca                	mov    %ecx,%edx
    50bd:	c0 ea 05             	shr    $0x5,%dl
    50c0:	0f b6 d2             	movzbl %dl,%edx
    50c3:	8b 54 95 c8          	mov    -0x38(%ebp,%edx,4),%edx
    50c7:	d3 ea                	shr    %cl,%edx
    50c9:	83 e2 01             	and    $0x1,%edx
    50cc:	74 e2                	je     50b0 <strcspn+0x90>
    50ce:	8d 65 f4             	lea    -0xc(%ebp),%esp
    50d1:	29 d8                	sub    %ebx,%eax
    50d3:	5b                   	pop    %ebx
    50d4:	5e                   	pop    %esi
    50d5:	5f                   	pop    %edi
    50d6:	5d                   	pop    %ebp
    50d7:	c3                   	ret    
    50d8:	66 90                	xchg   %ax,%ax
    50da:	66 90                	xchg   %ax,%ax
    50dc:	66 90                	xchg   %ax,%ax
    50de:	66 90                	xchg   %ax,%ax

000050e0 <strdup>:
    50e0:	31 c0                	xor    %eax,%eax
    50e2:	c3                   	ret    
    50e3:	66 90                	xchg   %ax,%ax
    50e5:	66 90                	xchg   %ax,%ax
    50e7:	66 90                	xchg   %ax,%ax
    50e9:	66 90                	xchg   %ax,%ax
    50eb:	66 90                	xchg   %ax,%ax
    50ed:	66 90                	xchg   %ax,%ax
    50ef:	90                   	nop

000050f0 <strerror>:
    50f0:	55                   	push   %ebp
    50f1:	31 d2                	xor    %edx,%edx
    50f3:	b8 5c 00 00 00       	mov    $0x5c,%eax
    50f8:	89 e5                	mov    %esp,%ebp
    50fa:	53                   	push   %ebx
    50fb:	8b 4d 08             	mov    0x8(%ebp),%ecx
    50fe:	eb 0e                	jmp    510e <strerror+0x1e>
    5100:	0f b6 82 61 0a 00 00 	movzbl 0xa61(%edx),%eax
			5103: R_386_32	.rodata
    5107:	83 c2 01             	add    $0x1,%edx
    510a:	84 c0                	test   %al,%al
    510c:	74 0d                	je     511b <strerror+0x2b>
    510e:	39 c8                	cmp    %ecx,%eax
    5110:	75 ee                	jne    5100 <strerror+0x10>
    5112:	b9 80 03 00 00       	mov    $0x380,%ecx
			5113: R_386_32	.rodata
    5117:	85 d2                	test   %edx,%edx
    5119:	74 45                	je     5160 <strerror+0x70>
    511b:	bb 49 00 00 00       	mov    $0x49,%ebx
    5120:	b8 80 03 00 00       	mov    $0x380,%eax
			5121: R_386_32	.rodata
    5125:	8d b4 26 00 00 00 00 	lea    0x0(%esi,%eiz,1),%esi
    512c:	8d 74 26 00          	lea    0x0(%esi,%eiz,1),%esi
    5130:	84 db                	test   %bl,%bl
    5132:	74 14                	je     5148 <strerror+0x58>
    5134:	8d b4 26 00 00 00 00 	lea    0x0(%esi,%eiz,1),%esi
    513b:	8d 74 26 00          	lea    0x0(%esi,%eiz,1),%esi
    513f:	90                   	nop
    5140:	83 c0 01             	add    $0x1,%eax
    5143:	80 38 00             	cmpb   $0x0,(%eax)
    5146:	75 f8                	jne    5140 <strerror+0x50>
    5148:	8d 48 01             	lea    0x1(%eax),%ecx
    514b:	83 ea 01             	sub    $0x1,%edx
    514e:	74 10                	je     5160 <strerror+0x70>
    5150:	0f b6 58 01          	movzbl 0x1(%eax),%ebx
    5154:	89 c8                	mov    %ecx,%eax
    5156:	eb d8                	jmp    5130 <strerror+0x40>
    5158:	8d b4 26 00 00 00 00 	lea    0x0(%esi,%eiz,1),%esi
    515f:	90                   	nop
    5160:	8b 5d fc             	mov    -0x4(%ebp),%ebx
    5163:	89 c8                	mov    %ecx,%eax
    5165:	c9                   	leave  
    5166:	c3                   	ret    
    5167:	66 90                	xchg   %ax,%ax
    5169:	66 90                	xchg   %ax,%ax
    516b:	66 90                	xchg   %ax,%ax
    516d:	66 90                	xchg   %ax,%ax
    516f:	90                   	nop

00005170 <strerror_r>:
    5170:	55                   	push   %ebp
    5171:	89 e5                	mov    %esp,%ebp
    5173:	57                   	push   %edi
    5174:	56                   	push   %esi
    5175:	53                   	push   %ebx
    5176:	83 ec 28             	sub    $0x28,%esp
    5179:	8b 75 0c             	mov    0xc(%ebp),%esi
    517c:	8b 5d 10             	mov    0x10(%ebp),%ebx
    517f:	ff 75 08             	push   0x8(%ebp)
    5182:	e8 fc ff ff ff       	call   5183 <strerror_r+0x13>
			5183: R_386_PC32	strerror
    5187:	89 04 24             	mov    %eax,(%esp)
    518a:	89 c7                	mov    %eax,%edi
    518c:	e8 fc ff ff ff       	call   518d <strerror_r+0x1d>
			518d: R_386_PC32	strlen
    5191:	83 c4 10             	add    $0x10,%esp
    5194:	85 f6                	test   %esi,%esi
    5196:	74 65                	je     51fd <strerror_r+0x8d>
    5198:	39 d8                	cmp    %ebx,%eax
    519a:	72 44                	jb     51e0 <strerror_r+0x70>
    519c:	ba 22 00 00 00       	mov    $0x22,%edx
    51a1:	85 db                	test   %ebx,%ebx
    51a3:	75 0b                	jne    51b0 <strerror_r+0x40>
    51a5:	8d 65 f4             	lea    -0xc(%ebp),%esp
    51a8:	89 d0                	mov    %edx,%eax
    51aa:	5b                   	pop    %ebx
    51ab:	5e                   	pop    %esi
    51ac:	5f                   	pop    %edi
    51ad:	5d                   	pop    %ebp
    51ae:	c3                   	ret    
    51af:	90                   	nop
    51b0:	83 ec 04             	sub    $0x4,%esp
    51b3:	8d 43 ff             	lea    -0x1(%ebx),%eax
    51b6:	89 55 e4             	mov    %edx,-0x1c(%ebp)
    51b9:	50                   	push   %eax
    51ba:	57                   	push   %edi
    51bb:	56                   	push   %esi
    51bc:	e8 fc ff ff ff       	call   51bd <strerror_r+0x4d>
			51bd: R_386_PC32	memcpy
    51c1:	8b 55 e4             	mov    -0x1c(%ebp),%edx
    51c4:	c6 44 1e ff 00       	movb   $0x0,-0x1(%esi,%ebx,1)
    51c9:	83 c4 10             	add    $0x10,%esp
    51cc:	8d 65 f4             	lea    -0xc(%ebp),%esp
    51cf:	5b                   	pop    %ebx
    51d0:	89 d0                	mov    %edx,%eax
    51d2:	5e                   	pop    %esi
    51d3:	5f                   	pop    %edi
    51d4:	5d                   	pop    %ebp
    51d5:	c3                   	ret    
    51d6:	8d b4 26 00 00 00 00 	lea    0x0(%esi,%eiz,1),%esi
    51dd:	8d 76 00             	lea    0x0(%esi),%esi
    51e0:	83 ec 04             	sub    $0x4,%esp
    51e3:	83 c0 01             	add    $0x1,%eax
    51e6:	50                   	push   %eax
    51e7:	57                   	push   %edi
    51e8:	56                   	push   %esi
    51e9:	e8 fc ff ff ff       	call   51ea <strerror_r+0x7a>
			51ea: R_386_PC32	memcpy
    51ee:	83 c4 10             	add    $0x10,%esp
    51f1:	31 d2                	xor    %edx,%edx
    51f3:	8d 65 f4             	lea    -0xc(%ebp),%esp
    51f6:	5b                   	pop    %ebx
    51f7:	89 d0                	mov    %edx,%eax
    51f9:	5e                   	pop    %esi
    51fa:	5f                   	pop    %edi
    51fb:	5d                   	pop    %ebp
    51fc:	c3                   	ret    
    51fd:	68 b8 0a 00 00       	push   $0xab8
			51fe: R_386_32	.rodata
    5202:	6a 0b                	push   $0xb
    5204:	68 2b 00 00 00       	push   $0x2b
			5205: R_386_32	.rodata.str1.1
    5209:	68 43 00 00 00       	push   $0x43
			520a: R_386_32	.rodata.str1.1
    520e:	e8 fc ff ff ff       	call   520f <strerror_r+0x9f>
			520f: R_386_PC32	__assert_fail
    5213:	66 90                	xchg   %ax,%ax
    5215:	66 90                	xchg   %ax,%ax
    5217:	66 90                	xchg   %ax,%ax
    5219:	66 90                	xchg   %ax,%ax
    521b:	66 90                	xchg   %ax,%ax
    521d:	66 90                	xchg   %ax,%ax
    521f:	90                   	nop

00005220 <strlen>:
    5220:	55                   	push   %ebp
    5221:	89 e5                	mov    %esp,%ebp
    5223:	8b 45 08             	mov    0x8(%ebp),%eax
    5226:	89 c2                	mov    %eax,%edx
    5228:	a8 03                	test   $0x3,%al
    522a:	75 0b                	jne    5237 <strlen+0x17>
    522c:	eb 27                	jmp    5255 <strlen+0x35>
    522e:	66 90                	xchg   %ax,%ax
    5230:	83 c0 01             	add    $0x1,%eax
    5233:	a8 03                	test   $0x3,%al
    5235:	74 1e                	je     5255 <strlen+0x35>
    5237:	80 38 00             	cmpb   $0x0,(%eax)
    523a:	75 f4                	jne    5230 <strlen+0x10>
    523c:	29 d0                	sub    %edx,%eax
    523e:	5d                   	pop    %ebp
    523f:	c3                   	ret    
    5240:	80 78 01 00          	cmpb   $0x0,0x1(%eax)
    5244:	74 2a                	je     5270 <strlen+0x50>
    5246:	80 78 02 00          	cmpb   $0x0,0x2(%eax)
    524a:	74 34                	je     5280 <strlen+0x60>
    524c:	80 78 03 00          	cmpb   $0x0,0x3(%eax)
    5250:	74 3e                	je     5290 <strlen+0x70>
    5252:	83 c0 04             	add    $0x4,%eax
    5255:	8b 08                	mov    (%eax),%ecx
    5257:	81 e9 01 01 01 01    	sub    $0x1010101,%ecx
    525d:	81 e1 80 80 80 80    	and    $0x80808080,%ecx
    5263:	74 ed                	je     5252 <strlen+0x32>
    5265:	80 38 00             	cmpb   $0x0,(%eax)
    5268:	75 d6                	jne    5240 <strlen+0x20>
    526a:	eb d0                	jmp    523c <strlen+0x1c>
    526c:	8d 74 26 00          	lea    0x0(%esi,%eiz,1),%esi
    5270:	29 d0                	sub    %edx,%eax
    5272:	5d                   	pop    %ebp
    5273:	83 c0 01             	add    $0x1,%eax
    5276:	c3                   	ret    
    5277:	8d b4 26 00 00 00 00 	lea    0x0(%esi,%eiz,1),%esi
    527e:	66 90                	xchg   %ax,%ax
    5280:	29 d0                	sub    %edx,%eax
    5282:	5d                   	pop    %ebp
    5283:	83 c0 02             	add    $0x2,%eax
    5286:	c3                   	ret    
    5287:	8d b4 26 00 00 00 00 	lea    0x0(%esi,%eiz,1),%esi
    528e:	66 90                	xchg   %ax,%ax
    5290:	29 d0                	sub    %edx,%eax
    5292:	5d                   	pop    %ebp
    5293:	83 c0 03             	add    $0x3,%eax
    5296:	c3                   	ret    
    5297:	66 90                	xchg   %ax,%ax
    5299:	66 90                	xchg   %ax,%ax
    529b:	66 90                	xchg   %ax,%ax
    529d:	66 90                	xchg   %ax,%ax
    529f:	90                   	nop

000052a0 <strncat>:
    52a0:	55                   	push   %ebp
    52a1:	89 e5                	mov    %esp,%ebp
    52a3:	57                   	push   %edi
    52a4:	56                   	push   %esi
    52a5:	53                   	push   %ebx
    52a6:	83 ec 18             	sub    $0x18,%esp
    52a9:	8b 7d 08             	mov    0x8(%ebp),%edi
    52ac:	8b 5d 10             	mov    0x10(%ebp),%ebx
    52af:	57                   	push   %edi
    52b0:	e8 fc ff ff ff       	call   52b1 <strncat+0x11>
			52b1: R_386_PC32	strlen
    52b5:	89 c6                	mov    %eax,%esi
    52b7:	58                   	pop    %eax
    52b8:	5a                   	pop    %edx
    52b9:	53                   	push   %ebx
    52ba:	ff 75 0c             	push   0xc(%ebp)
    52bd:	e8 fc ff ff ff       	call   52be <strncat+0x1e>
			52be: R_386_PC32	strnlen
    52c2:	39 c3                	cmp    %eax,%ebx
    52c4:	0f 47 d8             	cmova  %eax,%ebx
    52c7:	83 c4 0c             	add    $0xc,%esp
    52ca:	01 fe                	add    %edi,%esi
    52cc:	53                   	push   %ebx
    52cd:	ff 75 0c             	push   0xc(%ebp)
    52d0:	56                   	push   %esi
    52d1:	e8 fc ff ff ff       	call   52d2 <strncat+0x32>
			52d2: R_386_PC32	memcpy
    52d6:	c6 04 1e 00          	movb   $0x0,(%esi,%ebx,1)
    52da:	8d 65 f4             	lea    -0xc(%ebp),%esp
    52dd:	89 f8                	mov    %edi,%eax
    52df:	5b                   	pop    %ebx
    52e0:	5e                   	pop    %esi
    52e1:	5f                   	pop    %edi
    52e2:	5d                   	pop    %ebp
    52e3:	c3                   	ret    
    52e4:	66 90                	xchg   %ax,%ax
    52e6:	66 90                	xchg   %ax,%ax
    52e8:	66 90                	xchg   %ax,%ax
    52ea:	66 90                	xchg   %ax,%ax
    52ec:	66 90                	xchg   %ax,%ax
    52ee:	66 90                	xchg   %ax,%ax

000052f0 <strncmp>:
    52f0:	55                   	push   %ebp
    52f1:	89 e5                	mov    %esp,%ebp
    52f3:	56                   	push   %esi
    52f4:	8b 4d 08             	mov    0x8(%ebp),%ecx
    52f7:	8b 45 0c             	mov    0xc(%ebp),%eax
    52fa:	53                   	push   %ebx
    52fb:	8b 75 10             	mov    0x10(%ebp),%esi
    52fe:	39 c1                	cmp    %eax,%ecx
    5300:	74 4e                	je     5350 <strncmp+0x60>
    5302:	85 c9                	test   %ecx,%ecx
    5304:	74 50                	je     5356 <strncmp+0x66>
    5306:	85 c0                	test   %eax,%eax
    5308:	74 4c                	je     5356 <strncmp+0x66>
    530a:	85 f6                	test   %esi,%esi
    530c:	74 42                	je     5350 <strncmp+0x60>
    530e:	01 c6                	add    %eax,%esi
    5310:	eb 1c                	jmp    532e <strncmp+0x3e>
    5312:	8d b4 26 00 00 00 00 	lea    0x0(%esi,%eiz,1),%esi
    5319:	8d b4 26 00 00 00 00 	lea    0x0(%esi,%eiz,1),%esi
    5320:	84 d2                	test   %dl,%dl
    5322:	74 2c                	je     5350 <strncmp+0x60>
    5324:	83 c0 01             	add    $0x1,%eax
    5327:	83 c1 01             	add    $0x1,%ecx
    532a:	39 c6                	cmp    %eax,%esi
    532c:	74 22                	je     5350 <strncmp+0x60>
    532e:	0f b6 11             	movzbl (%ecx),%edx
    5331:	0f be 18             	movsbl (%eax),%ebx
    5334:	38 da                	cmp    %bl,%dl
    5336:	74 e8                	je     5320 <strncmp+0x30>
    5338:	0f be c2             	movsbl %dl,%eax
    533b:	29 d8                	sub    %ebx,%eax
    533d:	5b                   	pop    %ebx
    533e:	5e                   	pop    %esi
    533f:	5d                   	pop    %ebp
    5340:	c3                   	ret    
    5341:	8d b4 26 00 00 00 00 	lea    0x0(%esi,%eiz,1),%esi
    5348:	8d b4 26 00 00 00 00 	lea    0x0(%esi,%eiz,1),%esi
    534f:	90                   	nop
    5350:	31 c0                	xor    %eax,%eax
    5352:	5b                   	pop    %ebx
    5353:	5e                   	pop    %esi
    5354:	5d                   	pop    %ebp
    5355:	c3                   	ret    
    5356:	b8 ff ff ff ff       	mov    $0xffffffff,%eax
    535b:	eb f5                	jmp    5352 <strncmp+0x62>
    535d:	66 90                	xchg   %ax,%ax
    535f:	90                   	nop

00005360 <strncpy>:
    5360:	55                   	push   %ebp
    5361:	89 e5                	mov    %esp,%ebp
    5363:	57                   	push   %edi
    5364:	56                   	push   %esi
    5365:	53                   	push   %ebx
    5366:	83 ec 24             	sub    $0x24,%esp
    5369:	8b 7d 0c             	mov    0xc(%ebp),%edi
    536c:	8b 5d 10             	mov    0x10(%ebp),%ebx
    536f:	8b 75 08             	mov    0x8(%ebp),%esi
    5372:	53                   	push   %ebx
    5373:	57                   	push   %edi
    5374:	e8 fc ff ff ff       	call   5375 <strncpy+0x15>
			5375: R_386_PC32	strnlen
    5379:	83 c4 10             	add    $0x10,%esp
    537c:	39 c3                	cmp    %eax,%ebx
    537e:	76 30                	jbe    53b0 <strncpy+0x50>
    5380:	83 ec 04             	sub    $0x4,%esp
    5383:	89 45 e4             	mov    %eax,-0x1c(%ebp)
    5386:	50                   	push   %eax
    5387:	57                   	push   %edi
    5388:	56                   	push   %esi
    5389:	e8 fc ff ff ff       	call   538a <strncpy+0x2a>
			538a: R_386_PC32	memcpy
    538e:	8b 55 e4             	mov    -0x1c(%ebp),%edx
    5391:	83 c4 0c             	add    $0xc,%esp
    5394:	29 d3                	sub    %edx,%ebx
    5396:	01 f2                	add    %esi,%edx
    5398:	53                   	push   %ebx
    5399:	6a 00                	push   $0x0
    539b:	52                   	push   %edx
    539c:	e8 fc ff ff ff       	call   539d <strncpy+0x3d>
			539d: R_386_PC32	memset
    53a1:	83 c4 10             	add    $0x10,%esp
    53a4:	8d 65 f4             	lea    -0xc(%ebp),%esp
    53a7:	89 f0                	mov    %esi,%eax
    53a9:	5b                   	pop    %ebx
    53aa:	5e                   	pop    %esi
    53ab:	5f                   	pop    %edi
    53ac:	5d                   	pop    %ebp
    53ad:	c3                   	ret    
    53ae:	66 90                	xchg   %ax,%ax
    53b0:	83 ec 04             	sub    $0x4,%esp
    53b3:	53                   	push   %ebx
    53b4:	57                   	push   %edi
    53b5:	56                   	push   %esi
    53b6:	e8 fc ff ff ff       	call   53b7 <strncpy+0x57>
			53b7: R_386_PC32	memcpy
    53bb:	83 c4 10             	add    $0x10,%esp
    53be:	8d 65 f4             	lea    -0xc(%ebp),%esp
    53c1:	89 f0                	mov    %esi,%eax
    53c3:	5b                   	pop    %ebx
    53c4:	5e                   	pop    %esi
    53c5:	5f                   	pop    %edi
    53c6:	5d                   	pop    %ebp
    53c7:	c3                   	ret    
    53c8:	66 90                	xchg   %ax,%ax
    53ca:	66 90                	xchg   %ax,%ax
    53cc:	66 90                	xchg   %ax,%ax
    53ce:	66 90                	xchg   %ax,%ax

000053d0 <strndup>:
    53d0:	31 c0                	xor    %eax,%eax
    53d2:	c3                   	ret    
    53d3:	66 90                	xchg   %ax,%ax
    53d5:	66 90                	xchg   %ax,%ax
    53d7:	66 90                	xchg   %ax,%ax
    53d9:	66 90                	xchg   %ax,%ax
    53db:	66 90                	xchg   %ax,%ax
    53dd:	66 90                	xchg   %ax,%ax
    53df:	90                   	nop

000053e0 <strnlen>:
    53e0:	55                   	push   %ebp
    53e1:	31 c0                	xor    %eax,%eax
    53e3:	89 e5                	mov    %esp,%ebp
    53e5:	53                   	push   %ebx
    53e6:	8b 4d 08             	mov    0x8(%ebp),%ecx
    53e9:	8b 5d 0c             	mov    0xc(%ebp),%ebx
    53ec:	8d 14 19             	lea    (%ecx,%ebx,1),%edx
    53ef:	85 db                	test   %ebx,%ebx
    53f1:	74 1b                	je     540e <strnlen+0x2e>
    53f3:	89 c8                	mov    %ecx,%eax
    53f5:	eb 10                	jmp    5407 <strnlen+0x27>
    53f7:	8d b4 26 00 00 00 00 	lea    0x0(%esi,%eiz,1),%esi
    53fe:	66 90                	xchg   %ax,%ax
    5400:	83 c0 01             	add    $0x1,%eax
    5403:	39 c2                	cmp    %eax,%edx
    5405:	74 19                	je     5420 <strnlen+0x40>
    5407:	80 38 00             	cmpb   $0x0,(%eax)
    540a:	75 f4                	jne    5400 <strnlen+0x20>
    540c:	29 c8                	sub    %ecx,%eax
    540e:	8b 5d fc             	mov    -0x4(%ebp),%ebx
    5411:	c9                   	leave  
    5412:	c3                   	ret    
    5413:	8d b4 26 00 00 00 00 	lea    0x0(%esi,%eiz,1),%esi
    541a:	8d b6 00 00 00 00    	lea    0x0(%esi),%esi
    5420:	89 d0                	mov    %edx,%eax
    5422:	8b 5d fc             	mov    -0x4(%ebp),%ebx
    5425:	c9                   	leave  
    5426:	29 c8                	sub    %ecx,%eax
    5428:	c3                   	ret    
    5429:	66 90                	xchg   %ax,%ax
    542b:	66 90                	xchg   %ax,%ax
    542d:	66 90                	xchg   %ax,%ax
    542f:	90                   	nop

00005430 <strnstr>:
    5430:	55                   	push   %ebp
    5431:	89 e5                	mov    %esp,%ebp
    5433:	57                   	push   %edi
    5434:	56                   	push   %esi
    5435:	53                   	push   %ebx
    5436:	83 ec 1c             	sub    $0x1c,%esp
    5439:	8b 45 0c             	mov    0xc(%ebp),%eax
    543c:	8b 5d 08             	mov    0x8(%ebp),%ebx
    543f:	0f b6 38             	movzbl (%eax),%edi
    5442:	89 f9                	mov    %edi,%ecx
    5444:	84 c9                	test   %cl,%cl
    5446:	75 18                	jne    5460 <strnstr+0x30>
    5448:	8d 65 f4             	lea    -0xc(%ebp),%esp
    544b:	89 d8                	mov    %ebx,%eax
    544d:	5b                   	pop    %ebx
    544e:	5e                   	pop    %esi
    544f:	5f                   	pop    %edi
    5450:	5d                   	pop    %ebp
    5451:	c3                   	ret    
    5452:	8d b4 26 00 00 00 00 	lea    0x0(%esi,%eiz,1),%esi
    5459:	8d b4 26 00 00 00 00 	lea    0x0(%esi,%eiz,1),%esi
    5460:	83 c0 01             	add    $0x1,%eax
    5463:	83 ec 0c             	sub    $0xc,%esp
    5466:	50                   	push   %eax
    5467:	89 45 dc             	mov    %eax,-0x24(%ebp)
    546a:	e8 fc ff ff ff       	call   546b <strnstr+0x3b>
			546b: R_386_PC32	strlen
    546f:	83 c4 10             	add    $0x10,%esp
    5472:	89 fa                	mov    %edi,%edx
    5474:	89 c1                	mov    %eax,%ecx
    5476:	8b 45 10             	mov    0x10(%ebp),%eax
    5479:	8d 70 ff             	lea    -0x1(%eax),%esi
    547c:	85 c0                	test   %eax,%eax
    547e:	75 15                	jne    5495 <strnstr+0x65>
    5480:	eb 5e                	jmp    54e0 <strnstr+0xb0>
    5482:	8d b4 26 00 00 00 00 	lea    0x0(%esi,%eiz,1),%esi
    5489:	8d b4 26 00 00 00 00 	lea    0x0(%esi,%eiz,1),%esi
    5490:	83 ee 01             	sub    $0x1,%esi
    5493:	72 4b                	jb     54e0 <strnstr+0xb0>
    5495:	89 df                	mov    %ebx,%edi
    5497:	0f b6 03             	movzbl (%ebx),%eax
    549a:	83 c3 01             	add    $0x1,%ebx
    549d:	84 c0                	test   %al,%al
    549f:	74 3f                	je     54e0 <strnstr+0xb0>
    54a1:	38 c2                	cmp    %al,%dl
    54a3:	75 eb                	jne    5490 <strnstr+0x60>
    54a5:	88 55 e7             	mov    %dl,-0x19(%ebp)
    54a8:	39 f1                	cmp    %esi,%ecx
    54aa:	77 34                	ja     54e0 <strnstr+0xb0>
    54ac:	83 ec 04             	sub    $0x4,%esp
    54af:	89 4d e0             	mov    %ecx,-0x20(%ebp)
    54b2:	51                   	push   %ecx
    54b3:	ff 75 dc             	push   -0x24(%ebp)
    54b6:	53                   	push   %ebx
    54b7:	e8 fc ff ff ff       	call   54b8 <strnstr+0x88>
			54b8: R_386_PC32	strncmp
    54bc:	83 c4 10             	add    $0x10,%esp
    54bf:	8b 4d e0             	mov    -0x20(%ebp),%ecx
    54c2:	0f b6 55 e7          	movzbl -0x19(%ebp),%edx
    54c6:	85 c0                	test   %eax,%eax
    54c8:	75 c6                	jne    5490 <strnstr+0x60>
    54ca:	89 fb                	mov    %edi,%ebx
    54cc:	e9 77 ff ff ff       	jmp    5448 <strnstr+0x18>
    54d1:	8d b4 26 00 00 00 00 	lea    0x0(%esi,%eiz,1),%esi
    54d8:	8d b4 26 00 00 00 00 	lea    0x0(%esi,%eiz,1),%esi
    54df:	90                   	nop
    54e0:	8d 65 f4             	lea    -0xc(%ebp),%esp
    54e3:	31 db                	xor    %ebx,%ebx
    54e5:	89 d8                	mov    %ebx,%eax
    54e7:	5b                   	pop    %ebx
    54e8:	5e                   	pop    %esi
    54e9:	5f                   	pop    %edi
    54ea:	5d                   	pop    %ebp
    54eb:	c3                   	ret    
    54ec:	66 90                	xchg   %ax,%ax
    54ee:	66 90                	xchg   %ax,%ax

000054f0 <strpbrk>:
    54f0:	55                   	push   %ebp
    54f1:	89 e5                	mov    %esp,%ebp
    54f3:	53                   	push   %ebx
    54f4:	83 ec 0c             	sub    $0xc,%esp
    54f7:	8b 5d 08             	mov    0x8(%ebp),%ebx
    54fa:	ff 75 0c             	push   0xc(%ebp)
    54fd:	53                   	push   %ebx
    54fe:	e8 fc ff ff ff       	call   54ff <strpbrk+0xf>
			54ff: R_386_PC32	strcspn
    5503:	83 c4 10             	add    $0x10,%esp
    5506:	31 d2                	xor    %edx,%edx
    5508:	01 d8                	add    %ebx,%eax
    550a:	8b 5d fc             	mov    -0x4(%ebp),%ebx
    550d:	80 38 00             	cmpb   $0x0,(%eax)
    5510:	c9                   	leave  
    5511:	0f 44 c2             	cmove  %edx,%eax
    5514:	c3                   	ret    
    5515:	66 90                	xchg   %ax,%ax
    5517:	66 90                	xchg   %ax,%ax
    5519:	66 90                	xchg   %ax,%ax
    551b:	66 90                	xchg   %ax,%ax
    551d:	66 90                	xchg   %ax,%ax
    551f:	90                   	nop

00005520 <strrchr>:
    5520:	55                   	push   %ebp
    5521:	89 e5                	mov    %esp,%ebp
    5523:	53                   	push   %ebx
    5524:	83 ec 10             	sub    $0x10,%esp
    5527:	8b 5d 08             	mov    0x8(%ebp),%ebx
    552a:	53                   	push   %ebx
    552b:	e8 fc ff ff ff       	call   552c <strrchr+0xc>
			552c: R_386_PC32	strlen
    5530:	83 c4 0c             	add    $0xc,%esp
    5533:	83 c0 01             	add    $0x1,%eax
    5536:	50                   	push   %eax
    5537:	ff 75 0c             	push   0xc(%ebp)
    553a:	53                   	push   %ebx
    553b:	e8 fc ff ff ff       	call   553c <strrchr+0x1c>
			553c: R_386_PC32	__memrchr
    5540:	8b 5d fc             	mov    -0x4(%ebp),%ebx
    5543:	c9                   	leave  
    5544:	c3                   	ret    
    5545:	66 90                	xchg   %ax,%ax
    5547:	66 90                	xchg   %ax,%ax
    5549:	66 90                	xchg   %ax,%ax
    554b:	66 90                	xchg   %ax,%ax
    554d:	66 90                	xchg   %ax,%ax
    554f:	90                   	nop

00005550 <strspn>:
    5550:	55                   	push   %ebp
    5551:	31 d2                	xor    %edx,%edx
    5553:	31 c0                	xor    %eax,%eax
    5555:	89 e5                	mov    %esp,%ebp
    5557:	57                   	push   %edi
    5558:	56                   	push   %esi
    5559:	53                   	push   %ebx
    555a:	83 ec 24             	sub    $0x24,%esp
    555d:	8b 5d 0c             	mov    0xc(%ebp),%ebx
    5560:	89 54 05 d4          	mov    %edx,-0x2c(%ebp,%eax,1)
    5564:	83 c0 04             	add    $0x4,%eax
    5567:	83 f8 20             	cmp    $0x20,%eax
    556a:	72 f4                	jb     5560 <strspn+0x10>
    556c:	0f b6 0b             	movzbl (%ebx),%ecx
    556f:	31 c0                	xor    %eax,%eax
    5571:	84 c9                	test   %cl,%cl
    5573:	74 7c                	je     55f1 <strspn+0xa1>
    5575:	8b 45 08             	mov    0x8(%ebp),%eax
    5578:	0f b6 73 01          	movzbl 0x1(%ebx),%esi
    557c:	bf 01 00 00 00       	mov    $0x1,%edi
    5581:	0f b6 10             	movzbl (%eax),%edx
    5584:	89 f0                	mov    %esi,%eax
    5586:	84 c0                	test   %al,%al
    5588:	74 76                	je     5600 <strspn+0xb0>
    558a:	89 d0                	mov    %edx,%eax
    558c:	89 f2                	mov    %esi,%edx
    558e:	88 45 d3             	mov    %al,-0x2d(%ebp)
    5591:	eb 13                	jmp    55a6 <strspn+0x56>
    5593:	8d b4 26 00 00 00 00 	lea    0x0(%esi,%eiz,1),%esi
    559a:	8d b6 00 00 00 00    	lea    0x0(%esi),%esi
    55a0:	89 d1                	mov    %edx,%ecx
    55a2:	0f b6 53 01          	movzbl 0x1(%ebx),%edx
    55a6:	89 c8                	mov    %ecx,%eax
    55a8:	89 fe                	mov    %edi,%esi
    55aa:	83 c3 01             	add    $0x1,%ebx
    55ad:	c0 e8 05             	shr    $0x5,%al
    55b0:	d3 e6                	shl    %cl,%esi
    55b2:	0f b6 c0             	movzbl %al,%eax
    55b5:	09 74 85 d4          	or     %esi,-0x2c(%ebp,%eax,4)
    55b9:	84 d2                	test   %dl,%dl
    55bb:	75 e3                	jne    55a0 <strspn+0x50>
    55bd:	0f b6 55 d3          	movzbl -0x2d(%ebp),%edx
    55c1:	8b 45 08             	mov    0x8(%ebp),%eax
    55c4:	89 d1                	mov    %edx,%ecx
    55c6:	84 d2                	test   %dl,%dl
    55c8:	75 11                	jne    55db <strspn+0x8b>
    55ca:	eb 22                	jmp    55ee <strspn+0x9e>
    55cc:	8d 74 26 00          	lea    0x0(%esi,%eiz,1),%esi
    55d0:	0f b6 48 01          	movzbl 0x1(%eax),%ecx
    55d4:	83 c0 01             	add    $0x1,%eax
    55d7:	84 c9                	test   %cl,%cl
    55d9:	74 13                	je     55ee <strspn+0x9e>
    55db:	89 cb                	mov    %ecx,%ebx
    55dd:	c0 eb 05             	shr    $0x5,%bl
    55e0:	0f b6 db             	movzbl %bl,%ebx
    55e3:	8b 5c 9d d4          	mov    -0x2c(%ebp,%ebx,4),%ebx
    55e7:	d3 eb                	shr    %cl,%ebx
    55e9:	83 e3 01             	and    $0x1,%ebx
    55ec:	75 e2                	jne    55d0 <strspn+0x80>
    55ee:	2b 45 08             	sub    0x8(%ebp),%eax
    55f1:	83 c4 24             	add    $0x24,%esp
    55f4:	5b                   	pop    %ebx
    55f5:	5e                   	pop    %esi
    55f6:	5f                   	pop    %edi
    55f7:	5d                   	pop    %ebp
    55f8:	c3                   	ret    
    55f9:	8d b4 26 00 00 00 00 	lea    0x0(%esi,%eiz,1),%esi
    5600:	8b 45 08             	mov    0x8(%ebp),%eax
    5603:	38 d1                	cmp    %dl,%cl
    5605:	75 e7                	jne    55ee <strspn+0x9e>
    5607:	8d b4 26 00 00 00 00 	lea    0x0(%esi,%eiz,1),%esi
    560e:	66 90                	xchg   %ax,%ax
    5610:	83 c0 01             	add    $0x1,%eax
    5613:	3a 08                	cmp    (%eax),%cl
    5615:	75 d7                	jne    55ee <strspn+0x9e>
    5617:	83 c0 01             	add    $0x1,%eax
    561a:	3a 08                	cmp    (%eax),%cl
    561c:	74 f2                	je     5610 <strspn+0xc0>
    561e:	eb ce                	jmp    55ee <strspn+0x9e>

00005620 <strstr>:
    5620:	55                   	push   %ebp
    5621:	89 e5                	mov    %esp,%ebp
    5623:	56                   	push   %esi
    5624:	53                   	push   %ebx
    5625:	8b 5d 0c             	mov    0xc(%ebp),%ebx
    5628:	8b 4d 08             	mov    0x8(%ebp),%ecx
    562b:	0f b6 33             	movzbl (%ebx),%esi
    562e:	89 c8                	mov    %ecx,%eax
    5630:	89 f2                	mov    %esi,%edx
    5632:	84 d2                	test   %dl,%dl
    5634:	75 0d                	jne    5643 <strstr+0x23>
    5636:	eb 3a                	jmp    5672 <strstr+0x52>
    5638:	8d b4 26 00 00 00 00 	lea    0x0(%esi,%eiz,1),%esi
    563f:	90                   	nop
    5640:	83 c1 01             	add    $0x1,%ecx
    5643:	0f b6 01             	movzbl (%ecx),%eax
    5646:	84 c0                	test   %al,%al
    5648:	74 36                	je     5680 <strstr+0x60>
    564a:	89 f2                	mov    %esi,%edx
    564c:	38 c2                	cmp    %al,%dl
    564e:	75 f0                	jne    5640 <strstr+0x20>
    5650:	31 c0                	xor    %eax,%eax
    5652:	8d b4 26 00 00 00 00 	lea    0x0(%esi,%eiz,1),%esi
    5659:	8d b4 26 00 00 00 00 	lea    0x0(%esi,%eiz,1),%esi
    5660:	38 14 01             	cmp    %dl,(%ecx,%eax,1)
    5663:	75 db                	jne    5640 <strstr+0x20>
    5665:	83 c0 01             	add    $0x1,%eax
    5668:	0f b6 14 03          	movzbl (%ebx,%eax,1),%edx
    566c:	84 d2                	test   %dl,%dl
    566e:	75 f0                	jne    5660 <strstr+0x40>
    5670:	89 c8                	mov    %ecx,%eax
    5672:	5b                   	pop    %ebx
    5673:	5e                   	pop    %esi
    5674:	5d                   	pop    %ebp
    5675:	c3                   	ret    
    5676:	8d b4 26 00 00 00 00 	lea    0x0(%esi,%eiz,1),%esi
    567d:	8d 76 00             	lea    0x0(%esi),%esi
    5680:	5b                   	pop    %ebx
    5681:	31 c0                	xor    %eax,%eax
    5683:	5e                   	pop    %esi
    5684:	5d                   	pop    %ebp
    5685:	c3                   	ret    
    5686:	66 90                	xchg   %ax,%ax
    5688:	66 90                	xchg   %ax,%ax
    568a:	66 90                	xchg   %ax,%ax
    568c:	66 90                	xchg   %ax,%ax
    568e:	66 90                	xchg   %ax,%ax

00005690 <__strtok_r>:
    5690:	55                   	push   %ebp
    5691:	89 e5                	mov    %esp,%ebp
    5693:	57                   	push   %edi
    5694:	8b 45 08             	mov    0x8(%ebp),%eax
    5697:	56                   	push   %esi
    5698:	8b 75 0c             	mov    0xc(%ebp),%esi
    569b:	53                   	push   %ebx
    569c:	85 c0                	test   %eax,%eax
    569e:	74 70                	je     5710 <__strtok_r+0x80>
    56a0:	0f be 38             	movsbl (%eax),%edi
    56a3:	8d 58 01             	lea    0x1(%eax),%ebx
    56a6:	89 f2                	mov    %esi,%edx
    56a8:	eb 0a                	jmp    56b4 <__strtok_r+0x24>
    56aa:	8d b6 00 00 00 00    	lea    0x0(%esi),%esi
    56b0:	39 cf                	cmp    %ecx,%edi
    56b2:	74 3c                	je     56f0 <__strtok_r+0x60>
    56b4:	0f be 0a             	movsbl (%edx),%ecx
    56b7:	83 c2 01             	add    $0x1,%edx
    56ba:	85 c9                	test   %ecx,%ecx
    56bc:	75 f2                	jne    56b0 <__strtok_r+0x20>
    56be:	85 ff                	test   %edi,%edi
    56c0:	74 5e                	je     5720 <__strtok_r+0x90>
    56c2:	83 c3 01             	add    $0x1,%ebx
    56c5:	89 f2                	mov    %esi,%edx
    56c7:	0f be 7b ff          	movsbl -0x1(%ebx),%edi
    56cb:	eb 07                	jmp    56d4 <__strtok_r+0x44>
    56cd:	8d 76 00             	lea    0x0(%esi),%esi
    56d0:	85 c9                	test   %ecx,%ecx
    56d2:	74 ee                	je     56c2 <__strtok_r+0x32>
    56d4:	0f be 0a             	movsbl (%edx),%ecx
    56d7:	83 c2 01             	add    $0x1,%edx
    56da:	39 cf                	cmp    %ecx,%edi
    56dc:	75 f2                	jne    56d0 <__strtok_r+0x40>
    56de:	85 ff                	test   %edi,%edi
    56e0:	74 1e                	je     5700 <__strtok_r+0x70>
    56e2:	c6 43 ff 00          	movb   $0x0,-0x1(%ebx)
    56e6:	8b 75 10             	mov    0x10(%ebp),%esi
    56e9:	89 1e                	mov    %ebx,(%esi)
    56eb:	5b                   	pop    %ebx
    56ec:	5e                   	pop    %esi
    56ed:	5f                   	pop    %edi
    56ee:	5d                   	pop    %ebp
    56ef:	c3                   	ret    
    56f0:	89 d8                	mov    %ebx,%eax
    56f2:	eb ac                	jmp    56a0 <__strtok_r+0x10>
    56f4:	8d b4 26 00 00 00 00 	lea    0x0(%esi,%eiz,1),%esi
    56fb:	8d 74 26 00          	lea    0x0(%esi,%eiz,1),%esi
    56ff:	90                   	nop
    5700:	31 db                	xor    %ebx,%ebx
    5702:	eb e2                	jmp    56e6 <__strtok_r+0x56>
    5704:	8d b4 26 00 00 00 00 	lea    0x0(%esi,%eiz,1),%esi
    570b:	8d 74 26 00          	lea    0x0(%esi,%eiz,1),%esi
    570f:	90                   	nop
    5710:	8b 45 10             	mov    0x10(%ebp),%eax
    5713:	8b 00                	mov    (%eax),%eax
    5715:	85 c0                	test   %eax,%eax
    5717:	75 87                	jne    56a0 <__strtok_r+0x10>
    5719:	31 c0                	xor    %eax,%eax
    571b:	eb ce                	jmp    56eb <__strtok_r+0x5b>
    571d:	8d 76 00             	lea    0x0(%esi),%esi
    5720:	8b 45 10             	mov    0x10(%ebp),%eax
    5723:	c7 00 00 00 00 00    	movl   $0x0,(%eax)
    5729:	31 c0                	xor    %eax,%eax
    572b:	5b                   	pop    %ebx
    572c:	5e                   	pop    %esi
    572d:	5f                   	pop    %edi
    572e:	5d                   	pop    %ebp
    572f:	c3                   	ret    

00005730 <strtok>:
    5730:	55                   	push   %ebp
    5731:	89 e5                	mov    %esp,%ebp
    5733:	83 ec 0c             	sub    $0xc,%esp
    5736:	68 48 00 00 00       	push   $0x48
			5737: R_386_32	.bss
    573b:	ff 75 0c             	push   0xc(%ebp)
    573e:	ff 75 08             	push   0x8(%ebp)
    5741:	e8 fc ff ff ff       	call   5742 <strtok+0x12>
			5742: R_386_PC32	__strtok_r
    5746:	c9                   	leave  
    5747:	c3                   	ret    
    5748:	66 90                	xchg   %ax,%ax
    574a:	66 90                	xchg   %ax,%ax
    574c:	66 90                	xchg   %ax,%ax
    574e:	66 90                	xchg   %ax,%ax

00005750 <strxfrm>:
    5750:	55                   	push   %ebp
    5751:	89 e5                	mov    %esp,%ebp
    5753:	56                   	push   %esi
    5754:	53                   	push   %ebx
    5755:	8b 75 0c             	mov    0xc(%ebp),%esi
    5758:	83 ec 0c             	sub    $0xc,%esp
    575b:	56                   	push   %esi
    575c:	e8 fc ff ff ff       	call   575d <strxfrm+0xd>
			575d: R_386_PC32	strlen
    5761:	83 c4 10             	add    $0x10,%esp
    5764:	89 c3                	mov    %eax,%ebx
    5766:	3b 45 10             	cmp    0x10(%ebp),%eax
    5769:	72 15                	jb     5780 <strxfrm+0x30>
    576b:	8d 65 f8             	lea    -0x8(%ebp),%esp
    576e:	89 d8                	mov    %ebx,%eax
    5770:	5b                   	pop    %ebx
    5771:	5e                   	pop    %esi
    5772:	5d                   	pop    %ebp
    5773:	c3                   	ret    
    5774:	8d b4 26 00 00 00 00 	lea    0x0(%esi,%eiz,1),%esi
    577b:	8d 74 26 00          	lea    0x0(%esi,%eiz,1),%esi
    577f:	90                   	nop
    5780:	83 ec 08             	sub    $0x8,%esp
    5783:	56                   	push   %esi
    5784:	ff 75 08             	push   0x8(%ebp)
    5787:	e8 fc ff ff ff       	call   5788 <strxfrm+0x38>
			5788: R_386_PC32	strcpy
    578c:	83 c4 10             	add    $0x10,%esp
    578f:	8d 65 f8             	lea    -0x8(%ebp),%esp
    5792:	89 d8                	mov    %ebx,%eax
    5794:	5b                   	pop    %ebx
    5795:	5e                   	pop    %esi
    5796:	5d                   	pop    %ebp
    5797:	c3                   	ret    
    5798:	66 90                	xchg   %ax,%ax
    579a:	66 90                	xchg   %ax,%ax
    579c:	66 90                	xchg   %ax,%ax
    579e:	66 90                	xchg   %ax,%ax

000057a0 <fls>:
    57a0:	55                   	push   %ebp
    57a1:	31 c0                	xor    %eax,%eax
    57a3:	89 e5                	mov    %esp,%ebp
    57a5:	8b 55 08             	mov    0x8(%ebp),%edx
    57a8:	85 d2                	test   %edx,%edx
    57aa:	74 0d                	je     57b9 <fls+0x19>
    57ac:	0f bd d2             	bsr    %edx,%edx
    57af:	b8 20 00 00 00       	mov    $0x20,%eax
    57b4:	83 f2 1f             	xor    $0x1f,%edx
    57b7:	29 d0                	sub    %edx,%eax
    57b9:	5d                   	pop    %ebp
    57ba:	c3                   	ret    
    57bb:	66 90                	xchg   %ax,%ax
    57bd:	66 90                	xchg   %ax,%ax
    57bf:	90                   	nop

000057c0 <flsl>:
    57c0:	55                   	push   %ebp
    57c1:	31 c0                	xor    %eax,%eax
    57c3:	89 e5                	mov    %esp,%ebp
    57c5:	8b 55 08             	mov    0x8(%ebp),%edx
    57c8:	85 d2                	test   %edx,%edx
    57ca:	74 0d                	je     57d9 <flsl+0x19>
    57cc:	0f bd d2             	bsr    %edx,%edx
    57cf:	b8 20 00 00 00       	mov    $0x20,%eax
    57d4:	83 f2 1f             	xor    $0x1f,%edx
    57d7:	29 d0                	sub    %edx,%eax
    57d9:	5d                   	pop    %ebp
    57da:	c3                   	ret    
    57db:	66 90                	xchg   %ax,%ax
    57dd:	66 90                	xchg   %ax,%ax
    57df:	90                   	nop

000057e0 <flsll>:
    57e0:	55                   	push   %ebp
    57e1:	89 e5                	mov    %esp,%ebp
    57e3:	53                   	push   %ebx
    57e4:	8b 4d 0c             	mov    0xc(%ebp),%ecx
    57e7:	8b 55 08             	mov    0x8(%ebp),%edx
    57ea:	89 cb                	mov    %ecx,%ebx
    57ec:	09 d3                	or     %edx,%ebx
    57ee:	74 30                	je     5820 <flsll+0x40>
    57f0:	85 c9                	test   %ecx,%ecx
    57f2:	74 1c                	je     5810 <flsll+0x30>
    57f4:	0f bd d1             	bsr    %ecx,%edx
    57f7:	83 f2 1f             	xor    $0x1f,%edx
    57fa:	b8 40 00 00 00       	mov    $0x40,%eax
    57ff:	8b 5d fc             	mov    -0x4(%ebp),%ebx
    5802:	c9                   	leave  
    5803:	29 d0                	sub    %edx,%eax
    5805:	c3                   	ret    
    5806:	8d b4 26 00 00 00 00 	lea    0x0(%esi,%eiz,1),%esi
    580d:	8d 76 00             	lea    0x0(%esi),%esi
    5810:	0f bd d2             	bsr    %edx,%edx
    5813:	83 f2 1f             	xor    $0x1f,%edx
    5816:	83 c2 20             	add    $0x20,%edx
    5819:	eb df                	jmp    57fa <flsll+0x1a>
    581b:	8d 74 26 00          	lea    0x0(%esi,%eiz,1),%esi
    581f:	90                   	nop
    5820:	8b 5d fc             	mov    -0x4(%ebp),%ebx
    5823:	31 c0                	xor    %eax,%eax
    5825:	c9                   	leave  
    5826:	c3                   	ret    
    5827:	66 90                	xchg   %ax,%ax
    5829:	66 90                	xchg   %ax,%ax
    582b:	66 90                	xchg   %ax,%ax
    582d:	66 90                	xchg   %ax,%ax
    582f:	90                   	nop

00005830 <asctime>:
    5830:	55                   	push   %ebp
    5831:	89 e5                	mov    %esp,%ebp
    5833:	83 ec 10             	sub    $0x10,%esp
    5836:	68 4c 00 00 00       	push   $0x4c
			5837: R_386_32	.bss
    583b:	ff 75 08             	push   0x8(%ebp)
    583e:	e8 fc ff ff ff       	call   583f <asctime+0xf>
			583f: R_386_PC32	asctime_r
    5843:	c9                   	leave  
    5844:	c3                   	ret    
    5845:	66 90                	xchg   %ax,%ax
    5847:	66 90                	xchg   %ax,%ax
    5849:	66 90                	xchg   %ax,%ax
    584b:	66 90                	xchg   %ax,%ax
    584d:	66 90                	xchg   %ax,%ax
    584f:	90                   	nop

00005850 <asctime_r>:
    5850:	55                   	push   %ebp
    5851:	89 e5                	mov    %esp,%ebp
    5853:	57                   	push   %edi
    5854:	56                   	push   %esi
    5855:	53                   	push   %ebx
    5856:	83 ec 28             	sub    $0x28,%esp
    5859:	8b 5d 08             	mov    0x8(%ebp),%ebx
    585c:	8b 43 14             	mov    0x14(%ebx),%eax
    585f:	8b 53 04             	mov    0x4(%ebx),%edx
    5862:	8b 0b                	mov    (%ebx),%ecx
    5864:	8b 73 0c             	mov    0xc(%ebx),%esi
    5867:	89 55 dc             	mov    %edx,-0x24(%ebp)
    586a:	8d b8 6c 07 00 00    	lea    0x76c(%eax),%edi
    5870:	8b 53 10             	mov    0x10(%ebx),%edx
    5873:	8b 43 08             	mov    0x8(%ebx),%eax
    5876:	89 4d d8             	mov    %ecx,-0x28(%ebp)
    5879:	89 75 e0             	mov    %esi,-0x20(%ebp)
    587c:	89 45 e4             	mov    %eax,-0x1c(%ebp)
    587f:	8d 82 0e 00 02 00    	lea    0x2000e(%edx),%eax
    5885:	50                   	push   %eax
    5886:	e8 fc ff ff ff       	call   5887 <asctime_r+0x37>
			5887: R_386_PC32	nl_langinfo
    588b:	89 c6                	mov    %eax,%esi
    588d:	8b 43 18             	mov    0x18(%ebx),%eax
    5890:	05 00 00 02 00       	add    $0x20000,%eax
    5895:	89 04 24             	mov    %eax,(%esp)
    5898:	e8 fc ff ff ff       	call   5899 <asctime_r+0x49>
			5899: R_386_PC32	nl_langinfo
    589d:	5a                   	pop    %edx
    589e:	8b 55 dc             	mov    -0x24(%ebp),%edx
    58a1:	59                   	pop    %ecx
    58a2:	8b 4d d8             	mov    -0x28(%ebp),%ecx
    58a5:	57                   	push   %edi
    58a6:	51                   	push   %ecx
    58a7:	52                   	push   %edx
    58a8:	ff 75 e4             	push   -0x1c(%ebp)
    58ab:	ff 75 e0             	push   -0x20(%ebp)
    58ae:	56                   	push   %esi
    58af:	50                   	push   %eax
    58b0:	68 50 00 00 00       	push   $0x50
			58b1: R_386_32	.rodata.str1.4
    58b5:	6a 1a                	push   $0x1a
    58b7:	ff 75 0c             	push   0xc(%ebp)
    58ba:	e8 fc ff ff ff       	call   58bb <asctime_r+0x6b>
			58bb: R_386_PC32	snprintf_
    58bf:	83 c4 30             	add    $0x30,%esp
    58c2:	83 f8 19             	cmp    $0x19,%eax
    58c5:	7f 0b                	jg     58d2 <asctime_r+0x82>
    58c7:	8b 45 0c             	mov    0xc(%ebp),%eax
    58ca:	8d 65 f4             	lea    -0xc(%ebp),%esp
    58cd:	5b                   	pop    %ebx
    58ce:	5e                   	pop    %esi
    58cf:	5f                   	pop    %edi
    58d0:	5d                   	pop    %ebp
    58d1:	c3                   	ret    
    58d2:	68 c4 0a 00 00       	push   $0xac4
			58d3: R_386_32	.rodata
    58d7:	6a 16                	push   $0x16
    58d9:	68 4a 00 00 00       	push   $0x4a
			58da: R_386_32	.rodata.str1.1
    58de:	68 70 00 00 00       	push   $0x70
			58df: R_386_32	.rodata.str1.4
    58e3:	e8 fc ff ff ff       	call   58e4 <asctime_r+0x94>
			58e4: R_386_PC32	__assert_fail
    58e8:	66 90                	xchg   %ax,%ax
    58ea:	66 90                	xchg   %ax,%ax
    58ec:	66 90                	xchg   %ax,%ax
    58ee:	66 90                	xchg   %ax,%ax

000058f0 <iswalnum>:
    58f0:	55                   	push   %ebp
    58f1:	89 e5                	mov    %esp,%ebp
    58f3:	53                   	push   %ebx
    58f4:	83 ec 10             	sub    $0x10,%esp
    58f7:	8b 5d 08             	mov    0x8(%ebp),%ebx
    58fa:	53                   	push   %ebx
    58fb:	e8 fc ff ff ff       	call   58fc <iswalnum+0xc>
			58fc: R_386_PC32	iswdigit
    5900:	83 c4 10             	add    $0x10,%esp
    5903:	89 c2                	mov    %eax,%edx
    5905:	b8 01 00 00 00       	mov    $0x1,%eax
    590a:	85 d2                	test   %edx,%edx
    590c:	74 12                	je     5920 <iswalnum+0x30>
    590e:	8b 5d fc             	mov    -0x4(%ebp),%ebx
    5911:	c9                   	leave  
    5912:	c3                   	ret    
    5913:	8d b4 26 00 00 00 00 	lea    0x0(%esi,%eiz,1),%esi
    591a:	8d b6 00 00 00 00    	lea    0x0(%esi),%esi
    5920:	83 ec 0c             	sub    $0xc,%esp
    5923:	53                   	push   %ebx
    5924:	e8 fc ff ff ff       	call   5925 <iswalnum+0x35>
			5925: R_386_PC32	iswalpha
    5929:	83 c4 10             	add    $0x10,%esp
    592c:	8b 5d fc             	mov    -0x4(%ebp),%ebx
    592f:	c9                   	leave  
    5930:	85 c0                	test   %eax,%eax
    5932:	0f 95 c0             	setne  %al
    5935:	0f b6 c0             	movzbl %al,%eax
    5938:	c3                   	ret    
    5939:	66 90                	xchg   %ax,%ax
    593b:	66 90                	xchg   %ax,%ax
    593d:	66 90                	xchg   %ax,%ax
    593f:	90                   	nop

00005940 <iswalpha>:
    5940:	55                   	push   %ebp
    5941:	89 e5                	mov    %esp,%ebp
    5943:	8b 4d 08             	mov    0x8(%ebp),%ecx
    5946:	81 f9 fd ff 02 00    	cmp    $0x2fffd,%ecx
    594c:	0f 9e c0             	setle  %al
    594f:	0f b6 c0             	movzbl %al,%eax
    5952:	81 f9 ff ff 01 00    	cmp    $0x1ffff,%ecx
    5958:	7e 06                	jle    5960 <iswalpha+0x20>
    595a:	5d                   	pop    %ebp
    595b:	c3                   	ret    
    595c:	8d 74 26 00          	lea    0x0(%esi,%eiz,1),%esi
    5960:	89 c8                	mov    %ecx,%eax
    5962:	89 ca                	mov    %ecx,%edx
    5964:	83 e1 07             	and    $0x7,%ecx
    5967:	5d                   	pop    %ebp
    5968:	c1 f8 08             	sar    $0x8,%eax
    596b:	c1 fa 03             	sar    $0x3,%edx
    596e:	0f b6 80 e0 0a 00 00 	movzbl 0xae0(%eax),%eax
			5971: R_386_32	.rodata
    5975:	83 e2 1f             	and    $0x1f,%edx
    5978:	c1 e0 05             	shl    $0x5,%eax
    597b:	0f b6 84 02 e0 0a 00 	movzbl 0xae0(%edx,%eax,1),%eax
    5982:	00 
			597f: R_386_32	.rodata
    5983:	d3 f8                	sar    %cl,%eax
    5985:	83 e0 01             	and    $0x1,%eax
    5988:	c3                   	ret    
    5989:	66 90                	xchg   %ax,%ax
    598b:	66 90                	xchg   %ax,%ax
    598d:	66 90                	xchg   %ax,%ax
    598f:	90                   	nop

00005990 <iswblank>:
    5990:	e9 fc ff ff ff       	jmp    5991 <iswblank+0x1>
			5991: R_386_PC32	isblank
    5995:	66 90                	xchg   %ax,%ax
    5997:	66 90                	xchg   %ax,%ax
    5999:	66 90                	xchg   %ax,%ax
    599b:	66 90                	xchg   %ax,%ax
    599d:	66 90                	xchg   %ax,%ax
    599f:	90                   	nop

000059a0 <iswcntrl>:
    59a0:	55                   	push   %ebp
    59a1:	89 e5                	mov    %esp,%ebp
    59a3:	8b 45 08             	mov    0x8(%ebp),%eax
    59a6:	8d 50 81             	lea    -0x7f(%eax),%edx
    59a9:	83 fa 20             	cmp    $0x20,%edx
    59ac:	76 32                	jbe    59e0 <iswcntrl+0x40>
    59ae:	83 f8 1f             	cmp    $0x1f,%eax
    59b1:	76 2d                	jbe    59e0 <iswcntrl+0x40>
    59b3:	8d 88 d8 df ff ff    	lea    -0x2028(%eax),%ecx
    59b9:	ba 01 00 00 00       	mov    $0x1,%edx
    59be:	83 f9 01             	cmp    $0x1,%ecx
    59c1:	76 22                	jbe    59e5 <iswcntrl+0x45>
    59c3:	2d f9 ff 00 00       	sub    $0xfff9,%eax
    59c8:	31 d2                	xor    %edx,%edx
    59ca:	5d                   	pop    %ebp
    59cb:	83 f8 02             	cmp    $0x2,%eax
    59ce:	0f 96 c2             	setbe  %dl
    59d1:	89 d0                	mov    %edx,%eax
    59d3:	c3                   	ret    
    59d4:	8d b4 26 00 00 00 00 	lea    0x0(%esi,%eiz,1),%esi
    59db:	8d 74 26 00          	lea    0x0(%esi,%eiz,1),%esi
    59df:	90                   	nop
    59e0:	ba 01 00 00 00       	mov    $0x1,%edx
    59e5:	89 d0                	mov    %edx,%eax
    59e7:	5d                   	pop    %ebp
    59e8:	c3                   	ret    
    59e9:	66 90                	xchg   %ax,%ax
    59eb:	66 90                	xchg   %ax,%ax
    59ed:	66 90                	xchg   %ax,%ax
    59ef:	90                   	nop

000059f0 <iswctype>:
    59f0:	55                   	push   %ebp
    59f1:	89 e5                	mov    %esp,%ebp
    59f3:	8b 45 0c             	mov    0xc(%ebp),%eax
    59f6:	8b 55 08             	mov    0x8(%ebp),%edx
    59f9:	83 f8 0c             	cmp    $0xc,%eax
    59fc:	0f 87 c7 00 00 00    	ja     5ac9 <iswctype+0xd9>
    5a02:	ff 24 85 80 16 00 00 	jmp    *0x1680(,%eax,4)
			5a05: R_386_32	.rodata
    5a09:	8d b4 26 00 00 00 00 	lea    0x0(%esi,%eiz,1),%esi
    5a10:	89 55 08             	mov    %edx,0x8(%ebp)
    5a13:	5d                   	pop    %ebp
    5a14:	e9 fc ff ff ff       	jmp    5a15 <iswctype+0x25>
			5a15: R_386_PC32	iswxdigit
    5a19:	8d b4 26 00 00 00 00 	lea    0x0(%esi,%eiz,1),%esi
    5a20:	89 55 08             	mov    %edx,0x8(%ebp)
    5a23:	5d                   	pop    %ebp
    5a24:	e9 fc ff ff ff       	jmp    5a25 <iswctype+0x35>
			5a25: R_386_PC32	iswalnum
    5a29:	8d b4 26 00 00 00 00 	lea    0x0(%esi,%eiz,1),%esi
    5a30:	89 55 08             	mov    %edx,0x8(%ebp)
    5a33:	5d                   	pop    %ebp
    5a34:	e9 fc ff ff ff       	jmp    5a35 <iswctype+0x45>
			5a35: R_386_PC32	iswalpha
    5a39:	8d b4 26 00 00 00 00 	lea    0x0(%esi,%eiz,1),%esi
    5a40:	89 55 08             	mov    %edx,0x8(%ebp)
    5a43:	5d                   	pop    %ebp
    5a44:	e9 fc ff ff ff       	jmp    5a45 <iswctype+0x55>
			5a45: R_386_PC32	iswblank
    5a49:	8d b4 26 00 00 00 00 	lea    0x0(%esi,%eiz,1),%esi
    5a50:	89 55 08             	mov    %edx,0x8(%ebp)
    5a53:	5d                   	pop    %ebp
    5a54:	e9 fc ff ff ff       	jmp    5a55 <iswctype+0x65>
			5a55: R_386_PC32	iswcntrl
    5a59:	8d b4 26 00 00 00 00 	lea    0x0(%esi,%eiz,1),%esi
    5a60:	89 55 08             	mov    %edx,0x8(%ebp)
    5a63:	5d                   	pop    %ebp
    5a64:	e9 fc ff ff ff       	jmp    5a65 <iswctype+0x75>
			5a65: R_386_PC32	iswdigit
    5a69:	8d b4 26 00 00 00 00 	lea    0x0(%esi,%eiz,1),%esi
    5a70:	89 55 08             	mov    %edx,0x8(%ebp)
    5a73:	5d                   	pop    %ebp
    5a74:	e9 fc ff ff ff       	jmp    5a75 <iswctype+0x85>
			5a75: R_386_PC32	iswgraph
    5a79:	8d b4 26 00 00 00 00 	lea    0x0(%esi,%eiz,1),%esi
    5a80:	89 55 08             	mov    %edx,0x8(%ebp)
    5a83:	5d                   	pop    %ebp
    5a84:	e9 fc ff ff ff       	jmp    5a85 <iswctype+0x95>
			5a85: R_386_PC32	iswlower
    5a89:	8d b4 26 00 00 00 00 	lea    0x0(%esi,%eiz,1),%esi
    5a90:	89 55 08             	mov    %edx,0x8(%ebp)
    5a93:	5d                   	pop    %ebp
    5a94:	e9 fc ff ff ff       	jmp    5a95 <iswctype+0xa5>
			5a95: R_386_PC32	iswprint
    5a99:	8d b4 26 00 00 00 00 	lea    0x0(%esi,%eiz,1),%esi
    5aa0:	89 55 08             	mov    %edx,0x8(%ebp)
    5aa3:	5d                   	pop    %ebp
    5aa4:	e9 fc ff ff ff       	jmp    5aa5 <iswctype+0xb5>
			5aa5: R_386_PC32	iswpunct
    5aa9:	8d b4 26 00 00 00 00 	lea    0x0(%esi,%eiz,1),%esi
    5ab0:	89 55 08             	mov    %edx,0x8(%ebp)
    5ab3:	5d                   	pop    %ebp
    5ab4:	e9 fc ff ff ff       	jmp    5ab5 <iswctype+0xc5>
			5ab5: R_386_PC32	iswspace
    5ab9:	8d b4 26 00 00 00 00 	lea    0x0(%esi,%eiz,1),%esi
    5ac0:	89 55 08             	mov    %edx,0x8(%ebp)
    5ac3:	5d                   	pop    %ebp
    5ac4:	e9 fc ff ff ff       	jmp    5ac5 <iswctype+0xd5>
			5ac5: R_386_PC32	iswupper
    5ac9:	31 c0                	xor    %eax,%eax
    5acb:	5d                   	pop    %ebp
    5acc:	c3                   	ret    
    5acd:	66 90                	xchg   %ax,%ax
    5acf:	90                   	nop

00005ad0 <iswdigit>:
    5ad0:	55                   	push   %ebp
    5ad1:	89 e5                	mov    %esp,%ebp
    5ad3:	8b 45 08             	mov    0x8(%ebp),%eax
    5ad6:	5d                   	pop    %ebp
    5ad7:	83 e8 30             	sub    $0x30,%eax
    5ada:	83 f8 09             	cmp    $0x9,%eax
    5add:	0f 96 c0             	setbe  %al
    5ae0:	0f b6 c0             	movzbl %al,%eax
    5ae3:	c3                   	ret    
    5ae4:	66 90                	xchg   %ax,%ax
    5ae6:	66 90                	xchg   %ax,%ax
    5ae8:	66 90                	xchg   %ax,%ax
    5aea:	66 90                	xchg   %ax,%ax
    5aec:	66 90                	xchg   %ax,%ax
    5aee:	66 90                	xchg   %ax,%ax

00005af0 <iswgraph>:
    5af0:	55                   	push   %ebp
    5af1:	89 e5                	mov    %esp,%ebp
    5af3:	53                   	push   %ebx
    5af4:	83 ec 10             	sub    $0x10,%esp
    5af7:	8b 5d 08             	mov    0x8(%ebp),%ebx
    5afa:	53                   	push   %ebx
    5afb:	e8 fc ff ff ff       	call   5afc <iswgraph+0xc>
			5afc: R_386_PC32	iswspace
    5b00:	83 c4 10             	add    $0x10,%esp
    5b03:	89 c2                	mov    %eax,%edx
    5b05:	31 c0                	xor    %eax,%eax
    5b07:	85 d2                	test   %edx,%edx
    5b09:	74 05                	je     5b10 <iswgraph+0x20>
    5b0b:	8b 5d fc             	mov    -0x4(%ebp),%ebx
    5b0e:	c9                   	leave  
    5b0f:	c3                   	ret    
    5b10:	83 ec 0c             	sub    $0xc,%esp
    5b13:	53                   	push   %ebx
    5b14:	e8 fc ff ff ff       	call   5b15 <iswgraph+0x25>
			5b15: R_386_PC32	iswprint
    5b19:	83 c4 10             	add    $0x10,%esp
    5b1c:	8b 5d fc             	mov    -0x4(%ebp),%ebx
    5b1f:	c9                   	leave  
    5b20:	85 c0                	test   %eax,%eax
    5b22:	0f 95 c0             	setne  %al
    5b25:	0f b6 c0             	movzbl %al,%eax
    5b28:	c3                   	ret    
    5b29:	66 90                	xchg   %ax,%ax
    5b2b:	66 90                	xchg   %ax,%ax
    5b2d:	66 90                	xchg   %ax,%ax
    5b2f:	90                   	nop

00005b30 <iswlower>:
    5b30:	55                   	push   %ebp
    5b31:	89 e5                	mov    %esp,%ebp
    5b33:	53                   	push   %ebx
    5b34:	83 ec 10             	sub    $0x10,%esp
    5b37:	8b 5d 08             	mov    0x8(%ebp),%ebx
    5b3a:	53                   	push   %ebx
    5b3b:	e8 fc ff ff ff       	call   5b3c <iswlower+0xc>
			5b3c: R_386_PC32	towupper
    5b40:	83 c4 10             	add    $0x10,%esp
    5b43:	39 d8                	cmp    %ebx,%eax
    5b45:	8b 5d fc             	mov    -0x4(%ebp),%ebx
    5b48:	c9                   	leave  
    5b49:	0f 95 c0             	setne  %al
    5b4c:	0f b6 c0             	movzbl %al,%eax
    5b4f:	c3                   	ret    

00005b50 <iswprint>:
    5b50:	55                   	push   %ebp
    5b51:	89 e5                	mov    %esp,%ebp
    5b53:	8b 45 08             	mov    0x8(%ebp),%eax
    5b56:	3d fe 00 00 00       	cmp    $0xfe,%eax
    5b5b:	7e 33                	jle    5b90 <iswprint+0x40>
    5b5d:	ba 01 00 00 00       	mov    $0x1,%edx
    5b62:	3d f8 ff 00 00       	cmp    $0xfff8,%eax
    5b67:	7e 18                	jle    5b81 <iswprint+0x31>
    5b69:	31 d2                	xor    %edx,%edx
    5b6b:	3d ff ff 10 00       	cmp    $0x10ffff,%eax
    5b70:	7f 0f                	jg     5b81 <iswprint+0x31>
    5b72:	25 fe ff 00 00       	and    $0xfffe,%eax
    5b77:	31 d2                	xor    %edx,%edx
    5b79:	3d fe ff 00 00       	cmp    $0xfffe,%eax
    5b7e:	0f 95 c2             	setne  %dl
    5b81:	89 d0                	mov    %edx,%eax
    5b83:	5d                   	pop    %ebp
    5b84:	c3                   	ret    
    5b85:	8d b4 26 00 00 00 00 	lea    0x0(%esi,%eiz,1),%esi
    5b8c:	8d 74 26 00          	lea    0x0(%esi,%eiz,1),%esi
    5b90:	83 c0 01             	add    $0x1,%eax
    5b93:	31 d2                	xor    %edx,%edx
    5b95:	5d                   	pop    %ebp
    5b96:	83 e0 7f             	and    $0x7f,%eax
    5b99:	83 f8 20             	cmp    $0x20,%eax
    5b9c:	0f 9f c2             	setg   %dl
    5b9f:	89 d0                	mov    %edx,%eax
    5ba1:	c3                   	ret    
    5ba2:	66 90                	xchg   %ax,%ax
    5ba4:	66 90                	xchg   %ax,%ax
    5ba6:	66 90                	xchg   %ax,%ax
    5ba8:	66 90                	xchg   %ax,%ax
    5baa:	66 90                	xchg   %ax,%ax
    5bac:	66 90                	xchg   %ax,%ax
    5bae:	66 90                	xchg   %ax,%ax

00005bb0 <iswpunct>:
    5bb0:	55                   	push   %ebp
    5bb1:	31 c0                	xor    %eax,%eax
    5bb3:	89 e5                	mov    %esp,%ebp
    5bb5:	8b 4d 08             	mov    0x8(%ebp),%ecx
    5bb8:	81 f9 ff ff 01 00    	cmp    $0x1ffff,%ecx
    5bbe:	7e 10                	jle    5bd0 <iswpunct+0x20>
    5bc0:	5d                   	pop    %ebp
    5bc1:	c3                   	ret    
    5bc2:	8d b4 26 00 00 00 00 	lea    0x0(%esi,%eiz,1),%esi
    5bc9:	8d b4 26 00 00 00 00 	lea    0x0(%esi,%eiz,1),%esi
    5bd0:	89 c8                	mov    %ecx,%eax
    5bd2:	89 ca                	mov    %ecx,%edx
    5bd4:	83 e1 07             	and    $0x7,%ecx
    5bd7:	5d                   	pop    %ebp
    5bd8:	c1 f8 08             	sar    $0x8,%eax
    5bdb:	c1 fa 03             	sar    $0x3,%edx
    5bde:	0f b6 80 c0 16 00 00 	movzbl 0x16c0(%eax),%eax
			5be1: R_386_32	.rodata
    5be5:	83 e2 1f             	and    $0x1f,%edx
    5be8:	c1 e0 05             	shl    $0x5,%eax
    5beb:	0f b6 84 02 c0 16 00 	movzbl 0x16c0(%edx,%eax,1),%eax
    5bf2:	00 
			5bef: R_386_32	.rodata
    5bf3:	d3 f8                	sar    %cl,%eax
    5bf5:	83 e0 01             	and    $0x1,%eax
    5bf8:	c3                   	ret    
    5bf9:	66 90                	xchg   %ax,%ax
    5bfb:	66 90                	xchg   %ax,%ax
    5bfd:	66 90                	xchg   %ax,%ax
    5bff:	90                   	nop

00005c00 <iswspace>:
    5c00:	55                   	push   %ebp
    5c01:	31 c0                	xor    %eax,%eax
    5c03:	89 e5                	mov    %esp,%ebp
    5c05:	8b 4d 08             	mov    0x8(%ebp),%ecx
    5c08:	85 c9                	test   %ecx,%ecx
    5c0a:	74 26                	je     5c32 <iswspace+0x32>
    5c0c:	b8 20 00 00 00       	mov    $0x20,%eax
    5c11:	ba 20 23 00 00       	mov    $0x2320,%edx
			5c12: R_386_32	.rodata
    5c16:	eb 11                	jmp    5c29 <iswspace+0x29>
    5c18:	8d b4 26 00 00 00 00 	lea    0x0(%esi,%eiz,1),%esi
    5c1f:	90                   	nop
    5c20:	83 c2 04             	add    $0x4,%edx
    5c23:	85 c0                	test   %eax,%eax
    5c25:	74 0b                	je     5c32 <iswspace+0x32>
    5c27:	8b 02                	mov    (%edx),%eax
    5c29:	39 c1                	cmp    %eax,%ecx
    5c2b:	75 f3                	jne    5c20 <iswspace+0x20>
    5c2d:	b8 01 00 00 00       	mov    $0x1,%eax
    5c32:	5d                   	pop    %ebp
    5c33:	c3                   	ret    
    5c34:	8d b4 26 00 00 00 00 	lea    0x0(%esi,%eiz,1),%esi
    5c3b:	8d 74 26 00          	lea    0x0(%esi,%eiz,1),%esi
    5c3f:	90                   	nop

00005c40 <wcschr>:
    5c40:	55                   	push   %ebp
    5c41:	89 e5                	mov    %esp,%ebp
    5c43:	8b 45 08             	mov    0x8(%ebp),%eax
    5c46:	8b 4d 0c             	mov    0xc(%ebp),%ecx
    5c49:	eb 0c                	jmp    5c57 <wcschr+0x17>
    5c4b:	8d 74 26 00          	lea    0x0(%esi,%eiz,1),%esi
    5c4f:	90                   	nop
    5c50:	83 c0 04             	add    $0x4,%eax
    5c53:	85 d2                	test   %edx,%edx
    5c55:	74 09                	je     5c60 <wcschr+0x20>
    5c57:	8b 10                	mov    (%eax),%edx
    5c59:	39 ca                	cmp    %ecx,%edx
    5c5b:	75 f3                	jne    5c50 <wcschr+0x10>
    5c5d:	5d                   	pop    %ebp
    5c5e:	c3                   	ret    
    5c5f:	90                   	nop
    5c60:	31 c0                	xor    %eax,%eax
    5c62:	5d                   	pop    %ebp
    5c63:	c3                   	ret    
    5c64:	66 90                	xchg   %ax,%ax
    5c66:	66 90                	xchg   %ax,%ax
    5c68:	66 90                	xchg   %ax,%ax
    5c6a:	66 90                	xchg   %ax,%ax
    5c6c:	66 90                	xchg   %ax,%ax
    5c6e:	66 90                	xchg   %ax,%ax

00005c70 <iswupper>:
    5c70:	55                   	push   %ebp
    5c71:	89 e5                	mov    %esp,%ebp
    5c73:	53                   	push   %ebx
    5c74:	83 ec 10             	sub    $0x10,%esp
    5c77:	8b 5d 08             	mov    0x8(%ebp),%ebx
    5c7a:	53                   	push   %ebx
    5c7b:	e8 fc ff ff ff       	call   5c7c <iswupper+0xc>
			5c7c: R_386_PC32	towlower
    5c80:	83 c4 10             	add    $0x10,%esp
    5c83:	39 d8                	cmp    %ebx,%eax
    5c85:	8b 5d fc             	mov    -0x4(%ebp),%ebx
    5c88:	c9                   	leave  
    5c89:	0f 95 c0             	setne  %al
    5c8c:	0f b6 c0             	movzbl %al,%eax
    5c8f:	c3                   	ret    

00005c90 <iswxdigit>:
    5c90:	55                   	push   %ebp
    5c91:	b8 01 00 00 00       	mov    $0x1,%eax
    5c96:	89 e5                	mov    %esp,%ebp
    5c98:	8b 55 08             	mov    0x8(%ebp),%edx
    5c9b:	8d 4a d0             	lea    -0x30(%edx),%ecx
    5c9e:	83 f9 09             	cmp    $0x9,%ecx
    5ca1:	76 11                	jbe    5cb4 <iswxdigit+0x24>
    5ca3:	89 d0                	mov    %edx,%eax
    5ca5:	83 c8 20             	or     $0x20,%eax
    5ca8:	83 e8 61             	sub    $0x61,%eax
    5cab:	83 f8 05             	cmp    $0x5,%eax
    5cae:	0f 96 c0             	setbe  %al
    5cb1:	0f b6 c0             	movzbl %al,%eax
    5cb4:	5d                   	pop    %ebp
    5cb5:	c3                   	ret    
    5cb6:	66 90                	xchg   %ax,%ax
    5cb8:	66 90                	xchg   %ax,%ax
    5cba:	66 90                	xchg   %ax,%ax
    5cbc:	66 90                	xchg   %ax,%ax
    5cbe:	66 90                	xchg   %ax,%ax

00005cc0 <__towcase>:
    5cc0:	55                   	push   %ebp
    5cc1:	89 e5                	mov    %esp,%ebp
    5cc3:	57                   	push   %edi
    5cc4:	56                   	push   %esi
    5cc5:	53                   	push   %ebx
    5cc6:	83 ec 28             	sub    $0x28,%esp
    5cc9:	8b 5d 08             	mov    0x8(%ebp),%ebx
    5ccc:	53                   	push   %ebx
    5ccd:	e8 fc ff ff ff       	call   5cce <__towcase+0xe>
			5cce: R_386_PC32	iswalpha
    5cd2:	83 c4 10             	add    $0x10,%esp
    5cd5:	85 c0                	test   %eax,%eax
    5cd7:	74 5b                	je     5d34 <__towcase+0x74>
    5cd9:	8d 83 00 fa ff ff    	lea    -0x600(%ebx),%eax
    5cdf:	3d ff 09 00 00       	cmp    $0x9ff,%eax
    5ce4:	76 4e                	jbe    5d34 <__towcase+0x74>
    5ce6:	8d 83 00 d2 ff ff    	lea    -0x2e00(%ebx),%eax
    5cec:	3d 3f 78 00 00       	cmp    $0x783f,%eax
    5cf1:	76 41                	jbe    5d34 <__towcase+0x74>
    5cf3:	8d 83 00 58 ff ff    	lea    -0xa800(%ebx),%eax
    5cf9:	3d 52 03 00 00       	cmp    $0x352,%eax
    5cfe:	76 34                	jbe    5d34 <__towcase+0x74>
    5d00:	8d 83 40 54 ff ff    	lea    -0xabc0(%ebx),%eax
    5d06:	3d 3f 53 00 00       	cmp    $0x533f,%eax
    5d0b:	76 27                	jbe    5d34 <__towcase+0x74>
    5d0d:	8b 45 0c             	mov    0xc(%ebp),%eax
    5d10:	85 c0                	test   %eax,%eax
    5d12:	75 2c                	jne    5d40 <__towcase+0x80>
    5d14:	8d 83 00 d3 ff ff    	lea    -0x2d00(%ebx),%eax
    5d1a:	83 f8 25             	cmp    $0x25,%eax
    5d1d:	0f 86 ed 00 00 00    	jbe    5e10 <__towcase+0x150>
    5d23:	8d 83 90 54 ff ff    	lea    -0xab70(%ebx),%eax
    5d29:	83 f8 4f             	cmp    $0x4f,%eax
    5d2c:	77 30                	ja     5d5e <__towcase+0x9e>
    5d2e:	81 eb d0 97 00 00    	sub    $0x97d0,%ebx
    5d34:	8d 65 f4             	lea    -0xc(%ebp),%esp
    5d37:	89 d8                	mov    %ebx,%eax
    5d39:	5b                   	pop    %ebx
    5d3a:	5e                   	pop    %esi
    5d3b:	5f                   	pop    %edi
    5d3c:	5d                   	pop    %ebp
    5d3d:	c3                   	ret    
    5d3e:	66 90                	xchg   %ax,%ax
    5d40:	8d 83 60 ef ff ff    	lea    -0x10a0(%ebx),%eax
    5d46:	83 f8 2d             	cmp    $0x2d,%eax
    5d49:	0f 86 91 00 00 00    	jbe    5de0 <__towcase+0x120>
    5d4f:	8d 83 60 ec ff ff    	lea    -0x13a0(%ebx),%eax
    5d55:	83 f8 4f             	cmp    $0x4f,%eax
    5d58:	0f 86 82 01 00 00    	jbe    5ee0 <__towcase+0x220>
    5d5e:	8b 45 0c             	mov    0xc(%ebp),%eax
    5d61:	c6 45 e7 20          	movb   $0x20,-0x19(%ebp)
    5d65:	b9 c0 00 00 00       	mov    $0xc0,%ecx
    5d6a:	31 d2                	xor    %edx,%edx
    5d6c:	89 5d 08             	mov    %ebx,0x8(%ebp)
    5d6f:	83 e8 01             	sub    $0x1,%eax
    5d72:	89 45 e0             	mov    %eax,-0x20(%ebp)
    5d75:	b8 1f 00 00 00       	mov    $0x1f,%eax
    5d7a:	eb 2a                	jmp    5da6 <__towcase+0xe6>
    5d7c:	8d 74 26 00          	lea    0x0(%esi,%eiz,1),%esi
    5d80:	83 c2 01             	add    $0x1,%edx
    5d83:	0f b6 04 95 c3 25 00 	movzbl 0x25c3(,%edx,4),%eax
    5d8a:	00 
			5d87: R_386_32	.rodata
    5d8b:	84 c0                	test   %al,%al
    5d8d:	0f 84 8d 00 00 00    	je     5e20 <__towcase+0x160>
    5d93:	0f b6 1c 95 c2 25 00 	movzbl 0x25c2(,%edx,4),%ebx
    5d9a:	00 
			5d97: R_386_32	.rodata
    5d9b:	0f b7 0c 95 c0 25 00 	movzwl 0x25c0(,%edx,4),%ecx
    5da2:	00 
			5d9f: R_386_32	.rodata
    5da3:	88 5d e7             	mov    %bl,-0x19(%ebp)
    5da6:	0f be 7d e7          	movsbl -0x19(%ebp),%edi
    5daa:	8b 5d e0             	mov    -0x20(%ebp),%ebx
    5dad:	8b 75 08             	mov    0x8(%ebp),%esi
    5db0:	21 fb                	and    %edi,%ebx
    5db2:	01 cb                	add    %ecx,%ebx
    5db4:	29 de                	sub    %ebx,%esi
    5db6:	39 c6                	cmp    %eax,%esi
    5db8:	7d c6                	jge    5d80 <__towcase+0xc0>
    5dba:	80 7d e7 01          	cmpb   $0x1,-0x19(%ebp)
    5dbe:	8b 5d 08             	mov    0x8(%ebp),%ebx
    5dc1:	0f 84 24 01 00 00    	je     5eeb <__towcase+0x22b>
    5dc7:	8b 45 0c             	mov    0xc(%ebp),%eax
    5dca:	8d 44 00 ff          	lea    -0x1(%eax,%eax,1),%eax
    5dce:	0f af c7             	imul   %edi,%eax
    5dd1:	01 c3                	add    %eax,%ebx
    5dd3:	e9 5c ff ff ff       	jmp    5d34 <__towcase+0x74>
    5dd8:	8d b4 26 00 00 00 00 	lea    0x0(%esi,%eiz,1),%esi
    5ddf:	90                   	nop
    5de0:	81 fb c5 10 00 00    	cmp    $0x10c5,%ebx
    5de6:	0f 9f c2             	setg   %dl
    5de9:	81 fb c7 10 00 00    	cmp    $0x10c7,%ebx
    5def:	0f 95 c0             	setne  %al
    5df2:	84 c2                	test   %al,%dl
    5df4:	74 0c                	je     5e02 <__towcase+0x142>
    5df6:	81 fb cd 10 00 00    	cmp    $0x10cd,%ebx
    5dfc:	0f 85 32 ff ff ff    	jne    5d34 <__towcase+0x74>
    5e02:	81 c3 60 1c 00 00    	add    $0x1c60,%ebx
    5e08:	e9 27 ff ff ff       	jmp    5d34 <__towcase+0x74>
    5e0d:	8d 76 00             	lea    0x0(%esi),%esi
    5e10:	81 eb 60 1c 00 00    	sub    $0x1c60,%ebx
    5e16:	e9 19 ff ff ff       	jmp    5d34 <__towcase+0x74>
    5e1b:	8d 74 26 00          	lea    0x0(%esi,%eiz,1),%esi
    5e1f:	90                   	nop
    5e20:	b9 01 00 00 00       	mov    $0x1,%ecx
    5e25:	2b 4d 0c             	sub    0xc(%ebp),%ecx
    5e28:	8b 5d 08             	mov    0x8(%ebp),%ebx
    5e2b:	0f b7 84 09 80 23 00 	movzwl 0x2380(%ecx,%ecx,1),%eax
    5e32:	00 
			5e2f: R_386_32	.rodata
    5e33:	66 85 c0             	test   %ax,%ax
    5e36:	74 38                	je     5e70 <__towcase+0x1b0>
    5e38:	01 c9                	add    %ecx,%ecx
    5e3a:	31 d2                	xor    %edx,%edx
    5e3c:	eb 12                	jmp    5e50 <__towcase+0x190>
    5e3e:	66 90                	xchg   %ax,%ax
    5e40:	83 c2 01             	add    $0x1,%edx
    5e43:	0f b7 84 91 80 23 00 	movzwl 0x2380(%ecx,%edx,4),%eax
    5e4a:	00 
			5e47: R_386_32	.rodata
    5e4b:	66 85 c0             	test   %ax,%ax
    5e4e:	74 20                	je     5e70 <__towcase+0x1b0>
    5e50:	39 d8                	cmp    %ebx,%eax
    5e52:	75 ec                	jne    5e40 <__towcase+0x180>
    5e54:	8b 45 0c             	mov    0xc(%ebp),%eax
    5e57:	8d 04 50             	lea    (%eax,%edx,2),%eax
    5e5a:	0f b7 9c 00 80 23 00 	movzwl 0x2380(%eax,%eax,1),%ebx
    5e61:	00 
			5e5e: R_386_32	.rodata
    5e62:	e9 cd fe ff ff       	jmp    5d34 <__towcase+0x74>
    5e67:	8d b4 26 00 00 00 00 	lea    0x0(%esi,%eiz,1),%esi
    5e6e:	66 90                	xchg   %ax,%ax
    5e70:	6b 45 0c d8          	imul   $0xffffffd8,0xc(%ebp),%eax
    5e74:	89 da                	mov    %ebx,%edx
    5e76:	8d 88 28 04 01 00    	lea    0x10428(%eax),%ecx
    5e7c:	29 ca                	sub    %ecx,%edx
    5e7e:	83 fa 27             	cmp    $0x27,%edx
    5e81:	7e 7d                	jle    5f00 <__towcase+0x240>
    5e83:	05 d8 04 01 00       	add    $0x104d8,%eax
    5e88:	89 da                	mov    %ebx,%edx
    5e8a:	29 c2                	sub    %eax,%edx
    5e8c:	83 fa 23             	cmp    $0x23,%edx
    5e8f:	7e 6f                	jle    5f00 <__towcase+0x240>
    5e91:	b8 33 04 00 00       	mov    $0x433,%eax
    5e96:	2b 45 0c             	sub    0xc(%ebp),%eax
    5e99:	89 da                	mov    %ebx,%edx
    5e9b:	c1 e0 06             	shl    $0x6,%eax
    5e9e:	29 c2                	sub    %eax,%edx
    5ea0:	83 fa 32             	cmp    $0x32,%edx
    5ea3:	7e 6e                	jle    5f13 <__towcase+0x253>
    5ea5:	b8 c6 08 00 00       	mov    $0x8c6,%eax
    5eaa:	2b 45 0c             	sub    0xc(%ebp),%eax
    5ead:	89 da                	mov    %ebx,%edx
    5eaf:	c1 e0 05             	shl    $0x5,%eax
    5eb2:	29 c2                	sub    %eax,%edx
    5eb4:	83 fa 1f             	cmp    $0x1f,%edx
    5eb7:	7e 6a                	jle    5f23 <__towcase+0x263>
    5eb9:	6b 45 0c de          	imul   $0xffffffde,0xc(%ebp),%eax
    5ebd:	89 da                	mov    %ebx,%edx
    5ebf:	05 22 e9 01 00       	add    $0x1e922,%eax
    5ec4:	29 c2                	sub    %eax,%edx
    5ec6:	83 fa 21             	cmp    $0x21,%edx
    5ec9:	0f 8f 65 fe ff ff    	jg     5d34 <__towcase+0x74>
    5ecf:	6b 45 0c 44          	imul   $0x44,0xc(%ebp),%eax
    5ed3:	83 c0 22             	add    $0x22,%eax
    5ed6:	29 c3                	sub    %eax,%ebx
    5ed8:	e9 57 fe ff ff       	jmp    5d34 <__towcase+0x74>
    5edd:	8d 76 00             	lea    0x0(%esi),%esi
    5ee0:	81 c3 d0 97 00 00    	add    $0x97d0,%ebx
    5ee6:	e9 49 fe ff ff       	jmp    5d34 <__towcase+0x74>
    5eeb:	89 d8                	mov    %ebx,%eax
    5eed:	8b 55 0c             	mov    0xc(%ebp),%edx
    5ef0:	29 c8                	sub    %ecx,%eax
    5ef2:	01 da                	add    %ebx,%edx
    5ef4:	83 e0 01             	and    $0x1,%eax
    5ef7:	29 c2                	sub    %eax,%edx
    5ef9:	89 d3                	mov    %edx,%ebx
    5efb:	e9 34 fe ff ff       	jmp    5d34 <__towcase+0x74>
    5f00:	8b 45 0c             	mov    0xc(%ebp),%eax
    5f03:	8d 04 80             	lea    (%eax,%eax,4),%eax
    5f06:	c1 e0 04             	shl    $0x4,%eax
    5f09:	83 c0 28             	add    $0x28,%eax
    5f0c:	29 c3                	sub    %eax,%ebx
    5f0e:	e9 21 fe ff ff       	jmp    5d34 <__towcase+0x74>
    5f13:	8b 45 0c             	mov    0xc(%ebp),%eax
    5f16:	c1 e0 07             	shl    $0x7,%eax
    5f19:	83 c0 40             	add    $0x40,%eax
    5f1c:	29 c3                	sub    %eax,%ebx
    5f1e:	e9 11 fe ff ff       	jmp    5d34 <__towcase+0x74>
    5f23:	8b 45 0c             	mov    0xc(%ebp),%eax
    5f26:	c1 e0 06             	shl    $0x6,%eax
    5f29:	83 c0 20             	add    $0x20,%eax
    5f2c:	29 c3                	sub    %eax,%ebx
    5f2e:	e9 01 fe ff ff       	jmp    5d34 <__towcase+0x74>
    5f33:	66 90                	xchg   %ax,%ax
    5f35:	66 90                	xchg   %ax,%ax
    5f37:	66 90                	xchg   %ax,%ax
    5f39:	66 90                	xchg   %ax,%ax
    5f3b:	66 90                	xchg   %ax,%ax
    5f3d:	66 90                	xchg   %ax,%ax
    5f3f:	90                   	nop

00005f40 <towctrans>:
    5f40:	55                   	push   %ebp
    5f41:	89 e5                	mov    %esp,%ebp
    5f43:	8b 45 0c             	mov    0xc(%ebp),%eax
    5f46:	8b 55 08             	mov    0x8(%ebp),%edx
    5f49:	83 f8 01             	cmp    $0x1,%eax
    5f4c:	74 12                	je     5f60 <towctrans+0x20>
    5f4e:	83 f8 02             	cmp    $0x2,%eax
    5f51:	74 1d                	je     5f70 <towctrans+0x30>
    5f53:	89 d0                	mov    %edx,%eax
    5f55:	5d                   	pop    %ebp
    5f56:	c3                   	ret    
    5f57:	8d b4 26 00 00 00 00 	lea    0x0(%esi,%eiz,1),%esi
    5f5e:	66 90                	xchg   %ax,%ax
    5f60:	5d                   	pop    %ebp
    5f61:	e9 fc ff ff ff       	jmp    5f62 <towctrans+0x22>
			5f62: R_386_PC32	towupper
    5f66:	8d b4 26 00 00 00 00 	lea    0x0(%esi,%eiz,1),%esi
    5f6d:	8d 76 00             	lea    0x0(%esi),%esi
    5f70:	89 55 08             	mov    %edx,0x8(%ebp)
    5f73:	5d                   	pop    %ebp
    5f74:	e9 fc ff ff ff       	jmp    5f75 <towctrans+0x35>
			5f75: R_386_PC32	towlower
    5f79:	66 90                	xchg   %ax,%ax
    5f7b:	66 90                	xchg   %ax,%ax
    5f7d:	66 90                	xchg   %ax,%ax
    5f7f:	90                   	nop

00005f80 <towlower>:
    5f80:	55                   	push   %ebp
    5f81:	89 e5                	mov    %esp,%ebp
    5f83:	83 ec 08             	sub    $0x8,%esp
    5f86:	8b 45 08             	mov    0x8(%ebp),%eax
    5f89:	83 f8 7f             	cmp    $0x7f,%eax
    5f8c:	7f 12                	jg     5fa0 <towlower+0x20>
    5f8e:	c9                   	leave  
    5f8f:	e9 fc ff ff ff       	jmp    5f90 <towlower+0x10>
			5f90: R_386_PC32	tolower
    5f94:	8d b4 26 00 00 00 00 	lea    0x0(%esi,%eiz,1),%esi
    5f9b:	8d 74 26 00          	lea    0x0(%esi,%eiz,1),%esi
    5f9f:	90                   	nop
    5fa0:	83 ec 08             	sub    $0x8,%esp
    5fa3:	6a 01                	push   $0x1
    5fa5:	50                   	push   %eax
    5fa6:	e8 fc ff ff ff       	call   5fa7 <towlower+0x27>
			5fa7: R_386_PC32	__towcase
    5fab:	83 c4 10             	add    $0x10,%esp
    5fae:	c9                   	leave  
    5faf:	c3                   	ret    

00005fb0 <towupper>:
    5fb0:	55                   	push   %ebp
    5fb1:	89 e5                	mov    %esp,%ebp
    5fb3:	83 ec 08             	sub    $0x8,%esp
    5fb6:	8b 45 08             	mov    0x8(%ebp),%eax
    5fb9:	83 f8 7f             	cmp    $0x7f,%eax
    5fbc:	7f 12                	jg     5fd0 <towupper+0x20>
    5fbe:	c9                   	leave  
    5fbf:	e9 fc ff ff ff       	jmp    5fc0 <towupper+0x10>
			5fc0: R_386_PC32	toupper
    5fc4:	8d b4 26 00 00 00 00 	lea    0x0(%esi,%eiz,1),%esi
    5fcb:	8d 74 26 00          	lea    0x0(%esi,%eiz,1),%esi
    5fcf:	90                   	nop
    5fd0:	83 ec 08             	sub    $0x8,%esp
    5fd3:	6a 00                	push   $0x0
    5fd5:	50                   	push   %eax
    5fd6:	e8 fc ff ff ff       	call   5fd7 <towupper+0x27>
			5fd7: R_386_PC32	__towcase
    5fdb:	83 c4 10             	add    $0x10,%esp
    5fde:	c9                   	leave  
    5fdf:	c3                   	ret    

00005fe0 <wcswidth>:
    5fe0:	55                   	push   %ebp
    5fe1:	89 e5                	mov    %esp,%ebp
    5fe3:	57                   	push   %edi
    5fe4:	56                   	push   %esi
    5fe5:	53                   	push   %ebx
    5fe6:	31 db                	xor    %ebx,%ebx
    5fe8:	83 ec 0c             	sub    $0xc,%esp
    5feb:	8b 45 0c             	mov    0xc(%ebp),%eax
    5fee:	8b 75 08             	mov    0x8(%ebp),%esi
    5ff1:	8d 78 ff             	lea    -0x1(%eax),%edi
    5ff4:	85 c0                	test   %eax,%eax
    5ff6:	75 22                	jne    601a <wcswidth+0x3a>
    5ff8:	eb 26                	jmp    6020 <wcswidth+0x40>
    5ffa:	8d b6 00 00 00 00    	lea    0x0(%esi),%esi
    6000:	83 ec 0c             	sub    $0xc,%esp
    6003:	50                   	push   %eax
    6004:	e8 fc ff ff ff       	call   6005 <wcswidth+0x25>
			6005: R_386_PC32	wcwidth
    6009:	83 c4 10             	add    $0x10,%esp
    600c:	85 c0                	test   %eax,%eax
    600e:	78 20                	js     6030 <wcswidth+0x50>
    6010:	01 c3                	add    %eax,%ebx
    6012:	83 c6 04             	add    $0x4,%esi
    6015:	83 ef 01             	sub    $0x1,%edi
    6018:	72 06                	jb     6020 <wcswidth+0x40>
    601a:	8b 06                	mov    (%esi),%eax
    601c:	85 c0                	test   %eax,%eax
    601e:	75 e0                	jne    6000 <wcswidth+0x20>
    6020:	8d 65 f4             	lea    -0xc(%ebp),%esp
    6023:	89 d8                	mov    %ebx,%eax
    6025:	5b                   	pop    %ebx
    6026:	5e                   	pop    %esi
    6027:	5f                   	pop    %edi
    6028:	5d                   	pop    %ebp
    6029:	c3                   	ret    
    602a:	8d b6 00 00 00 00    	lea    0x0(%esi),%esi
    6030:	8d 65 f4             	lea    -0xc(%ebp),%esp
    6033:	89 c3                	mov    %eax,%ebx
    6035:	89 d8                	mov    %ebx,%eax
    6037:	5b                   	pop    %ebx
    6038:	5e                   	pop    %esi
    6039:	5f                   	pop    %edi
    603a:	5d                   	pop    %ebp
    603b:	c3                   	ret    
    603c:	66 90                	xchg   %ax,%ax
    603e:	66 90                	xchg   %ax,%ax

00006040 <wctrans>:
    6040:	55                   	push   %ebp
    6041:	89 e5                	mov    %esp,%ebp
    6043:	53                   	push   %ebx
    6044:	83 ec 0c             	sub    $0xc,%esp
    6047:	8b 5d 08             	mov    0x8(%ebp),%ebx
    604a:	68 5f 00 00 00       	push   $0x5f
			604b: R_386_32	.rodata.str1.1
    604f:	53                   	push   %ebx
    6050:	e8 fc ff ff ff       	call   6051 <wctrans+0x11>
			6051: R_386_PC32	strcmp
    6055:	83 c4 10             	add    $0x10,%esp
    6058:	89 c2                	mov    %eax,%edx
    605a:	b8 01 00 00 00       	mov    $0x1,%eax
    605f:	85 d2                	test   %edx,%edx
    6061:	74 1b                	je     607e <wctrans+0x3e>
    6063:	83 ec 08             	sub    $0x8,%esp
    6066:	68 67 00 00 00       	push   $0x67
			6067: R_386_32	.rodata.str1.1
    606b:	53                   	push   %ebx
    606c:	e8 fc ff ff ff       	call   606d <wctrans+0x2d>
			606d: R_386_PC32	strcmp
    6071:	83 c4 10             	add    $0x10,%esp
    6074:	85 c0                	test   %eax,%eax
    6076:	0f 94 c0             	sete   %al
    6079:	0f b6 c0             	movzbl %al,%eax
    607c:	01 c0                	add    %eax,%eax
    607e:	8b 5d fc             	mov    -0x4(%ebp),%ebx
    6081:	c9                   	leave  
    6082:	c3                   	ret    
    6083:	66 90                	xchg   %ax,%ax
    6085:	66 90                	xchg   %ax,%ax
    6087:	66 90                	xchg   %ax,%ax
    6089:	66 90                	xchg   %ax,%ax
    608b:	66 90                	xchg   %ax,%ax
    608d:	66 90                	xchg   %ax,%ax
    608f:	90                   	nop

00006090 <wctype>:
    6090:	55                   	push   %ebp
    6091:	b8 61 00 00 00       	mov    $0x61,%eax
    6096:	89 e5                	mov    %esp,%ebp
    6098:	57                   	push   %edi
    6099:	56                   	push   %esi
    609a:	be 01 00 00 00       	mov    $0x1,%esi
    609f:	53                   	push   %ebx
    60a0:	bb e0 26 00 00       	mov    $0x26e0,%ebx
			60a1: R_386_32	.rodata
    60a5:	83 ec 0c             	sub    $0xc,%esp
    60a8:	8b 7d 08             	mov    0x8(%ebp),%edi
    60ab:	eb 11                	jmp    60be <wctype+0x2e>
    60ad:	8d 76 00             	lea    0x0(%esi),%esi
    60b0:	0f b6 43 06          	movzbl 0x6(%ebx),%eax
    60b4:	83 c3 06             	add    $0x6,%ebx
    60b7:	83 c6 01             	add    $0x1,%esi
    60ba:	84 c0                	test   %al,%al
    60bc:	74 22                	je     60e0 <wctype+0x50>
    60be:	38 07                	cmp    %al,(%edi)
    60c0:	75 ee                	jne    60b0 <wctype+0x20>
    60c2:	83 ec 08             	sub    $0x8,%esp
    60c5:	53                   	push   %ebx
    60c6:	57                   	push   %edi
    60c7:	e8 fc ff ff ff       	call   60c8 <wctype+0x38>
			60c8: R_386_PC32	strcmp
    60cc:	83 c4 10             	add    $0x10,%esp
    60cf:	85 c0                	test   %eax,%eax
    60d1:	75 dd                	jne    60b0 <wctype+0x20>
    60d3:	8d 65 f4             	lea    -0xc(%ebp),%esp
    60d6:	89 f0                	mov    %esi,%eax
    60d8:	5b                   	pop    %ebx
    60d9:	5e                   	pop    %esi
    60da:	5f                   	pop    %edi
    60db:	5d                   	pop    %ebp
    60dc:	c3                   	ret    
    60dd:	8d 76 00             	lea    0x0(%esi),%esi
    60e0:	8d 65 f4             	lea    -0xc(%ebp),%esp
    60e3:	31 f6                	xor    %esi,%esi
    60e5:	5b                   	pop    %ebx
    60e6:	89 f0                	mov    %esi,%eax
    60e8:	5e                   	pop    %esi
    60e9:	5f                   	pop    %edi
    60ea:	5d                   	pop    %ebp
    60eb:	c3                   	ret    
    60ec:	66 90                	xchg   %ax,%ax
    60ee:	66 90                	xchg   %ax,%ax

000060f0 <wcwidth>:
    60f0:	55                   	push   %ebp
    60f1:	89 e5                	mov    %esp,%ebp
    60f3:	53                   	push   %ebx
    60f4:	8b 4d 08             	mov    0x8(%ebp),%ecx
    60f7:	83 f9 7e             	cmp    $0x7e,%ecx
    60fa:	0f 8e 80 00 00 00    	jle    6180 <wcwidth+0x90>
    6100:	89 c8                	mov    %ecx,%eax
    6102:	25 ff ff fe ff       	and    $0xfffeffff,%eax
    6107:	3d fd ff 00 00       	cmp    $0xfffd,%eax
    610c:	89 c8                	mov    %ecx,%eax
    610e:	7e 30                	jle    6140 <wcwidth+0x50>
    6110:	25 fe ff 00 00       	and    $0xfffe,%eax
    6115:	3d fe ff 00 00       	cmp    $0xfffe,%eax
    611a:	74 7d                	je     6199 <wcwidth+0xa9>
    611c:	b8 02 00 00 00       	mov    $0x2,%eax
    6121:	81 f9 ff ff 03 00    	cmp    $0x3ffff,%ecx
    6127:	7e 0b                	jle    6134 <wcwidth+0x44>
    6129:	31 c0                	xor    %eax,%eax
    612b:	81 f9 ee 01 0e 00    	cmp    $0xe01ee,%ecx
    6131:	0f 9f c0             	setg   %al
    6134:	8b 5d fc             	mov    -0x4(%ebp),%ebx
    6137:	c9                   	leave  
    6138:	c3                   	ret    
    6139:	8d b4 26 00 00 00 00 	lea    0x0(%esi,%eiz,1),%esi
    6140:	c1 f8 08             	sar    $0x8,%eax
    6143:	0f b6 90 40 2d 00 00 	movzbl 0x2d40(%eax),%edx
			6146: R_386_32	.rodata
    614a:	89 c8                	mov    %ecx,%eax
    614c:	83 e1 07             	and    $0x7,%ecx
    614f:	c1 f8 03             	sar    $0x3,%eax
    6152:	83 e0 1f             	and    $0x1f,%eax
    6155:	c1 e2 05             	shl    $0x5,%edx
    6158:	01 c2                	add    %eax,%edx
    615a:	31 c0                	xor    %eax,%eax
    615c:	0f b6 9a 40 2d 00 00 	movzbl 0x2d40(%edx),%ebx
			615f: R_386_32	.rodata
    6163:	0f a3 cb             	bt     %ecx,%ebx
    6166:	72 cc                	jb     6134 <wcwidth+0x44>
    6168:	0f b6 82 40 27 00 00 	movzbl 0x2740(%edx),%eax
			616b: R_386_32	.rodata
    616f:	8b 5d fc             	mov    -0x4(%ebp),%ebx
    6172:	c9                   	leave  
    6173:	d3 f8                	sar    %cl,%eax
    6175:	83 e0 01             	and    $0x1,%eax
    6178:	83 c0 01             	add    $0x1,%eax
    617b:	c3                   	ret    
    617c:	8d 74 26 00          	lea    0x0(%esi,%eiz,1),%esi
    6180:	8d 51 01             	lea    0x1(%ecx),%edx
    6183:	b8 01 00 00 00       	mov    $0x1,%eax
    6188:	83 e2 7f             	and    $0x7f,%edx
    618b:	83 fa 20             	cmp    $0x20,%edx
    618e:	7f a4                	jg     6134 <wcwidth+0x44>
    6190:	f7 d9                	neg    %ecx
    6192:	8b 5d fc             	mov    -0x4(%ebp),%ebx
    6195:	c9                   	leave  
    6196:	19 c0                	sbb    %eax,%eax
    6198:	c3                   	ret    
    6199:	b8 ff ff ff ff       	mov    $0xffffffff,%eax
    619e:	eb 94                	jmp    6134 <wcwidth+0x44>

000061a0 <setjmp>:
    61a0:	55                   	push   %ebp
    61a1:	89 e5                	mov    %esp,%ebp
    61a3:	57                   	push   %edi
    61a4:	8b 7d 08             	mov    0x8(%ebp),%edi
    61a7:	89 07                	mov    %eax,(%edi)
    61a9:	89 5f 04             	mov    %ebx,0x4(%edi)
    61ac:	89 4f 08             	mov    %ecx,0x8(%edi)
    61af:	89 57 0c             	mov    %edx,0xc(%edi)
    61b2:	89 77 10             	mov    %esi,0x10(%edi)
    61b5:	8b 45 fc             	mov    -0x4(%ebp),%eax
    61b8:	89 47 14             	mov    %eax,0x14(%edi)
    61bb:	8b 45 00             	mov    0x0(%ebp),%eax
    61be:	89 47 18             	mov    %eax,0x18(%edi)
    61c1:	89 e0                	mov    %esp,%eax
    61c3:	83 c0 0c             	add    $0xc,%eax
    61c6:	89 47 1c             	mov    %eax,0x1c(%edi)
    61c9:	8b 45 04             	mov    0x4(%ebp),%eax
    61cc:	89 47 20             	mov    %eax,0x20(%edi)
    61cf:	5f                   	pop    %edi
    61d0:	b8 00 00 00 00       	mov    $0x0,%eax
    61d5:	c9                   	leave  
    61d6:	c3                   	ret    

000061d7 <longjmp>:
    61d7:	55                   	push   %ebp
    61d8:	89 e5                	mov    %esp,%ebp
    61da:	8b 7d 08             	mov    0x8(%ebp),%edi
    61dd:	8b 45 0c             	mov    0xc(%ebp),%eax
    61e0:	85 c0                	test   %eax,%eax
    61e2:	75 01                	jne    61e5 <longjmp+0xe>
    61e4:	40                   	inc    %eax
    61e5:	89 07                	mov    %eax,(%edi)
    61e7:	8b 6f 18             	mov    0x18(%edi),%ebp
    61ea:	fa                   	cli    
    61eb:	8b 67 1c             	mov    0x1c(%edi),%esp
    61ee:	ff 77 20             	push   0x20(%edi)
    61f1:	8b 07                	mov    (%edi),%eax
    61f3:	8b 5f 04             	mov    0x4(%edi),%ebx
    61f6:	8b 4f 08             	mov    0x8(%edi),%ecx
    61f9:	8b 57 0c             	mov    0xc(%edi),%edx
    61fc:	8b 77 10             	mov    0x10(%edi),%esi
    61ff:	8b 7f 14             	mov    0x14(%edi),%edi
    6202:	fb                   	sti    
    6203:	c3                   	ret    

Disassembly of section .text.startup:

00000000 <__construct_stk_chk_guard>:
   0:	8b 15 00 00 00 00    	mov    0x0,%edx
			2: R_386_32	__stack_chk_guard
   6:	85 d2                	test   %edx,%edx
   8:	74 01                	je     b <__construct_stk_chk_guard+0xb>
   a:	c3                   	ret    
   b:	55                   	push   %ebp
   c:	89 e5                	mov    %esp,%ebp
   e:	83 ec 08             	sub    $0x8,%esp
  11:	e8 fc ff ff ff       	call   12 <__construct_stk_chk_guard+0x12>
			12: R_386_PC32	__stack_chk_guard_init
  16:	a3 00 00 00 00       	mov    %eax,0x0
			17: R_386_32	__stack_chk_guard
  1b:	c9                   	leave  
  1c:	c3                   	ret    

Disassembly of section .fini:

00000000 <.fini>:
   0:	e8 8c 00 00 00       	call   91 <__do_fini+0x1>
			1: R_386_PC32	.text
